	.text
	.file	"llvm-link"
	.file	1 "ss_sort.c"
	.globl	print                   # -- Begin function print
	.p2align	4, 0x90
	.type	print,@function
print:                                  # @print
.Lfunc_begin0:
	.loc	1 8 0                   # ss_sort.c:8:0
	.cfi_startproc
# %bb.0:
	pushq	%rbp
	.cfi_def_cfa_offset 16
	.cfi_offset %rbp, -16
	movq	%rsp, %rbp
	.cfi_def_cfa_register %rbp
	pushq	%r15
	pushq	%r14
	pushq	%r12
	pushq	%rbx
	subq	$496, %rsp              # imm = 0x1F0
	.cfi_offset %rbx, -48
	.cfi_offset %r12, -40
	.cfi_offset %r14, -32
	.cfi_offset %r15, -24
	movl	$24601, %eax            # imm = 0x6019
	movl	%eax, %ecx
	movl	$64, %eax
	movl	%eax, %edx
	movl	$1, %eax
	movl	%eax, %r8d
	movabsq	$.L.str.17, %r9
	xorl	%eax, %eax
	movl	%eax, %r10d
	movabsq	$.L.str.5, %r11
.Ltmp0:
	.loc	1 7 17 prologue_end     # ss_sort.c:7:17
	movq	%rdi, -40(%rbp)         # 8-byte Spill
	movq	%rcx, %rdi
	movl	%esi, -44(%rbp)         # 4-byte Spill
	movq	%rdx, %rsi
	movq	-40(%rbp), %rdx         # 8-byte Reload
	movq	%r8, %rcx
	movq	%r9, %r8
	movq	%r10, %r9
	movq	%r11, (%rsp)
	callq	trace_logger_log_ptr
	movl	$24601, %eax            # imm = 0x6019
	movl	%eax, %edi
	movl	$32, %eax
	movl	%eax, %esi
	movl	$1, %eax
	movl	%eax, %ecx
	movabsq	$.L.str.6, %r8
	xorl	%eax, %eax
	movl	%eax, %r9d
	movabsq	$.L.str.5, %rdx
	movl	-44(%rbp), %eax         # 4-byte Reload
	movl	%eax, %ebx
	movl	%ebx, %r10d
	movq	%rdx, -56(%rbp)         # 8-byte Spill
	movq	%r10, %rdx
	movq	-56(%rbp), %r10         # 8-byte Reload
	movq	%r10, (%rsp)
	callq	trace_logger_log_int
	movl	$11, %eax
	movl	%eax, %edi
	movabsq	$.L.str.1, %rsi
	movabsq	$.L.str.2, %rdx
	movabsq	$.L.str.3, %rcx
	movl	$51, %eax
	movl	%eax, %r8d
	xorl	%r9d, %r9d
	movl	$1, %eax
	#DEBUG_VALUE: print:a <- [DW_OP_constu 40, DW_OP_minus] [%rbp+0]
	#DEBUG_VALUE: print:size <- [DW_OP_constu 44, DW_OP_minus] [%rbp+0]
.Ltmp1:
	#DEBUG_VALUE: print:i <- 0
	.loc	1 11 16                 # ss_sort.c:11:16
	movl	$1, (%rsp)
	movl	%eax, -60(%rbp)         # 4-byte Spill
	callq	trace_logger_log0
	movl	$2, %eax
	movl	%eax, %edi
	movl	$32, %eax
	movl	%eax, %esi
	xorl	%eax, %eax
	movl	%eax, %ecx
	movl	$1, %eax
	movl	%eax, %edx
	movabsq	$.L.str.4, %r8
	movabsq	$.L.str.5, %r10
	movq	%rdx, -72(%rbp)         # 8-byte Spill
	movq	%rcx, %rdx
	movq	-72(%rbp), %r11         # 8-byte Reload
	movq	%rcx, -80(%rbp)         # 8-byte Spill
	movq	%r11, %rcx
	movq	-80(%rbp), %r9          # 8-byte Reload
	movq	%r10, (%rsp)
	callq	trace_logger_log_int
	movl	$1, %eax
	movl	%eax, %ecx
	movl	$32, %eax
	movl	%eax, %esi
	movabsq	$.L.str.6, %r8
	xorl	%eax, %eax
	movl	%eax, %r9d
	movabsq	$.L.str.5, %rdx
	movl	-44(%rbp), %eax         # 4-byte Reload
	movl	%eax, %ebx
	movl	%ebx, %edi
	movq	%rdi, -88(%rbp)         # 8-byte Spill
	movq	%rcx, %rdi
	movq	-88(%rbp), %r10         # 8-byte Reload
	movq	%rdx, -96(%rbp)         # 8-byte Spill
	movq	%r10, %rdx
	movq	-96(%rbp), %r11         # 8-byte Reload
	movq	%r11, (%rsp)
	callq	trace_logger_log_int
	movl	$19134, %eax            # imm = 0x4ABE
	movl	%eax, %edi
	movl	$1, %eax
	movl	%eax, %ecx
	movabsq	$.L.str.3, %r8
	xorl	%eax, %eax
	movl	%eax, %r9d
	movabsq	$.L.str.5, %rdx
	movl	-44(%rbp), %eax         # 4-byte Reload
	cmpl	$0, %eax
	setg	%r14b
.Ltmp2:
	.loc	1 11 2 is_stmt 0        # ss_sort.c:11:2
	movb	%r14b, %r15b
	andb	$1, %r15b
	movzbl	%r15b, %ebx
	movl	%ebx, %esi
	movq	%rsi, -104(%rbp)        # 8-byte Spill
	movq	%rcx, %rsi
	movq	-104(%rbp), %r10        # 8-byte Reload
	movq	%rdx, -112(%rbp)        # 8-byte Spill
	movq	%r10, %rdx
	movq	-112(%rbp), %r11        # 8-byte Reload
	movq	%r11, (%rsp)
	movb	%r14b, -113(%rbp)       # 1-byte Spill
	callq	trace_logger_log_int
	movl	$11, %eax
	movl	%eax, %edi
	movabsq	$.L.str.1, %rsi
	movabsq	$.L.str.2, %rdx
	movabsq	$.L.str.7, %rcx
	movl	$2, %eax
	movl	%eax, %r8d
	xorl	%r9d, %r9d
	movl	$1, %eax
	movl	$1, (%rsp)
	movl	%eax, -120(%rbp)        # 4-byte Spill
	callq	trace_logger_log0
	movl	$3, %eax
	movl	%eax, %edi
	xorl	%eax, %eax
	movl	%eax, %ecx
	movl	$1, %eax
	movl	%eax, %edx
	movabsq	$.L.str.8, %r8
	movabsq	$.L.str.5, %rsi
	movq	%rsi, -128(%rbp)        # 8-byte Spill
	movq	%rcx, %rsi
	movq	%rdx, -136(%rbp)        # 8-byte Spill
	movq	%rcx, %rdx
	movq	-136(%rbp), %r10        # 8-byte Reload
	movq	%rcx, -144(%rbp)        # 8-byte Spill
	movq	%r10, %rcx
	movq	-144(%rbp), %r9         # 8-byte Reload
	movq	-128(%rbp), %r11        # 8-byte Reload
	movq	%r11, (%rsp)
	callq	trace_logger_log_int
	movl	$2, %eax
	movl	%eax, %edi
	xorl	%eax, %eax
	movl	%eax, %ecx
	movl	$1, %eax
	movl	%eax, %edx
	movabsq	$.L.str.9, %r8
	movabsq	$.L.str.5, %rsi
	movq	%rsi, -152(%rbp)        # 8-byte Spill
	movq	%rcx, %rsi
	movq	%rdx, -160(%rbp)        # 8-byte Spill
	movq	%rcx, %rdx
	movq	-160(%rbp), %r9         # 8-byte Reload
	movq	%rcx, -168(%rbp)        # 8-byte Spill
	movq	%r9, %rcx
	movq	-168(%rbp), %r9         # 8-byte Reload
	movq	-152(%rbp), %r10        # 8-byte Reload
	movq	%r10, (%rsp)
	callq	trace_logger_log_int
	movl	$1, %eax
	movl	%eax, %ecx
	movabsq	$.L.str.3, %r8
	xorl	%eax, %eax
	movl	%eax, %r9d
	movabsq	$.L.str.5, %rdx
	movb	-113(%rbp), %r14b       # 1-byte Reload
	andb	$1, %r14b
	movzbl	%r14b, %eax
	movl	%eax, %esi
	movq	%rcx, %rdi
	movq	%rsi, -176(%rbp)        # 8-byte Spill
	movq	%rcx, %rsi
	movq	-176(%rbp), %r10        # 8-byte Reload
	movq	%rdx, -184(%rbp)        # 8-byte Spill
	movq	%r10, %rdx
	movq	-184(%rbp), %r11        # 8-byte Reload
	movq	%r11, (%rsp)
	callq	trace_logger_log_int
	movb	-113(%rbp), %r14b       # 1-byte Reload
	testb	$1, %r14b
	jne	.LBB0_1
	jmp	.LBB0_3
.LBB0_1:                                # %.lr.ph
	#DEBUG_VALUE: print:size <- [DW_OP_constu 44, DW_OP_minus] [%rbp+0]
	#DEBUG_VALUE: print:a <- [DW_OP_constu 40, DW_OP_minus] [%rbp+0]
	.loc	1 0 2                   # ss_sort.c:0:2
	movq	$-1, %rdi
	movabsq	$.L.str.1, %rsi
	movabsq	$.L.str.8, %rdx
	movabsq	$.L.str.10, %rcx
	movl	$37, %eax
	movl	%eax, %r8d
	xorl	%r9d, %r9d
	movl	$1, %eax
	movl	$1, (%rsp)
	movl	%eax, -188(%rbp)        # 4-byte Spill
	callq	trace_logger_log0
	movl	$1, %eax
	movl	%eax, %ecx
	movl	$32, %eax
	movl	%eax, %esi
	movabsq	$.L.str.6, %r8
	xorl	%eax, %eax
	movl	%eax, %r9d
	movabsq	$.L.str.5, %rdx
	movl	-44(%rbp), %eax         # 4-byte Reload
	movl	%eax, %r10d
	movl	%r10d, %edi
	movq	%rdi, -200(%rbp)        # 8-byte Spill
	movq	%rcx, %rdi
	movq	-200(%rbp), %r11        # 8-byte Reload
	movq	%rdx, -208(%rbp)        # 8-byte Spill
	movq	%r11, %rdx
	movq	-208(%rbp), %rbx        # 8-byte Reload
	movq	%rbx, (%rsp)
	callq	trace_logger_log_int
	movl	$19134, %eax            # imm = 0x4ABE
	movl	%eax, %edi
	movl	$64, %eax
	movl	%eax, %esi
	movl	$1, %eax
	movl	%eax, %ecx
	movabsq	$.L.str.10, %r8
	xorl	%eax, %eax
	movl	%eax, %r9d
	movabsq	$.L.str.5, %rdx
	movl	-44(%rbp), %eax         # 4-byte Reload
	movl	%eax, %r10d
	movl	%r10d, %r11d
	.loc	1 11 2                  # ss_sort.c:11:2
	movq	%rdx, -216(%rbp)        # 8-byte Spill
	movq	%r11, %rdx
	movq	-216(%rbp), %rbx        # 8-byte Reload
	movq	%rbx, (%rsp)
	movq	%r11, -224(%rbp)        # 8-byte Spill
	callq	trace_logger_log_int
	movl	$11, %eax
	movl	%eax, %edi
	movabsq	$.L.str.1, %rsi
	movabsq	$.L.str.8, %rdx
	movabsq	$.L.str.11, %rcx
	movl	$2, %eax
	movl	%eax, %r8d
	xorl	%r9d, %r9d
	movl	$1, %eax
	movl	$1, (%rsp)
	movl	%eax, -228(%rbp)        # 4-byte Spill
	callq	trace_logger_log0
	movl	$1, %eax
	movl	%eax, %ecx
	xorl	%eax, %eax
	movl	%eax, %edx
	movabsq	$.L.str.12, %r8
	movabsq	$.L.str.5, %rsi
	movq	%rcx, %rdi
	movq	%rsi, -240(%rbp)        # 8-byte Spill
	movq	%rdx, %rsi
	movq	%rdx, -248(%rbp)        # 8-byte Spill
	movq	-248(%rbp), %r9         # 8-byte Reload
	movq	-240(%rbp), %r11        # 8-byte Reload
	movq	%r11, (%rsp)
	callq	trace_logger_log_int
	xorl	%eax, %eax
	movl	%eax, %ecx
	movq	%rcx, -256(%rbp)        # 8-byte Spill
.Ltmp3:
.LBB0_2:                                # =>This Inner Loop Header: Depth=1
	#DEBUG_VALUE: print:size <- [DW_OP_constu 44, DW_OP_minus] [%rbp+0]
	#DEBUG_VALUE: print:a <- [DW_OP_constu 40, DW_OP_minus] [%rbp+0]
	.loc	1 0 2                   # ss_sort.c:0:2
	movq	-256(%rbp), %rax        # 8-byte Reload
	movq	$-1, %rdi
	movabsq	$.L.str.1, %rsi
	movabsq	$.L.str.12, %rdx
	movabsq	$.L.str.13, %rcx
	movl	$53, %r8d
                                        # kill: def %r8 killed %r8d
	xorl	%r9d, %r9d
	movl	$1, %r10d
	.loc	1 9 6 is_stmt 1         # ss_sort.c:9:6
	movl	$1, (%rsp)
	movq	%rax, -264(%rbp)        # 8-byte Spill
	movl	%r10d, -268(%rbp)       # 4-byte Spill
	callq	trace_logger_log0
	movl	$2, %r9d
	movl	%r9d, %edi
	movl	$64, %r9d
	movl	%r9d, %esi
	xorl	%r9d, %r9d
	movl	%r9d, %edx
	movl	$1, %r9d
	movl	%r9d, %eax
	movabsq	$.L.str.14, %r8
	movabsq	$.L.str.12, %rcx
	movq	%rcx, -280(%rbp)        # 8-byte Spill
	movq	%rax, %rcx
	movq	%rax, %r9
	movq	-280(%rbp), %rax        # 8-byte Reload
	movq	%rax, (%rsp)
	callq	trace_logger_log_int
	movl	$1, %r10d
	movl	%r10d, %eax
	movl	$64, %r10d
	movl	%r10d, %esi
	xorl	%r10d, %r10d
	movl	%r10d, %ecx
	movabsq	$.L.str.15, %r8
	movabsq	$.L.str.8, %rdx
	movq	%rax, %rdi
	movq	%rdx, -288(%rbp)        # 8-byte Spill
	movq	%rcx, %rdx
	movq	%rax, %r9
	movq	-288(%rbp), %rax        # 8-byte Reload
	movq	%rax, (%rsp)
	callq	trace_logger_log_int
	movl	$19134, %r10d           # imm = 0x4ABE
	movl	%r10d, %edi
	movl	$64, %r10d
	movl	%r10d, %esi
	movl	$1, %r10d
	movl	%r10d, %ecx
	movabsq	$.L.str.13, %r8
	xorl	%r10d, %r10d
	movl	%r10d, %r9d
	movabsq	$.L.str.8, %rax
	movq	-264(%rbp), %rdx        # 8-byte Reload
	movq	%rax, (%rsp)
	callq	trace_logger_log_int
	movl	$12, %r10d
	movl	%r10d, %edi
	movabsq	$.L.str.1, %rsi
	movabsq	$.L.str.12, %rdx
	movabsq	$.L.str.16, %rcx
	movl	$32, %r10d
	movl	%r10d, %r8d
	xorl	%r9d, %r9d
	movl	$1, %r10d
.Ltmp4:
	#DEBUG_VALUE: print:i <- [DW_OP_constu 264, DW_OP_minus] [%rbp+0]
	.loc	1 12 18                 # ss_sort.c:12:18
	movl	$1, (%rsp)
	movl	%r10d, -292(%rbp)       # 4-byte Spill
	callq	trace_logger_log0
	movl	$2, %r9d
	movl	%r9d, %edi
	movl	$64, %r9d
	movl	%r9d, %esi
	movl	$1, %r9d
	movl	%r9d, %ecx
	movabsq	$.L.str.13, %r8
	xorl	%r9d, %r9d
                                        # kill: def %r9 killed %r9d
	movabsq	$.L.str.5, %rax
	movq	-264(%rbp), %rdx        # 8-byte Reload
	movq	%rax, (%rsp)
	callq	trace_logger_log_int
	movl	$1, %r10d
	movl	%r10d, %eax
	movl	$64, %r10d
	movl	%r10d, %esi
	movabsq	$.L.str.17, %r8
	xorl	%r10d, %r10d
	movl	%r10d, %r9d
	movabsq	$.L.str.5, %rcx
	movq	%rax, %rdi
	movq	-40(%rbp), %rdx         # 8-byte Reload
	movq	%rcx, -304(%rbp)        # 8-byte Spill
	movq	%rax, %rcx
	movq	-304(%rbp), %rax        # 8-byte Reload
	movq	%rax, (%rsp)
	callq	trace_logger_log_ptr
	movl	$19134, %r10d           # imm = 0x4ABE
	movl	%r10d, %edi
	movl	$64, %r10d
	movl	%r10d, %esi
	movl	$1, %r10d
	movl	%r10d, %ecx
	movabsq	$.L.str.16, %r8
	xorl	%r10d, %r10d
	movl	%r10d, %r9d
	movabsq	$.L.str.5, %rax
	movq	-264(%rbp), %rdx        # 8-byte Reload
	shlq	$2, %rdx
	movq	-40(%rbp), %r11         # 8-byte Reload
	addq	%rdx, %r11
	movq	%r11, %rdx
	movq	%rax, (%rsp)
	movq	%r11, -312(%rbp)        # 8-byte Spill
	callq	trace_logger_log_ptr
	movl	$12, %r10d
	movl	%r10d, %edi
	movabsq	$.L.str.1, %rsi
	movabsq	$.L.str.12, %rdx
	movabsq	$.L.str.18, %rcx
	movl	$30, %r10d
	movl	%r10d, %r8d
	xorl	%r9d, %r9d
	movl	$1, %r10d
	movl	$1, (%rsp)
	movl	%r10d, -316(%rbp)       # 4-byte Spill
	callq	trace_logger_log0
	movl	$1, %r9d
	movl	%r9d, %eax
	movl	$64, %r9d
	movl	%r9d, %esi
	movabsq	$.L.str.16, %r8
	xorl	%r9d, %r9d
                                        # kill: def %r9 killed %r9d
	movabsq	$.L.str.5, %rcx
	movq	%rax, %rdi
	movq	-312(%rbp), %rdx        # 8-byte Reload
	movq	%rcx, -328(%rbp)        # 8-byte Spill
	movq	%rax, %rcx
	movq	-328(%rbp), %rax        # 8-byte Reload
	movq	%rax, (%rsp)
	callq	trace_logger_log_ptr
	movl	$19134, %r10d           # imm = 0x4ABE
	movl	%r10d, %edi
	movl	$32, %r10d
	movl	%r10d, %esi
	movl	$1, %r10d
	movl	%r10d, %ecx
	movabsq	$.L.str.18, %r8
	xorl	%r10d, %r10d
	movl	%r10d, %r9d
	movabsq	$.L.str.5, %rax
	movq	-40(%rbp), %rdx         # 8-byte Reload
	movq	-264(%rbp), %r11        # 8-byte Reload
	movl	(%rdx,%r11,4), %r10d
	.loc	1 12 3 is_stmt 0        # ss_sort.c:12:3
	movl	%r10d, %ebx
	movl	%ebx, %edx
	movq	%rax, (%rsp)
	movl	%r10d, -332(%rbp)       # 4-byte Spill
	callq	trace_logger_log_int
	movl	$12, %r10d
	movl	%r10d, %edi
	movabsq	$.L.str.1, %rsi
	movabsq	$.L.str.12, %rdx
	movabsq	$.L.str.19, %rcx
	movl	$54, %r10d
	movl	%r10d, %r8d
	xorl	%r9d, %r9d
	movl	$1, %r10d
	movl	$1, (%rsp)
	movl	%r10d, -336(%rbp)       # 4-byte Spill
	callq	trace_logger_log0
	movl	$3, %r9d
	movl	%r9d, %edi
	movl	$64, %r9d
	movl	%r9d, %esi
	movabsq	$printf, %rdx
	movl	$1, %r9d
	movl	%r9d, %ecx
	movabsq	$.L.str.20, %r8
	xorl	%r9d, %r9d
                                        # kill: def %r9 killed %r9d
	movabsq	$.L.str.5, %rax
	movq	%rax, (%rsp)
	callq	trace_logger_log_ptr
	movl	$1, %r10d
	movl	%r10d, %edi
	movl	$64, %r10d
	movl	%r10d, %esi
	movabsq	$.L.str.21, %rdx
	xorl	%r10d, %r10d
	movl	%r10d, %eax
	movabsq	$.L.str.15, %r8
	movabsq	$.L.str.5, %rcx
	movq	%rcx, -344(%rbp)        # 8-byte Spill
	movq	%rax, %rcx
	movq	%rax, %r9
	movq	-344(%rbp), %rax        # 8-byte Reload
	movq	%rax, (%rsp)
	callq	trace_logger_log_string
	movabsq	$.L.str, %rdi
	movl	-332(%rbp), %esi        # 4-byte Reload
	movb	$0, %al
	callq	printf
	movl	$19134, %esi            # imm = 0x4ABE
	movl	%esi, %edi
	movl	$32, %esi
                                        # kill: def %rsi killed %esi
	movl	$1, %r10d
	movl	%r10d, %ecx
	movabsq	$.L.str.19, %r8
	xorl	%r10d, %r10d
	movl	%r10d, %r9d
	movabsq	$.L.str.5, %rdx
	.loc	1 11 25 is_stmt 1       # ss_sort.c:11:25
	movl	%eax, %eax
	movl	%eax, %r11d
	movq	%rdx, -352(%rbp)        # 8-byte Spill
	movq	%r11, %rdx
	movq	-352(%rbp), %r11        # 8-byte Reload
	movq	%r11, (%rsp)
	callq	trace_logger_log_int
	movl	$11, %eax
	movl	%eax, %ecx
	movabsq	$.L.str.1, %rsi
	movabsq	$.L.str.12, %rdx
	movabsq	$.L.str.14, %rdi
	xorl	%r9d, %r9d
	movl	$1, %eax
	movq	%rdi, -360(%rbp)        # 8-byte Spill
	movq	%rcx, %rdi
	movq	-360(%rbp), %r8         # 8-byte Reload
	movq	%rcx, -368(%rbp)        # 8-byte Spill
	movq	%r8, %rcx
	movq	-368(%rbp), %r8         # 8-byte Reload
	movl	$1, (%rsp)
	movl	%eax, -372(%rbp)        # 4-byte Spill
	callq	trace_logger_log0
	movl	$2, %eax
	movl	%eax, %edi
	movl	$64, %eax
	movl	%eax, %esi
	movl	$1, %eax
	movl	%eax, %edx
	xorl	%eax, %eax
	movl	%eax, %ecx
	movabsq	$.L.str.15, %r8
	movabsq	$.L.str.5, %r11
	movq	%rcx, -384(%rbp)        # 8-byte Spill
	movq	-384(%rbp), %r9         # 8-byte Reload
	movq	%r11, (%rsp)
	callq	trace_logger_log_int
	movl	$1, %eax
	movl	%eax, %ecx
	movl	$64, %eax
	movl	%eax, %esi
	movabsq	$.L.str.13, %r8
	xorl	%eax, %eax
	movl	%eax, %r9d
	movabsq	$.L.str.5, %rdx
	movq	%rcx, %rdi
	movq	-264(%rbp), %r11        # 8-byte Reload
	movq	%rdx, -392(%rbp)        # 8-byte Spill
	movq	%r11, %rdx
	movq	-392(%rbp), %r14        # 8-byte Reload
	movq	%r14, (%rsp)
	callq	trace_logger_log_int
	movl	$19134, %eax            # imm = 0x4ABE
	movl	%eax, %edi
	movl	$64, %eax
	movl	%eax, %esi
	movl	$1, %eax
	movl	%eax, %ecx
	movabsq	$.L.str.14, %r8
	xorl	%eax, %eax
	movl	%eax, %r9d
	movabsq	$.L.str.5, %rdx
	movq	-264(%rbp), %r11        # 8-byte Reload
	addq	$1, %r11
	.loc	1 11 16 is_stmt 0       # ss_sort.c:11:16
	movq	%rdx, -400(%rbp)        # 8-byte Spill
	movq	%r11, %rdx
	movq	-400(%rbp), %r14        # 8-byte Reload
	movq	%r14, (%rsp)
	movq	%r11, -408(%rbp)        # 8-byte Spill
	callq	trace_logger_log_int
	movl	$11, %eax
	movl	%eax, %edi
	movabsq	$.L.str.1, %rsi
	movabsq	$.L.str.12, %rdx
	movabsq	$.L.str.22, %rcx
	movl	$51, %eax
	movl	%eax, %r8d
	xorl	%r9d, %r9d
	movl	$1, %eax
	movl	$1, (%rsp)
	movl	%eax, -412(%rbp)        # 4-byte Spill
	callq	trace_logger_log0
	movl	$2, %eax
	movl	%eax, %edi
	movl	$64, %eax
	movl	%eax, %esi
	movl	$1, %eax
	movl	%eax, %ecx
	movabsq	$.L.str.10, %r8
	xorl	%eax, %eax
	movl	%eax, %r9d
	movabsq	$.L.str.5, %rdx
	movq	-224(%rbp), %r11        # 8-byte Reload
	movq	%rdx, -424(%rbp)        # 8-byte Spill
	movq	%r11, %rdx
	movq	-424(%rbp), %r14        # 8-byte Reload
	movq	%r14, (%rsp)
	callq	trace_logger_log_int
	movl	$1, %eax
	movl	%eax, %ecx
	movl	$64, %eax
	movl	%eax, %esi
	movabsq	$.L.str.14, %r8
	xorl	%eax, %eax
	movl	%eax, %r9d
	movabsq	$.L.str.5, %rdx
	movq	%rcx, %rdi
	movq	-408(%rbp), %r11        # 8-byte Reload
	movq	%rdx, -432(%rbp)        # 8-byte Spill
	movq	%r11, %rdx
	movq	-432(%rbp), %r14        # 8-byte Reload
	movq	%r14, (%rsp)
	callq	trace_logger_log_int
	movl	$19134, %eax            # imm = 0x4ABE
	movl	%eax, %edi
	movl	$1, %eax
	movl	%eax, %ecx
	movabsq	$.L.str.22, %r8
	xorl	%eax, %eax
	movl	%eax, %r9d
	movabsq	$.L.str.5, %rdx
	movq	-408(%rbp), %rsi        # 8-byte Reload
	movq	-224(%rbp), %r11        # 8-byte Reload
	cmpq	%r11, %rsi
	sete	%r15b
.Ltmp5:
	.loc	1 11 2                  # ss_sort.c:11:2
	movb	%r15b, %r12b
	andb	$1, %r12b
	movzbl	%r12b, %eax
	movl	%eax, %r14d
	movq	%rcx, %rsi
	movq	%rdx, -440(%rbp)        # 8-byte Spill
	movq	%r14, %rdx
	movq	-440(%rbp), %r14        # 8-byte Reload
	movq	%r14, (%rsp)
	movb	%r15b, -441(%rbp)       # 1-byte Spill
	callq	trace_logger_log_int
	movl	$11, %eax
	movl	%eax, %edi
	movabsq	$.L.str.1, %rsi
	movabsq	$.L.str.12, %rdx
	movabsq	$.L.str.23, %rcx
	movl	$2, %eax
	movl	%eax, %r8d
	xorl	%r9d, %r9d
	movl	$1, %eax
	movl	$1, (%rsp)
	movl	%eax, -448(%rbp)        # 4-byte Spill
	callq	trace_logger_log0
	movl	$3, %eax
	movl	%eax, %edi
	xorl	%eax, %eax
	movl	%eax, %ecx
	movl	$1, %eax
	movl	%eax, %edx
	movabsq	$.L.str.9, %r8
	movabsq	$.L.str.5, %rsi
	movq	%rsi, -456(%rbp)        # 8-byte Spill
	movq	%rcx, %rsi
	movq	%rdx, -464(%rbp)        # 8-byte Spill
	movq	%rcx, %rdx
	movq	-464(%rbp), %r11        # 8-byte Reload
	movq	%rcx, -472(%rbp)        # 8-byte Spill
	movq	%r11, %rcx
	movq	-472(%rbp), %r9         # 8-byte Reload
	movq	-456(%rbp), %r14        # 8-byte Reload
	movq	%r14, (%rsp)
	callq	trace_logger_log_int
	movl	$2, %eax
	movl	%eax, %edi
	xorl	%eax, %eax
	movl	%eax, %ecx
	movl	$1, %eax
	movl	%eax, %edx
	movabsq	$.L.str.12, %r8
	movabsq	$.L.str.5, %rsi
	movq	%rsi, -480(%rbp)        # 8-byte Spill
	movq	%rcx, %rsi
	movq	%rdx, -488(%rbp)        # 8-byte Spill
	movq	%rcx, %rdx
	movq	-488(%rbp), %r9         # 8-byte Reload
	movq	%rcx, -496(%rbp)        # 8-byte Spill
	movq	%r9, %rcx
	movq	-496(%rbp), %r9         # 8-byte Reload
	movq	-480(%rbp), %r11        # 8-byte Reload
	movq	%r11, (%rsp)
	callq	trace_logger_log_int
	movl	$1, %eax
	movl	%eax, %ecx
	movabsq	$.L.str.22, %r8
	xorl	%eax, %eax
	movl	%eax, %r9d
	movabsq	$.L.str.5, %rdx
	movb	-441(%rbp), %r15b       # 1-byte Reload
	andb	$1, %r15b
	movzbl	%r15b, %eax
	movl	%eax, %esi
	movq	%rcx, %rdi
	movq	%rsi, -504(%rbp)        # 8-byte Spill
	movq	%rcx, %rsi
	movq	-504(%rbp), %r11        # 8-byte Reload
	movq	%rdx, -512(%rbp)        # 8-byte Spill
	movq	%r11, %rdx
	movq	-512(%rbp), %r14        # 8-byte Reload
	movq	%r14, (%rsp)
	callq	trace_logger_log_int
	movb	-441(%rbp), %r15b       # 1-byte Reload
	testb	$1, %r15b
	movq	-408(%rbp), %rcx        # 8-byte Reload
	movq	%rcx, -256(%rbp)        # 8-byte Spill
	jne	.LBB0_3
	jmp	.LBB0_2
.Ltmp6:
.LBB0_3:                                # %._crit_edge
	#DEBUG_VALUE: print:size <- [DW_OP_constu 44, DW_OP_minus] [%rbp+0]
	#DEBUG_VALUE: print:a <- [DW_OP_constu 40, DW_OP_minus] [%rbp+0]
	.loc	1 0 2                   # ss_sort.c:0:2
	movl	$13, %eax
	movl	%eax, %edi
	movabsq	$.L.str.1, %rsi
	movabsq	$.L.str.9, %rdx
	movabsq	$.L.str.24, %rcx
	movl	$1, %eax
	movl	%eax, %r8d
	xorl	%r9d, %r9d
	movl	$1, %eax
	.loc	1 13 1 is_stmt 1        # ss_sort.c:13:1
	movl	$1, (%rsp)
	movl	%eax, -516(%rbp)        # 4-byte Spill
	callq	trace_logger_log0
	movabsq	$.L.str.1, %rdi
	movl	$1, %eax
	movl	%eax, %esi
	xorl	%edx, %edx
	movl	$1, %ecx
	callq	trace_logger_update_status
	addq	$496, %rsp              # imm = 0x1F0
	popq	%rbx
	popq	%r12
	popq	%r14
	popq	%r15
	popq	%rbp
	retq
.Ltmp7:
.Lfunc_end0:
	.size	print, .Lfunc_end0-print
	.cfi_endproc
                                        # -- End function
	.globl	local_scan              # -- Begin function local_scan
	.p2align	4, 0x90
	.type	local_scan,@function
local_scan:                             # @local_scan
.Lfunc_begin1:
	.loc	1 18 0                  # ss_sort.c:18:0
	.cfi_startproc
# %bb.0:
	pushq	%rbp
	.cfi_def_cfa_offset 16
	.cfi_offset %rbp, -16
	movq	%rsp, %rbp
	.cfi_def_cfa_register %rbp
	pushq	%r15
	pushq	%r14
	pushq	%r12
	pushq	%rbx
	subq	$640, %rsp              # imm = 0x280
	.cfi_offset %rbx, -48
	.cfi_offset %r12, -40
	.cfi_offset %r14, -32
	.cfi_offset %r15, -24
	movl	$24601, %eax            # imm = 0x6019
	movl	%eax, %ecx
	movl	$64, %eax
	movl	%eax, %esi
	movl	$1, %eax
	movl	%eax, %edx
	movabsq	$.L.str.31, %r8
	xorl	%eax, %eax
	movl	%eax, %r9d
	movabsq	$.L.str.5, %r10
.Ltmp8:
	.loc	1 17 21 prologue_end    # ss_sort.c:17:21
	movq	%rdi, -40(%rbp)         # 8-byte Spill
	movq	%rcx, %rdi
	movq	-40(%rbp), %rcx         # 8-byte Reload
	movq	%rdx, -48(%rbp)         # 8-byte Spill
	movq	%rcx, %rdx
	movq	-48(%rbp), %rcx         # 8-byte Reload
	movq	%r10, (%rsp)
	callq	trace_logger_log_ptr
	movl	$21, %eax
	movl	%eax, %edi
	movabsq	$.L.str.25, %rsi
	movabsq	$.L.str.2, %rdx
	movabsq	$.L.str.26, %rcx
	movl	$2, %eax
	movl	%eax, %r8d
	xorl	%r9d, %r9d
	movl	$1, %eax
	#DEBUG_VALUE: local_scan:bucket <- [DW_OP_constu 40, DW_OP_minus] [%rbp+0]
.Ltmp9:
	#DEBUG_VALUE: local_scan:radixID <- 0
	.loc	1 21 15                 # ss_sort.c:21:15
	movl	$1, (%rsp)
	movl	%eax, -52(%rbp)         # 4-byte Spill
	callq	trace_logger_log0
	movl	$1, %eax
	movl	%eax, %ecx
	xorl	%eax, %eax
	movl	%eax, %edx
	movabsq	$.L.str.12, %r8
	movabsq	$.L.str.5, %rsi
	movq	%rcx, %rdi
	movq	%rsi, -64(%rbp)         # 8-byte Spill
	movq	%rdx, %rsi
	movq	%rdx, -72(%rbp)         # 8-byte Spill
	movq	-72(%rbp), %r9          # 8-byte Reload
	movq	-64(%rbp), %r10         # 8-byte Reload
	movq	%r10, (%rsp)
	callq	trace_logger_log_int
	xorl	%eax, %eax
	movl	%eax, %ecx
	movq	%rcx, -80(%rbp)         # 8-byte Spill
.Ltmp10:
.LBB1_1:                                # =>This Loop Header: Depth=1
                                        #     Child Loop BB1_2 Depth 2
	#DEBUG_VALUE: local_scan:bucket <- [DW_OP_constu 40, DW_OP_minus] [%rbp+0]
	.loc	1 0 15 is_stmt 0        # ss_sort.c:0:15
	movq	-80(%rbp), %rax         # 8-byte Reload
	movq	$-1, %rdi
	movabsq	$.L.str.25, %rsi
	movabsq	$.L.str.12, %rdx
	movabsq	$.L.str.27, %rcx
	movl	$53, %r8d
                                        # kill: def %r8 killed %r8d
	xorl	%r9d, %r9d
	movl	$1, %r10d
	.loc	1 19 16 is_stmt 1       # ss_sort.c:19:16
	movl	$1, (%rsp)
	movq	%rax, -88(%rbp)         # 8-byte Spill
	movl	%r10d, -92(%rbp)        # 4-byte Spill
	callq	trace_logger_log0
	movl	$2, %r9d
	movl	%r9d, %edi
	movl	$64, %r9d
	movl	%r9d, %esi
	xorl	%r9d, %r9d
	movl	%r9d, %edx
	movl	$1, %r9d
	movl	%r9d, %eax
	movabsq	$.L.str.28, %r8
	movabsq	$.L.str.29, %rcx
	movq	%rcx, -104(%rbp)        # 8-byte Spill
	movq	%rax, %rcx
	movq	%rax, %r9
	movq	-104(%rbp), %rax        # 8-byte Reload
	movq	%rax, (%rsp)
	callq	trace_logger_log_int
	movl	$1, %r10d
	movl	%r10d, %eax
	movl	$64, %r10d
	movl	%r10d, %esi
	xorl	%r10d, %r10d
	movl	%r10d, %ecx
	movabsq	$.L.str.15, %r8
	movabsq	$.L.str.2, %rdx
	movq	%rax, %rdi
	movq	%rdx, -112(%rbp)        # 8-byte Spill
	movq	%rcx, %rdx
	movq	%rax, %r9
	movq	-112(%rbp), %rax        # 8-byte Reload
	movq	%rax, (%rsp)
	callq	trace_logger_log_int
	movl	$19134, %r10d           # imm = 0x4ABE
	movl	%r10d, %edi
	movl	$64, %r10d
	movl	%r10d, %esi
	movl	$1, %r10d
	movl	%r10d, %ecx
	movabsq	$.L.str.27, %r8
	xorl	%r10d, %r10d
	movl	%r10d, %r9d
	movabsq	$.L.str.2, %rax
	movq	-88(%rbp), %rdx         # 8-byte Reload
	movq	%rax, (%rsp)
	callq	trace_logger_log_int
	movq	$-1, %rdi
	movabsq	$.L.str.25, %rsi
	movabsq	$.L.str.12, %rdx
	movabsq	$.L.str.18, %rcx
	movl	$23, %r10d
	movl	%r10d, %r8d
	xorl	%r9d, %r9d
	movl	$1, %r10d
.Ltmp11:
	#DEBUG_VALUE: local_scan:i <- 1
	#DEBUG_VALUE: local_scan:radixID <- [DW_OP_constu 88, DW_OP_minus] [%rbp+0]
	.loc	1 0 16 is_stmt 0        # ss_sort.c:0:16
	movl	$1, (%rsp)
	movl	%r10d, -116(%rbp)       # 4-byte Spill
	callq	trace_logger_log0
	movl	$2, %r9d
	movl	%r9d, %edi
	movl	$64, %r9d
	movl	%r9d, %esi
	movl	$4, %r9d
	movl	%r9d, %edx
	xorl	%r9d, %r9d
	movl	%r9d, %eax
	movabsq	$.L.str.15, %r8
	movabsq	$.L.str.5, %rcx
	movq	%rcx, -128(%rbp)        # 8-byte Spill
	movq	%rax, %rcx
	movq	%rax, %r9
	movq	-128(%rbp), %rax        # 8-byte Reload
	movq	%rax, (%rsp)
	callq	trace_logger_log_int
	movl	$1, %r10d
	movl	%r10d, %eax
	movl	$64, %r10d
	movl	%r10d, %esi
	movabsq	$.L.str.27, %r8
	xorl	%r10d, %r10d
	movl	%r10d, %r9d
	movabsq	$.L.str.5, %rcx
	movq	%rax, %rdi
	movq	-88(%rbp), %rdx         # 8-byte Reload
	movq	%rcx, -136(%rbp)        # 8-byte Spill
	movq	%rax, %rcx
	movq	-136(%rbp), %rax        # 8-byte Reload
	movq	%rax, (%rsp)
	callq	trace_logger_log_int
	movl	$19134, %r10d           # imm = 0x4ABE
	movl	%r10d, %edi
	movl	$64, %r10d
	movl	%r10d, %esi
	movl	$1, %r10d
	movl	%r10d, %ecx
	movabsq	$.L.str.18, %r8
	xorl	%r10d, %r10d
	movl	%r10d, %r9d
	movabsq	$.L.str.5, %rax
	movq	-88(%rbp), %rdx         # 8-byte Reload
	shlq	$4, %rdx
	movq	%rdx, -144(%rbp)        # 8-byte Spill
	movq	%rax, (%rsp)
	callq	trace_logger_log_int
	movq	$-1, %rdi
	movabsq	$.L.str.25, %rsi
	movabsq	$.L.str.12, %rdx
	movabsq	$.L.str.30, %rcx
	movl	$32, %r10d
	movl	%r10d, %r8d
	xorl	%r9d, %r9d
	movl	$1, %r10d
	movl	$1, (%rsp)
	movl	%r10d, -148(%rbp)       # 4-byte Spill
	callq	trace_logger_log0
	movl	$2, %r9d
	movl	%r9d, %edi
	movl	$64, %r9d
	movl	%r9d, %esi
	movl	$1, %r9d
	movl	%r9d, %ecx
	movabsq	$.L.str.18, %r8
	xorl	%r9d, %r9d
                                        # kill: def %r9 killed %r9d
	movabsq	$.L.str.5, %rax
	movq	-144(%rbp), %rdx        # 8-byte Reload
	movq	%rax, (%rsp)
	callq	trace_logger_log_int
	movl	$1, %r10d
	movl	%r10d, %eax
	movl	$64, %r10d
	movl	%r10d, %esi
	movabsq	$.L.str.31, %r8
	xorl	%r10d, %r10d
	movl	%r10d, %r9d
	movabsq	$.L.str.5, %rcx
	movq	%rax, %rdi
	movq	-40(%rbp), %rdx         # 8-byte Reload
	movq	%rcx, -160(%rbp)        # 8-byte Spill
	movq	%rax, %rcx
	movq	-160(%rbp), %rax        # 8-byte Reload
	movq	%rax, (%rsp)
	callq	trace_logger_log_ptr
	movl	$19134, %r10d           # imm = 0x4ABE
	movl	%r10d, %edi
	movl	$64, %r10d
	movl	%r10d, %esi
	movl	$1, %r10d
	movl	%r10d, %ecx
	movabsq	$.L.str.30, %r8
	xorl	%r10d, %r10d
	movl	%r10d, %r9d
	movabsq	$.L.str.5, %rax
	movq	-144(%rbp), %rdx        # 8-byte Reload
	shlq	$2, %rdx
	movq	-40(%rbp), %r11         # 8-byte Reload
	addq	%rdx, %r11
	movq	%r11, %rdx
	movq	%rax, (%rsp)
	movq	%r11, -168(%rbp)        # 8-byte Spill
	callq	trace_logger_log_ptr
	movq	$-1, %rdi
	movabsq	$.L.str.25, %rsi
	movabsq	$.L.str.12, %rdx
	movabsq	$.L.str.32, %rcx
	movl	$23, %r10d
	movl	%r10d, %r8d
	xorl	%r9d, %r9d
	movl	$1, %r10d
	movl	$1, (%rsp)
	movl	%r10d, -172(%rbp)       # 4-byte Spill
	callq	trace_logger_log0
	movl	$2, %r9d
	movl	%r9d, %edi
	movl	$64, %r9d
	movl	%r9d, %esi
	movl	$4, %r9d
	movl	%r9d, %edx
	xorl	%r9d, %r9d
	movl	%r9d, %eax
	movabsq	$.L.str.15, %r8
	movabsq	$.L.str.5, %rcx
	movq	%rcx, -184(%rbp)        # 8-byte Spill
	movq	%rax, %rcx
	movq	%rax, %r9
	movq	-184(%rbp), %rax        # 8-byte Reload
	movq	%rax, (%rsp)
	callq	trace_logger_log_int
	movl	$1, %r10d
	movl	%r10d, %eax
	movl	$64, %r10d
	movl	%r10d, %esi
	movabsq	$.L.str.27, %r8
	xorl	%r10d, %r10d
	movl	%r10d, %r9d
	movabsq	$.L.str.5, %rcx
	movq	%rax, %rdi
	movq	-88(%rbp), %rdx         # 8-byte Reload
	movq	%rcx, -192(%rbp)        # 8-byte Spill
	movq	%rax, %rcx
	movq	-192(%rbp), %rax        # 8-byte Reload
	movq	%rax, (%rsp)
	callq	trace_logger_log_int
	movl	$19134, %r10d           # imm = 0x4ABE
	movl	%r10d, %edi
	movl	$64, %r10d
	movl	%r10d, %esi
	movl	$1, %r10d
	movl	%r10d, %ecx
	movabsq	$.L.str.32, %r8
	xorl	%r10d, %r10d
	movl	%r10d, %r9d
	movabsq	$.L.str.5, %rax
	movq	-88(%rbp), %rdx         # 8-byte Reload
	shlq	$4, %rdx
	movq	%rdx, -200(%rbp)        # 8-byte Spill
	movq	%rax, (%rsp)
	callq	trace_logger_log_int
	movq	$-1, %rdi
	movabsq	$.L.str.25, %rsi
	movabsq	$.L.str.12, %rdx
	movabsq	$.L.str.33, %rcx
	movl	$30, %r10d
	movl	%r10d, %r8d
	xorl	%r9d, %r9d
	movl	$1, %r10d
	movl	$1, (%rsp)
	movl	%r10d, -204(%rbp)       # 4-byte Spill
	callq	trace_logger_log0
	movl	$1, %r9d
	movl	%r9d, %eax
	movl	$64, %r9d
	movl	%r9d, %esi
	movabsq	$.L.str.30, %r8
	xorl	%r9d, %r9d
                                        # kill: def %r9 killed %r9d
	movabsq	$.L.str.5, %rcx
	movq	%rax, %rdi
	movq	-168(%rbp), %rdx        # 8-byte Reload
	movq	%rcx, -216(%rbp)        # 8-byte Spill
	movq	%rax, %rcx
	movq	-216(%rbp), %rax        # 8-byte Reload
	movq	%rax, (%rsp)
	callq	trace_logger_log_ptr
	movl	$19134, %r10d           # imm = 0x4ABE
	movl	%r10d, %edi
	movl	$32, %r10d
	movl	%r10d, %esi
	movl	$1, %r10d
	movl	%r10d, %ecx
	movabsq	$.L.str.33, %r8
	xorl	%r10d, %r10d
	movl	%r10d, %r9d
	movabsq	$.L.str.5, %rax
	movq	-40(%rbp), %rdx         # 8-byte Reload
	movq	-144(%rbp), %r11        # 8-byte Reload
	movl	(%rdx,%r11,4), %r10d
.Ltmp12:
	.loc	1 23 17 is_stmt 1       # ss_sort.c:23:17
	movl	%r10d, %ebx
	movl	%ebx, %edx
	movq	%rax, (%rsp)
	movl	%r10d, -220(%rbp)       # 4-byte Spill
	callq	trace_logger_log_int
	movl	$23, %r10d
	movl	%r10d, %edi
	movabsq	$.L.str.25, %rsi
	movabsq	$.L.str.12, %rdx
	movabsq	$.L.str.34, %rcx
	movl	$2, %r10d
	movl	%r10d, %r8d
	xorl	%r9d, %r9d
	movl	$1, %r10d
	movl	$1, (%rsp)
	movl	%r10d, -224(%rbp)       # 4-byte Spill
	callq	trace_logger_log0
	movl	$1, %r9d
	movl	%r9d, %eax
	xorl	%r9d, %r9d
	movl	%r9d, %ecx
	movabsq	$.L.str.35, %r8
	movabsq	$.L.str.5, %rdx
	movq	%rax, %rdi
	movq	%rcx, %rsi
	movq	%rdx, -232(%rbp)        # 8-byte Spill
	movq	%rcx, %rdx
	movq	%rcx, -240(%rbp)        # 8-byte Spill
	movq	%rax, %rcx
	movq	-240(%rbp), %r9         # 8-byte Reload
	movq	-232(%rbp), %rax        # 8-byte Reload
	movq	%rax, (%rsp)
	callq	trace_logger_log_int
	movl	$1, %r10d
	movl	%r10d, %eax
	movl	-220(%rbp), %r10d       # 4-byte Reload
	movl	%r10d, -244(%rbp)       # 4-byte Spill
	movq	%rax, -256(%rbp)        # 8-byte Spill
.Ltmp13:
.LBB1_2:                                #   Parent Loop BB1_1 Depth=1
                                        # =>  This Inner Loop Header: Depth=2
	#DEBUG_VALUE: local_scan:radixID <- [DW_OP_constu 88, DW_OP_minus] [%rbp+0]
	#DEBUG_VALUE: local_scan:bucket <- [DW_OP_constu 40, DW_OP_minus] [%rbp+0]
	.loc	1 0 17 is_stmt 0        # ss_sort.c:0:17
	movq	-256(%rbp), %rax        # 8-byte Reload
	movl	-244(%rbp), %ecx        # 4-byte Reload
	movq	$-1, %rdi
	movabsq	$.L.str.25, %rsi
	movabsq	$.L.str.35, %rdx
	movabsq	$.L.str.36, %r8
	movl	$53, %r9d
	movl	%r9d, %r10d
	xorl	%r9d, %r9d
	movl	$1, %r11d
	.loc	1 19 16 is_stmt 1       # ss_sort.c:19:16
	movl	%ecx, -260(%rbp)        # 4-byte Spill
	movq	%r8, %rcx
	movq	%r10, %r8
	movl	$1, (%rsp)
	movq	%rax, -272(%rbp)        # 8-byte Spill
	movl	%r11d, -276(%rbp)       # 4-byte Spill
	callq	trace_logger_log0
	movl	$2, %r9d
	movl	%r9d, %edi
	movl	$32, %r9d
	movl	%r9d, %esi
	xorl	%r9d, %r9d
	movl	%r9d, %edx
	movl	$1, %r9d
	movl	%r9d, %eax
	movabsq	$.L.str.37, %r8
	movabsq	$.L.str.35, %rcx
	movq	%rcx, -288(%rbp)        # 8-byte Spill
	movq	%rax, %rcx
	movq	%rax, %r9
	movq	-288(%rbp), %rax        # 8-byte Reload
	movq	%rax, (%rsp)
	callq	trace_logger_log_int
	movl	$1, %r11d
	movl	%r11d, %eax
	movl	$32, %r11d
	movl	%r11d, %esi
	xorl	%r11d, %r11d
	movl	%r11d, %edx
	movabsq	$.L.str.33, %r8
	movabsq	$.L.str.12, %rcx
	movq	%rax, %rdi
	movq	%rcx, -296(%rbp)        # 8-byte Spill
	movq	%rax, %rcx
	movq	%rax, %r9
	movq	-296(%rbp), %rax        # 8-byte Reload
	movq	%rax, (%rsp)
	callq	trace_logger_log_int
	movl	$19134, %r11d           # imm = 0x4ABE
	movl	%r11d, %edi
	movl	$32, %r11d
	movl	%r11d, %esi
	movl	$1, %r11d
	movl	%r11d, %ecx
	movabsq	$.L.str.36, %r8
	xorl	%r11d, %r11d
	movl	%r11d, %r9d
	movabsq	$.L.str.12, %rax
	movl	-260(%rbp), %r11d       # 4-byte Reload
	movl	%r11d, %ebx
	movl	%ebx, %edx
	movq	%rax, (%rsp)
	callq	trace_logger_log_int
	movq	$-1, %rdi
	movabsq	$.L.str.25, %rsi
	movabsq	$.L.str.35, %rdx
	movabsq	$.L.str.13, %rcx
	movl	$53, %r11d
	movl	%r11d, %r8d
	xorl	%r9d, %r9d
	movl	$1, %r11d
	movl	$1, (%rsp)
	movl	%r11d, -300(%rbp)       # 4-byte Spill
	callq	trace_logger_log0
	movl	$2, %r9d
	movl	%r9d, %edi
	movl	$64, %r9d
	movl	%r9d, %esi
	xorl	%r9d, %r9d
	movl	%r9d, %edx
	movl	$1, %r9d
	movl	%r9d, %eax
	movabsq	$.L.str.14, %r8
	movabsq	$.L.str.35, %rcx
	movq	%rcx, -312(%rbp)        # 8-byte Spill
	movq	%rax, %rcx
	movq	%rax, %r9
	movq	-312(%rbp), %rax        # 8-byte Reload
	movq	%rax, (%rsp)
	callq	trace_logger_log_int
	movl	$1, %r11d
	movl	%r11d, %eax
	movl	$64, %r11d
	movl	%r11d, %esi
	xorl	%r11d, %r11d
	movl	%r11d, %ecx
	movabsq	$.L.str.15, %r8
	movabsq	$.L.str.12, %rdx
	movq	%rax, %rdi
	movq	%rdx, -320(%rbp)        # 8-byte Spill
	movq	%rax, %rdx
	movq	%rax, %r9
	movq	-320(%rbp), %rax        # 8-byte Reload
	movq	%rax, (%rsp)
	callq	trace_logger_log_int
	movl	$19134, %r11d           # imm = 0x4ABE
	movl	%r11d, %edi
	movl	$64, %r11d
	movl	%r11d, %esi
	movl	$1, %r11d
	movl	%r11d, %ecx
	movabsq	$.L.str.13, %r8
	xorl	%r11d, %r11d
	movl	%r11d, %r9d
	movabsq	$.L.str.12, %rax
	movq	-272(%rbp), %rdx        # 8-byte Reload
	movq	%rax, (%rsp)
	callq	trace_logger_log_int
	movl	$25, %r11d
	movl	%r11d, %edi
	movabsq	$.L.str.25, %rsi
	movabsq	$.L.str.35, %rdx
	movabsq	$.L.str.38, %rcx
	movl	$11, %r11d
	movl	%r11d, %r8d
	xorl	%r9d, %r9d
	movl	$1, %r11d
.Ltmp14:
	#DEBUG_VALUE: local_scan:i <- [DW_OP_constu 272, DW_OP_minus] [%rbp+0]
	.loc	1 25 71                 # ss_sort.c:25:71
	movl	$1, (%rsp)
	movl	%r11d, -324(%rbp)       # 4-byte Spill
	callq	trace_logger_log0
	movl	$2, %r9d
	movl	%r9d, %edi
	movl	$64, %r9d
	movl	%r9d, %esi
	movl	$1, %r9d
	movl	%r9d, %ecx
	movabsq	$.L.str.32, %r8
	xorl	%r9d, %r9d
                                        # kill: def %r9 killed %r9d
	movabsq	$.L.str.5, %rax
	movq	-200(%rbp), %rdx        # 8-byte Reload
	movq	%rax, (%rsp)
	callq	trace_logger_log_int
	movl	$1, %r11d
	movl	%r11d, %eax
	movl	$64, %r11d
	movl	%r11d, %esi
	movabsq	$.L.str.13, %r8
	xorl	%r11d, %r11d
	movl	%r11d, %r9d
	movabsq	$.L.str.5, %rcx
	movq	%rax, %rdi
	movq	-272(%rbp), %rdx        # 8-byte Reload
	movq	%rcx, -336(%rbp)        # 8-byte Spill
	movq	%rax, %rcx
	movq	-336(%rbp), %rax        # 8-byte Reload
	movq	%rax, (%rsp)
	callq	trace_logger_log_int
	movl	$19134, %r11d           # imm = 0x4ABE
	movl	%r11d, %edi
	movl	$64, %r11d
	movl	%r11d, %esi
	movl	$1, %r11d
	movl	%r11d, %ecx
	movabsq	$.L.str.38, %r8
	xorl	%r11d, %r11d
	movl	%r11d, %r9d
	movabsq	$.L.str.5, %rax
	movq	-272(%rbp), %rdx        # 8-byte Reload
	movq	-200(%rbp), %r10        # 8-byte Reload
	addq	%r10, %rdx
	.loc	1 25 7 is_stmt 0        # ss_sort.c:25:7
	movq	%rdx, -344(%rbp)        # 8-byte Spill
	movq	%rax, (%rsp)
	callq	trace_logger_log_int
	movl	$25, %r11d
	movl	%r11d, %edi
	movabsq	$.L.str.25, %rsi
	movabsq	$.L.str.35, %rdx
	movabsq	$.L.str.39, %rcx
	movl	$32, %r11d
	movl	%r11d, %r8d
	xorl	%r9d, %r9d
	movl	$1, %r11d
	movl	$1, (%rsp)
	movl	%r11d, -348(%rbp)       # 4-byte Spill
	callq	trace_logger_log0
	movl	$2, %r9d
	movl	%r9d, %edi
	movl	$64, %r9d
	movl	%r9d, %esi
	movl	$1, %r9d
	movl	%r9d, %ecx
	movabsq	$.L.str.38, %r8
	xorl	%r9d, %r9d
                                        # kill: def %r9 killed %r9d
	movabsq	$.L.str.5, %rax
	movq	-344(%rbp), %rdx        # 8-byte Reload
	movq	%rax, (%rsp)
	callq	trace_logger_log_int
	movl	$1, %r11d
	movl	%r11d, %eax
	movl	$64, %r11d
	movl	%r11d, %esi
	movabsq	$.L.str.31, %r8
	xorl	%r11d, %r11d
	movl	%r11d, %r9d
	movabsq	$.L.str.5, %rcx
	movq	%rax, %rdi
	movq	-40(%rbp), %rdx         # 8-byte Reload
	movq	%rcx, -360(%rbp)        # 8-byte Spill
	movq	%rax, %rcx
	movq	-360(%rbp), %rax        # 8-byte Reload
	movq	%rax, (%rsp)
	callq	trace_logger_log_ptr
	movl	$19134, %r11d           # imm = 0x4ABE
	movl	%r11d, %edi
	movl	$64, %r11d
	movl	%r11d, %esi
	movl	$1, %r11d
	movl	%r11d, %ecx
	movabsq	$.L.str.39, %r8
	xorl	%r11d, %r11d
	movl	%r11d, %r9d
	movabsq	$.L.str.5, %rax
	movq	-344(%rbp), %rdx        # 8-byte Reload
	shlq	$2, %rdx
	movq	-40(%rbp), %r10         # 8-byte Reload
	addq	%rdx, %r10
	.loc	1 25 40                 # ss_sort.c:25:40
	movq	%r10, %rdx
	movq	%rax, (%rsp)
	movq	%r10, -368(%rbp)        # 8-byte Spill
	callq	trace_logger_log_ptr
	movl	$25, %r11d
	movl	%r11d, %edi
	movabsq	$.L.str.25, %rsi
	movabsq	$.L.str.35, %rdx
	movabsq	$.L.str.40, %rcx
	movl	$30, %r11d
	movl	%r11d, %r8d
	xorl	%r9d, %r9d
	movl	$1, %r11d
	movl	$1, (%rsp)
	movl	%r11d, -372(%rbp)       # 4-byte Spill
	callq	trace_logger_log0
	movl	$1, %r9d
	movl	%r9d, %eax
	movl	$64, %r9d
	movl	%r9d, %esi
	movabsq	$.L.str.39, %r8
	xorl	%r9d, %r9d
                                        # kill: def %r9 killed %r9d
	movabsq	$.L.str.5, %rcx
	movq	%rax, %rdi
	movq	-368(%rbp), %rdx        # 8-byte Reload
	movq	%rcx, -384(%rbp)        # 8-byte Spill
	movq	%rax, %rcx
	movq	-384(%rbp), %rax        # 8-byte Reload
	movq	%rax, (%rsp)
	callq	trace_logger_log_ptr
	movl	$19134, %r11d           # imm = 0x4ABE
	movl	%r11d, %edi
	movl	$32, %r11d
	movl	%r11d, %esi
	movl	$1, %r11d
	movl	%r11d, %ecx
	movabsq	$.L.str.40, %r8
	xorl	%r11d, %r11d
	movl	%r11d, %r9d
	movabsq	$.L.str.5, %rax
	movq	-40(%rbp), %rdx         # 8-byte Reload
	movq	-344(%rbp), %r10        # 8-byte Reload
	movl	(%rdx,%r10,4), %r11d
	movl	%r11d, %ebx
	movl	%ebx, %edx
	movq	%rax, (%rsp)
	movl	%r11d, -388(%rbp)       # 4-byte Spill
	callq	trace_logger_log_int
	movl	$25, %r11d
	movl	%r11d, %edi
	movabsq	$.L.str.25, %rsi
	movabsq	$.L.str.35, %rdx
	movabsq	$.L.str.37, %rcx
	movl	$11, %r11d
	movl	%r11d, %r8d
	xorl	%r9d, %r9d
	movl	$1, %r11d
	movl	$1, (%rsp)
	movl	%r11d, -392(%rbp)       # 4-byte Spill
	callq	trace_logger_log0
	movl	$2, %r9d
	movl	%r9d, %edi
	movl	$32, %r9d
	movl	%r9d, %esi
	movl	$1, %r9d
	movl	%r9d, %ecx
	movabsq	$.L.str.36, %r8
	xorl	%r9d, %r9d
                                        # kill: def %r9 killed %r9d
	movabsq	$.L.str.5, %rax
	movl	-260(%rbp), %r11d       # 4-byte Reload
	movl	%r11d, %ebx
	movl	%ebx, %edx
	movq	%rax, (%rsp)
	callq	trace_logger_log_int
	movl	$1, %r11d
	movl	%r11d, %eax
	movl	$32, %r11d
	movl	%r11d, %esi
	movabsq	$.L.str.40, %r8
	xorl	%r11d, %r11d
	movl	%r11d, %r9d
	movabsq	$.L.str.5, %rcx
	movl	-388(%rbp), %r11d       # 4-byte Reload
	movl	%r11d, %ebx
	movl	%ebx, %edx
	movq	%rax, %rdi
	movq	%rcx, -400(%rbp)        # 8-byte Spill
	movq	%rax, %rcx
	movq	-400(%rbp), %rax        # 8-byte Reload
	movq	%rax, (%rsp)
	callq	trace_logger_log_int
	movl	$19134, %r11d           # imm = 0x4ABE
	movl	%r11d, %edi
	movl	$32, %r11d
	movl	%r11d, %esi
	movl	$1, %r11d
	movl	%r11d, %ecx
	movabsq	$.L.str.37, %r8
	xorl	%r11d, %r11d
	movl	%r11d, %r9d
	movabsq	$.L.str.5, %rax
	movl	-388(%rbp), %r11d       # 4-byte Reload
	movl	-260(%rbp), %ebx        # 4-byte Reload
	addl	%ebx, %r11d
	movl	%r11d, %r14d
	movl	%r14d, %edx
	movq	%rax, (%rsp)
	movl	%r11d, -404(%rbp)       # 4-byte Spill
	callq	trace_logger_log_int
	movl	$25, %r11d
	movl	%r11d, %edi
	movabsq	$.L.str.25, %rsi
	movabsq	$.L.str.35, %rdx
	movabsq	$.L.str.41, %rcx
	movl	$31, %r11d
	movl	%r11d, %r8d
	xorl	%r9d, %r9d
	movl	$1, %r11d
	movl	$1, (%rsp)
	movl	%r11d, -408(%rbp)       # 4-byte Spill
	callq	trace_logger_log0
	movl	$2, %r9d
	movl	%r9d, %edi
	movl	$64, %r9d
	movl	%r9d, %esi
	movl	$1, %r9d
	movl	%r9d, %ecx
	movabsq	$.L.str.39, %r8
	xorl	%r9d, %r9d
                                        # kill: def %r9 killed %r9d
	movabsq	$.L.str.5, %rax
	movq	-368(%rbp), %rdx        # 8-byte Reload
	movq	%rax, (%rsp)
	callq	trace_logger_log_ptr
	movl	$1, %r11d
	movl	%r11d, %eax
	movl	$32, %r11d
	movl	%r11d, %esi
	movabsq	$.L.str.37, %r8
	xorl	%r11d, %r11d
	movl	%r11d, %r9d
	movabsq	$.L.str.5, %rcx
	movl	-404(%rbp), %r11d       # 4-byte Reload
	movl	%r11d, %ebx
	movl	%ebx, %edx
	movq	%rax, %rdi
	movq	%rcx, -416(%rbp)        # 8-byte Spill
	movq	%rax, %rcx
	movq	-416(%rbp), %rax        # 8-byte Reload
	movq	%rax, (%rsp)
	callq	trace_logger_log_int
	movl	$23, %r11d
	movl	%r11d, %edi
	movabsq	$.L.str.25, %rsi
	movabsq	$.L.str.35, %rdx
	movabsq	$.L.str.14, %rcx
	movl	$11, %r11d
	movl	%r11d, %r8d
	xorl	%r9d, %r9d
	movl	$1, %r11d
	movq	-40(%rbp), %rax         # 8-byte Reload
	movq	-344(%rbp), %r10        # 8-byte Reload
	movl	-404(%rbp), %ebx        # 4-byte Reload
	movl	%ebx, (%rax,%r10,4)
.Ltmp15:
	.loc	1 23 45 is_stmt 1       # ss_sort.c:23:45
	movl	$1, (%rsp)
	movl	%r11d, -420(%rbp)       # 4-byte Spill
	callq	trace_logger_log0
	movl	$2, %r9d
	movl	%r9d, %edi
	movl	$64, %r9d
	movl	%r9d, %esi
	movl	$1, %r9d
	movl	%r9d, %edx
	xorl	%r9d, %r9d
	movl	%r9d, %eax
	movabsq	$.L.str.15, %r8
	movabsq	$.L.str.5, %rcx
	movq	%rcx, -432(%rbp)        # 8-byte Spill
	movq	%rax, %rcx
	movq	%rax, %r9
	movq	-432(%rbp), %rax        # 8-byte Reload
	movq	%rax, (%rsp)
	callq	trace_logger_log_int
	movl	$1, %r11d
	movl	%r11d, %eax
	movl	$64, %r11d
	movl	%r11d, %esi
	movabsq	$.L.str.13, %r8
	xorl	%r11d, %r11d
	movl	%r11d, %r9d
	movabsq	$.L.str.5, %rcx
	movq	%rax, %rdi
	movq	-272(%rbp), %rdx        # 8-byte Reload
	movq	%rcx, -440(%rbp)        # 8-byte Spill
	movq	%rax, %rcx
	movq	-440(%rbp), %rax        # 8-byte Reload
	movq	%rax, (%rsp)
	callq	trace_logger_log_int
	movl	$19134, %r11d           # imm = 0x4ABE
	movl	%r11d, %edi
	movl	$64, %r11d
	movl	%r11d, %esi
	movl	$1, %r11d
	movl	%r11d, %ecx
	movabsq	$.L.str.14, %r8
	xorl	%r11d, %r11d
	movl	%r11d, %r9d
	movabsq	$.L.str.5, %rax
	movq	-272(%rbp), %rdx        # 8-byte Reload
	addq	$1, %rdx
	.loc	1 23 31 is_stmt 0       # ss_sort.c:23:31
	movq	%rdx, -448(%rbp)        # 8-byte Spill
	movq	%rax, (%rsp)
	callq	trace_logger_log_int
	movl	$23, %r11d
	movl	%r11d, %edi
	movabsq	$.L.str.25, %rsi
	movabsq	$.L.str.35, %rdx
	movabsq	$.L.str.22, %rcx
	movl	$51, %r11d
	movl	%r11d, %r8d
	xorl	%r9d, %r9d
	movl	$1, %r11d
	movl	$1, (%rsp)
	movl	%r11d, -452(%rbp)       # 4-byte Spill
	callq	trace_logger_log0
	movl	$2, %r9d
	movl	%r9d, %edi
	movl	$64, %r9d
	movl	%r9d, %esi
	movl	$16, %r9d
	movl	%r9d, %edx
	xorl	%r9d, %r9d
	movl	%r9d, %eax
	movabsq	$.L.str.15, %r8
	movabsq	$.L.str.5, %rcx
	movq	%rcx, -464(%rbp)        # 8-byte Spill
	movq	%rax, %rcx
	movq	%rax, %r9
	movq	-464(%rbp), %rax        # 8-byte Reload
	movq	%rax, (%rsp)
	callq	trace_logger_log_int
	movl	$1, %r11d
	movl	%r11d, %eax
	movl	$64, %r11d
	movl	%r11d, %esi
	movabsq	$.L.str.14, %r8
	xorl	%r11d, %r11d
	movl	%r11d, %r9d
	movabsq	$.L.str.5, %rcx
	movq	%rax, %rdi
	movq	-448(%rbp), %rdx        # 8-byte Reload
	movq	%rcx, -472(%rbp)        # 8-byte Spill
	movq	%rax, %rcx
	movq	-472(%rbp), %rax        # 8-byte Reload
	movq	%rax, (%rsp)
	callq	trace_logger_log_int
	movl	$19134, %r11d           # imm = 0x4ABE
	movl	%r11d, %edi
	movl	$1, %r11d
	movl	%r11d, %eax
	movabsq	$.L.str.22, %r8
	xorl	%r11d, %r11d
	movl	%r11d, %r9d
	movabsq	$.L.str.5, %rcx
	movq	-448(%rbp), %rdx        # 8-byte Reload
	cmpq	$16, %rdx
	sete	%r15b
.Ltmp16:
	.loc	1 23 17                 # ss_sort.c:23:17
	movb	%r15b, %r12b
	andb	$1, %r12b
	movzbl	%r12b, %r11d
	movl	%r11d, %edx
	movq	%rax, %rsi
	movq	%rcx, -480(%rbp)        # 8-byte Spill
	movq	%rax, %rcx
	movq	-480(%rbp), %rax        # 8-byte Reload
	movq	%rax, (%rsp)
	movb	%r15b, -481(%rbp)       # 1-byte Spill
	callq	trace_logger_log_int
	movl	$23, %r11d
	movl	%r11d, %edi
	movabsq	$.L.str.25, %rsi
	movabsq	$.L.str.35, %rdx
	movabsq	$.L.str.42, %rcx
	movl	$2, %r11d
	movl	%r11d, %r8d
	xorl	%r9d, %r9d
	movl	$1, %r11d
	movl	$1, (%rsp)
	movl	%r11d, -488(%rbp)       # 4-byte Spill
	callq	trace_logger_log0
	movl	$3, %r9d
	movl	%r9d, %edi
	xorl	%r9d, %r9d
	movl	%r9d, %eax
	movl	$1, %r9d
	movl	%r9d, %ecx
	movabsq	$.L.str.29, %r8
	movabsq	$.L.str.5, %rdx
	movq	%rax, %rsi
	movq	%rdx, -496(%rbp)        # 8-byte Spill
	movq	%rax, %rdx
	movq	%rax, %r9
	movq	-496(%rbp), %rax        # 8-byte Reload
	movq	%rax, (%rsp)
	callq	trace_logger_log_int
	movl	$2, %r11d
	movl	%r11d, %edi
	xorl	%r11d, %r11d
	movl	%r11d, %eax
	movl	$1, %r11d
	movl	%r11d, %ecx
	movabsq	$.L.str.35, %r8
	movabsq	$.L.str.5, %rdx
	movq	%rax, %rsi
	movq	%rdx, -504(%rbp)        # 8-byte Spill
	movq	%rax, %rdx
	movq	%rax, %r9
	movq	-504(%rbp), %rax        # 8-byte Reload
	movq	%rax, (%rsp)
	callq	trace_logger_log_int
	movl	$1, %r11d
	movl	%r11d, %eax
	movabsq	$.L.str.22, %r8
	xorl	%r11d, %r11d
	movl	%r11d, %r9d
	movabsq	$.L.str.5, %rcx
	movb	-481(%rbp), %r15b       # 1-byte Reload
	andb	$1, %r15b
	movzbl	%r15b, %r11d
	movl	%r11d, %edx
	movq	%rax, %rdi
	movq	%rax, %rsi
	movq	%rcx, -512(%rbp)        # 8-byte Spill
	movq	%rax, %rcx
	movq	-512(%rbp), %rax        # 8-byte Reload
	movq	%rax, (%rsp)
	callq	trace_logger_log_int
	movb	-481(%rbp), %r15b       # 1-byte Reload
	testb	$1, %r15b
	movl	-404(%rbp), %r11d       # 4-byte Reload
	movq	-448(%rbp), %rax        # 8-byte Reload
	movl	%r11d, -244(%rbp)       # 4-byte Spill
	movq	%rax, -256(%rbp)        # 8-byte Spill
	jne	.LBB1_3
	jmp	.LBB1_2
.Ltmp17:
.LBB1_3:                                #   in Loop: Header=BB1_1 Depth=1
	#DEBUG_VALUE: local_scan:i <- [DW_OP_constu 272, DW_OP_minus] [%rbp+0]
	#DEBUG_VALUE: local_scan:radixID <- [DW_OP_constu 88, DW_OP_minus] [%rbp+0]
	#DEBUG_VALUE: local_scan:bucket <- [DW_OP_constu 40, DW_OP_minus] [%rbp+0]
	.loc	1 0 17                  # ss_sort.c:0:17
	movl	$21, %eax
	movl	%eax, %edi
	movabsq	$.L.str.25, %rsi
	movabsq	$.L.str.29, %rdx
	movabsq	$.L.str.28, %rcx
	movl	$11, %eax
	movl	%eax, %r8d
	xorl	%r9d, %r9d
	movl	$1, %eax
	.loc	1 21 55 is_stmt 1       # ss_sort.c:21:55
	movl	$1, (%rsp)
	movl	%eax, -516(%rbp)        # 4-byte Spill
	callq	trace_logger_log0
	movl	$2, %eax
	movl	%eax, %edi
	movl	$64, %eax
	movl	%eax, %esi
	movl	$1, %eax
	movl	%eax, %edx
	xorl	%eax, %eax
	movl	%eax, %ecx
	movabsq	$.L.str.15, %r8
	movabsq	$.L.str.5, %r10
	movq	%rcx, -528(%rbp)        # 8-byte Spill
	movq	-528(%rbp), %r9         # 8-byte Reload
	movq	%r10, (%rsp)
	callq	trace_logger_log_int
	movl	$1, %eax
	movl	%eax, %ecx
	movl	$64, %eax
	movl	%eax, %esi
	movabsq	$.L.str.27, %r8
	xorl	%eax, %eax
	movl	%eax, %r9d
	movabsq	$.L.str.5, %rdx
	movq	%rcx, %rdi
	movq	-88(%rbp), %r10         # 8-byte Reload
	movq	%rdx, -536(%rbp)        # 8-byte Spill
	movq	%r10, %rdx
	movq	-536(%rbp), %r11        # 8-byte Reload
	movq	%r11, (%rsp)
	callq	trace_logger_log_int
	movl	$19134, %eax            # imm = 0x4ABE
	movl	%eax, %edi
	movl	$64, %eax
	movl	%eax, %esi
	movl	$1, %eax
	movl	%eax, %ecx
	movabsq	$.L.str.28, %r8
	xorl	%eax, %eax
	movl	%eax, %r9d
	movabsq	$.L.str.5, %rdx
	movq	-88(%rbp), %r10         # 8-byte Reload
	addq	$1, %r10
	.loc	1 21 41 is_stmt 0       # ss_sort.c:21:41
	movq	%rdx, -544(%rbp)        # 8-byte Spill
	movq	%r10, %rdx
	movq	-544(%rbp), %r11        # 8-byte Reload
	movq	%r11, (%rsp)
	movq	%r10, -552(%rbp)        # 8-byte Spill
	callq	trace_logger_log_int
	movl	$21, %eax
	movl	%eax, %edi
	movabsq	$.L.str.25, %rsi
	movabsq	$.L.str.29, %rdx
	movabsq	$.L.str.43, %rcx
	movl	$51, %eax
	movl	%eax, %r8d
	xorl	%r9d, %r9d
	movl	$1, %eax
	movl	$1, (%rsp)
	movl	%eax, -556(%rbp)        # 4-byte Spill
	callq	trace_logger_log0
	movl	$2, %eax
	movl	%eax, %edi
	movl	$64, %eax
	movl	%eax, %esi
	movl	$128, %eax
	movl	%eax, %edx
	xorl	%eax, %eax
	movl	%eax, %ecx
	movabsq	$.L.str.15, %r8
	movabsq	$.L.str.5, %r10
	movq	%rcx, -568(%rbp)        # 8-byte Spill
	movq	-568(%rbp), %r9         # 8-byte Reload
	movq	%r10, (%rsp)
	callq	trace_logger_log_int
	movl	$1, %eax
	movl	%eax, %ecx
	movl	$64, %eax
	movl	%eax, %esi
	movabsq	$.L.str.28, %r8
	xorl	%eax, %eax
	movl	%eax, %r9d
	movabsq	$.L.str.5, %rdx
	movq	%rcx, %rdi
	movq	-552(%rbp), %r10        # 8-byte Reload
	movq	%rdx, -576(%rbp)        # 8-byte Spill
	movq	%r10, %rdx
	movq	-576(%rbp), %r11        # 8-byte Reload
	movq	%r11, (%rsp)
	callq	trace_logger_log_int
	movl	$19134, %eax            # imm = 0x4ABE
	movl	%eax, %edi
	movl	$1, %eax
	movl	%eax, %ecx
	movabsq	$.L.str.43, %r8
	xorl	%eax, %eax
	movl	%eax, %r9d
	movabsq	$.L.str.5, %rdx
	movq	-552(%rbp), %rsi        # 8-byte Reload
	cmpq	$128, %rsi
	sete	%bl
.Ltmp18:
	.loc	1 21 15                 # ss_sort.c:21:15
	movb	%bl, %r14b
	andb	$1, %r14b
	movzbl	%r14b, %eax
	movl	%eax, %r10d
	movq	%rcx, %rsi
	movq	%rdx, -584(%rbp)        # 8-byte Spill
	movq	%r10, %rdx
	movq	-584(%rbp), %r10        # 8-byte Reload
	movq	%r10, (%rsp)
	movb	%bl, -585(%rbp)         # 1-byte Spill
	callq	trace_logger_log_int
	movl	$21, %eax
	movl	%eax, %edi
	movabsq	$.L.str.25, %rsi
	movabsq	$.L.str.29, %rdx
	movabsq	$.L.str.44, %rcx
	movl	$2, %eax
	movl	%eax, %r8d
	xorl	%r9d, %r9d
	movl	$1, %eax
	movl	$1, (%rsp)
	movl	%eax, -592(%rbp)        # 4-byte Spill
	callq	trace_logger_log0
	movl	$3, %eax
	movl	%eax, %edi
	xorl	%eax, %eax
	movl	%eax, %ecx
	movl	$1, %eax
	movl	%eax, %edx
	movabsq	$.L.str.45, %r8
	movabsq	$.L.str.5, %rsi
	movq	%rsi, -600(%rbp)        # 8-byte Spill
	movq	%rcx, %rsi
	movq	%rdx, -608(%rbp)        # 8-byte Spill
	movq	%rcx, %rdx
	movq	-608(%rbp), %r10        # 8-byte Reload
	movq	%rcx, -616(%rbp)        # 8-byte Spill
	movq	%r10, %rcx
	movq	-616(%rbp), %r9         # 8-byte Reload
	movq	-600(%rbp), %r11        # 8-byte Reload
	movq	%r11, (%rsp)
	callq	trace_logger_log_int
	movl	$2, %eax
	movl	%eax, %edi
	xorl	%eax, %eax
	movl	%eax, %ecx
	movl	$1, %eax
	movl	%eax, %edx
	movabsq	$.L.str.12, %r8
	movabsq	$.L.str.5, %rsi
	movq	%rsi, -624(%rbp)        # 8-byte Spill
	movq	%rcx, %rsi
	movq	%rdx, -632(%rbp)        # 8-byte Spill
	movq	%rcx, %rdx
	movq	-632(%rbp), %r9         # 8-byte Reload
	movq	%rcx, -640(%rbp)        # 8-byte Spill
	movq	%r9, %rcx
	movq	-640(%rbp), %r9         # 8-byte Reload
	movq	-624(%rbp), %r10        # 8-byte Reload
	movq	%r10, (%rsp)
	callq	trace_logger_log_int
	movl	$1, %eax
	movl	%eax, %ecx
	movabsq	$.L.str.43, %r8
	xorl	%eax, %eax
	movl	%eax, %r9d
	movabsq	$.L.str.5, %rdx
	movb	-585(%rbp), %bl         # 1-byte Reload
	andb	$1, %bl
	movzbl	%bl, %eax
	movl	%eax, %esi
	movq	%rcx, %rdi
	movq	%rsi, -648(%rbp)        # 8-byte Spill
	movq	%rcx, %rsi
	movq	-648(%rbp), %r10        # 8-byte Reload
	movq	%rdx, -656(%rbp)        # 8-byte Spill
	movq	%r10, %rdx
	movq	-656(%rbp), %r11        # 8-byte Reload
	movq	%r11, (%rsp)
	callq	trace_logger_log_int
	movb	-585(%rbp), %bl         # 1-byte Reload
	testb	$1, %bl
	movq	-552(%rbp), %rcx        # 8-byte Reload
	movq	%rcx, -80(%rbp)         # 8-byte Spill
	jne	.LBB1_4
	jmp	.LBB1_1
.Ltmp19:
.LBB1_4:
	#DEBUG_VALUE: local_scan:i <- [DW_OP_constu 272, DW_OP_minus] [%rbp+0]
	#DEBUG_VALUE: local_scan:radixID <- [DW_OP_constu 88, DW_OP_minus] [%rbp+0]
	#DEBUG_VALUE: local_scan:bucket <- [DW_OP_constu 40, DW_OP_minus] [%rbp+0]
	.loc	1 0 15                  # ss_sort.c:0:15
	movl	$27, %eax
	movl	%eax, %edi
	movabsq	$.L.str.25, %rsi
	movabsq	$.L.str.45, %rdx
	movabsq	$.L.str.46, %rcx
	movl	$1, %eax
	movl	%eax, %r8d
	xorl	%r9d, %r9d
	movl	$1, %eax
	.loc	1 27 1 is_stmt 1        # ss_sort.c:27:1
	movl	$1, (%rsp)
	movl	%eax, -660(%rbp)        # 4-byte Spill
	callq	trace_logger_log0
	movabsq	$.L.str.25, %rdi
	movl	$1, %eax
	movl	%eax, %esi
	xorl	%edx, %edx
	movl	$1, %ecx
	callq	trace_logger_update_status
	addq	$640, %rsp              # imm = 0x280
	popq	%rbx
	popq	%r12
	popq	%r14
	popq	%r15
	popq	%rbp
	retq
.Ltmp20:
.Lfunc_end1:
	.size	local_scan, .Lfunc_end1-local_scan
	.cfi_endproc
                                        # -- End function
	.globl	sum_scan                # -- Begin function sum_scan
	.p2align	4, 0x90
	.type	sum_scan,@function
sum_scan:                               # @sum_scan
.Lfunc_begin2:
	.loc	1 30 0                  # ss_sort.c:30:0
	.cfi_startproc
# %bb.0:
	pushq	%rbp
	.cfi_def_cfa_offset 16
	.cfi_offset %rbp, -16
	movq	%rsp, %rbp
	.cfi_def_cfa_register %rbp
	pushq	%r15
	pushq	%r14
	pushq	%r12
	pushq	%rbx
	subq	$432, %rsp              # imm = 0x1B0
	.cfi_offset %rbx, -48
	.cfi_offset %r12, -40
	.cfi_offset %r14, -32
	.cfi_offset %r15, -24
	movl	$24601, %eax            # imm = 0x6019
	movl	%eax, %ecx
	movl	$64, %eax
	movl	%eax, %edx
	movl	$1, %eax
	movl	%eax, %r8d
	movabsq	$.L.str.48, %r9
	xorl	%eax, %eax
	movl	%eax, %r10d
	movabsq	$.L.str.5, %r11
.Ltmp21:
	.loc	1 29 19 prologue_end    # ss_sort.c:29:19
	movq	%rdi, -40(%rbp)         # 8-byte Spill
	movq	%rcx, %rdi
	movq	%rsi, -48(%rbp)         # 8-byte Spill
	movq	%rdx, %rsi
	movq	-40(%rbp), %rdx         # 8-byte Reload
	movq	%r8, %rcx
	movq	%r9, %r8
	movq	%r10, %r9
	movq	%r11, (%rsp)
	callq	trace_logger_log_ptr
	movl	$24601, %eax            # imm = 0x6019
	movl	%eax, %edi
	movl	$64, %eax
	movl	%eax, %esi
	movl	$1, %eax
	movl	%eax, %ecx
	movabsq	$.L.str.31, %r8
	xorl	%eax, %eax
	movl	%eax, %r9d
	movabsq	$.L.str.5, %rdx
	movq	-48(%rbp), %r10         # 8-byte Reload
	movq	%rdx, -56(%rbp)         # 8-byte Spill
	movq	%r10, %rdx
	movq	-56(%rbp), %r11         # 8-byte Reload
	movq	%r11, (%rsp)
	callq	trace_logger_log_ptr
	movl	$32, %eax
	movl	%eax, %edi
	movabsq	$.L.str.47, %rsi
	movabsq	$.L.str.2, %rdx
	movabsq	$.L.str.26, %rcx
	movl	$31, %eax
	movl	%eax, %r8d
	xorl	%r9d, %r9d
	movl	$1, %eax
	#DEBUG_VALUE: sum_scan:sum <- [DW_OP_constu 40, DW_OP_minus] [%rbp+0]
	#DEBUG_VALUE: sum_scan:bucket <- [DW_OP_constu 48, DW_OP_minus] [%rbp+0]
	.loc	1 32 10                 # ss_sort.c:32:10
	movl	$1, (%rsp)
	movl	%eax, -60(%rbp)         # 4-byte Spill
	callq	trace_logger_log0
	movl	$2, %eax
	movl	%eax, %edi
	movl	$64, %eax
	movl	%eax, %esi
	movl	$1, %eax
	movl	%eax, %ecx
	movabsq	$.L.str.48, %r8
	xorl	%eax, %eax
	movl	%eax, %r9d
	movabsq	$.L.str.5, %rdx
	movq	-40(%rbp), %r10         # 8-byte Reload
	movq	%rdx, -72(%rbp)         # 8-byte Spill
	movq	%r10, %rdx
	movq	-72(%rbp), %r11         # 8-byte Reload
	movq	%r11, (%rsp)
	callq	trace_logger_log_ptr
	movl	$1, %eax
	movl	%eax, %edi
	movl	$32, %eax
	movl	%eax, %esi
	xorl	%eax, %eax
	movl	%eax, %ecx
	movabsq	$.L.str.15, %r8
	movabsq	$.L.str.5, %rdx
	movq	%rdx, -80(%rbp)         # 8-byte Spill
	movq	%rcx, %rdx
	movq	%rcx, -88(%rbp)         # 8-byte Spill
	movq	-88(%rbp), %r9          # 8-byte Reload
	movq	-80(%rbp), %r10         # 8-byte Reload
	movq	%r10, (%rsp)
	callq	trace_logger_log_int
	movl	$34, %eax
	movl	%eax, %edi
	movabsq	$.L.str.47, %rsi
	movabsq	$.L.str.2, %rdx
	movabsq	$.L.str.49, %rcx
	movl	$2, %eax
	movl	%eax, %r8d
	xorl	%r9d, %r9d
	movl	$1, %eax
	movq	-40(%rbp), %r10         # 8-byte Reload
	movl	$0, (%r10)
.Ltmp22:
	#DEBUG_VALUE: sum_scan:radixID <- 1
	.loc	1 34 9                  # ss_sort.c:34:9
	movl	$1, (%rsp)
	movl	%eax, -92(%rbp)         # 4-byte Spill
	callq	trace_logger_log0
	movl	$1, %eax
	movl	%eax, %ecx
	xorl	%eax, %eax
	movl	%eax, %edx
	movabsq	$.L.str.12, %r8
	movabsq	$.L.str.5, %rsi
	movq	%rcx, %rdi
	movq	%rsi, -104(%rbp)        # 8-byte Spill
	movq	%rdx, %rsi
	movq	%rdx, -112(%rbp)        # 8-byte Spill
	movq	-112(%rbp), %r9         # 8-byte Reload
	movq	-104(%rbp), %r10        # 8-byte Reload
	movq	%r10, (%rsp)
	callq	trace_logger_log_int
	xorl	%eax, %eax
	movl	$1, %ebx
	movl	%ebx, %ecx
	movl	%eax, -116(%rbp)        # 4-byte Spill
	movq	%rcx, -128(%rbp)        # 8-byte Spill
.Ltmp23:
.LBB2_1:                                # =>This Inner Loop Header: Depth=1
	#DEBUG_VALUE: sum_scan:bucket <- [DW_OP_constu 48, DW_OP_minus] [%rbp+0]
	#DEBUG_VALUE: sum_scan:sum <- [DW_OP_constu 40, DW_OP_minus] [%rbp+0]
	.loc	1 0 9 is_stmt 0         # ss_sort.c:0:9
	movq	-128(%rbp), %rax        # 8-byte Reload
	movl	-116(%rbp), %ecx        # 4-byte Reload
	movq	$-1, %rdi
	movabsq	$.L.str.47, %rsi
	movabsq	$.L.str.12, %rdx
	movabsq	$.L.str.36, %r8
	movl	$53, %r9d
	movl	%r9d, %r10d
	xorl	%r9d, %r9d
	movl	$1, %r11d
	.loc	1 31 7 is_stmt 1        # ss_sort.c:31:7
	movl	%ecx, -132(%rbp)        # 4-byte Spill
	movq	%r8, %rcx
	movq	%r10, %r8
	movl	$1, (%rsp)
	movq	%rax, -144(%rbp)        # 8-byte Spill
	movl	%r11d, -148(%rbp)       # 4-byte Spill
	callq	trace_logger_log0
	movl	$2, %r9d
	movl	%r9d, %edi
	movl	$32, %r9d
	movl	%r9d, %esi
	xorl	%r9d, %r9d
	movl	%r9d, %edx
	movl	$1, %r9d
	movl	%r9d, %eax
	movabsq	$.L.str.50, %r8
	movabsq	$.L.str.12, %rcx
	movq	%rcx, -160(%rbp)        # 8-byte Spill
	movq	%rax, %rcx
	movq	%rax, %r9
	movq	-160(%rbp), %rax        # 8-byte Reload
	movq	%rax, (%rsp)
	callq	trace_logger_log_int
	movl	$1, %r11d
	movl	%r11d, %eax
	movl	$32, %r11d
	movl	%r11d, %esi
	xorl	%r11d, %r11d
	movl	%r11d, %ecx
	movabsq	$.L.str.15, %r8
	movabsq	$.L.str.2, %rdx
	movq	%rax, %rdi
	movq	%rdx, -168(%rbp)        # 8-byte Spill
	movq	%rcx, %rdx
	movq	%rax, %r9
	movq	-168(%rbp), %rax        # 8-byte Reload
	movq	%rax, (%rsp)
	callq	trace_logger_log_int
	movl	$19134, %r11d           # imm = 0x4ABE
	movl	%r11d, %edi
	movl	$32, %r11d
	movl	%r11d, %esi
	movl	$1, %r11d
	movl	%r11d, %ecx
	movabsq	$.L.str.36, %r8
	xorl	%r11d, %r11d
	movl	%r11d, %r9d
	movabsq	$.L.str.2, %rax
	movl	-132(%rbp), %r11d       # 4-byte Reload
	movl	%r11d, %ebx
	movl	%ebx, %edx
	movq	%rax, (%rsp)
	callq	trace_logger_log_int
	movq	$-1, %rdi
	movabsq	$.L.str.47, %rsi
	movabsq	$.L.str.12, %rdx
	movabsq	$.L.str.13, %rcx
	movl	$53, %r11d
	movl	%r11d, %r8d
	xorl	%r9d, %r9d
	movl	$1, %r11d
	movl	$1, (%rsp)
	movl	%r11d, -172(%rbp)       # 4-byte Spill
	callq	trace_logger_log0
	movl	$2, %r9d
	movl	%r9d, %edi
	movl	$64, %r9d
	movl	%r9d, %esi
	xorl	%r9d, %r9d
	movl	%r9d, %edx
	movl	$1, %r9d
	movl	%r9d, %eax
	movabsq	$.L.str.14, %r8
	movabsq	$.L.str.12, %rcx
	movq	%rcx, -184(%rbp)        # 8-byte Spill
	movq	%rax, %rcx
	movq	%rax, %r9
	movq	-184(%rbp), %rax        # 8-byte Reload
	movq	%rax, (%rsp)
	callq	trace_logger_log_int
	movl	$1, %r11d
	movl	%r11d, %eax
	movl	$64, %r11d
	movl	%r11d, %esi
	xorl	%r11d, %r11d
	movl	%r11d, %ecx
	movabsq	$.L.str.15, %r8
	movabsq	$.L.str.2, %rdx
	movq	%rax, %rdi
	movq	%rdx, -192(%rbp)        # 8-byte Spill
	movq	%rax, %rdx
	movq	%rax, %r9
	movq	-192(%rbp), %rax        # 8-byte Reload
	movq	%rax, (%rsp)
	callq	trace_logger_log_int
	movl	$19134, %r11d           # imm = 0x4ABE
	movl	%r11d, %edi
	movl	$64, %r11d
	movl	%r11d, %esi
	movl	$1, %r11d
	movl	%r11d, %ecx
	movabsq	$.L.str.13, %r8
	xorl	%r11d, %r11d
	movl	%r11d, %r9d
	movabsq	$.L.str.2, %rax
	movq	-144(%rbp), %rdx        # 8-byte Reload
	movq	%rax, (%rsp)
	callq	trace_logger_log_int
	movl	$35, %r11d
	movl	%r11d, %edi
	movabsq	$.L.str.47, %rsi
	movabsq	$.L.str.12, %rdx
	movabsq	$.L.str.18, %rcx
	movl	$23, %r11d
	movl	%r11d, %r8d
	xorl	%r9d, %r9d
	movl	$1, %r11d
.Ltmp24:
	#DEBUG_VALUE: sum_scan:radixID <- [DW_OP_constu 144, DW_OP_minus] [%rbp+0]
	.loc	1 35 53                 # ss_sort.c:35:53
	movl	$1, (%rsp)
	movl	%r11d, -196(%rbp)       # 4-byte Spill
	callq	trace_logger_log0
	movl	$2, %r9d
	movl	%r9d, %edi
	movl	$64, %r9d
	movl	%r9d, %esi
	movl	$4, %r9d
	movl	%r9d, %edx
	xorl	%r9d, %r9d
	movl	%r9d, %eax
	movabsq	$.L.str.15, %r8
	movabsq	$.L.str.5, %rcx
	movq	%rcx, -208(%rbp)        # 8-byte Spill
	movq	%rax, %rcx
	movq	%rax, %r9
	movq	-208(%rbp), %rax        # 8-byte Reload
	movq	%rax, (%rsp)
	callq	trace_logger_log_int
	movl	$1, %r11d
	movl	%r11d, %eax
	movl	$64, %r11d
	movl	%r11d, %esi
	movabsq	$.L.str.13, %r8
	xorl	%r11d, %r11d
	movl	%r11d, %r9d
	movabsq	$.L.str.5, %rcx
	movq	%rax, %rdi
	movq	-144(%rbp), %rdx        # 8-byte Reload
	movq	%rcx, -216(%rbp)        # 8-byte Spill
	movq	%rax, %rcx
	movq	-216(%rbp), %rax        # 8-byte Reload
	movq	%rax, (%rsp)
	callq	trace_logger_log_int
	movl	$19134, %r11d           # imm = 0x4ABE
	movl	%r11d, %edi
	movl	$64, %r11d
	movl	%r11d, %esi
	movl	$1, %r11d
	movl	%r11d, %ecx
	movabsq	$.L.str.18, %r8
	xorl	%r11d, %r11d
	movl	%r11d, %r9d
	movabsq	$.L.str.5, %rax
	movq	-144(%rbp), %rdx        # 8-byte Reload
	shlq	$4, %rdx
	.loc	1 35 66 is_stmt 0       # ss_sort.c:35:66
	movq	%rdx, -224(%rbp)        # 8-byte Spill
	movq	%rax, (%rsp)
	callq	trace_logger_log_int
	movl	$35, %r11d
	movl	%r11d, %edi
	movabsq	$.L.str.47, %rsi
	movabsq	$.L.str.12, %rdx
	movabsq	$.L.str.32, %rcx
	movl	$11, %r11d
	movl	%r11d, %r8d
	xorl	%r9d, %r9d
	movl	$1, %r11d
	movl	$1, (%rsp)
	movl	%r11d, -228(%rbp)       # 4-byte Spill
	callq	trace_logger_log0
	movl	$2, %r9d
	movl	%r9d, %edi
	movl	$64, %r9d
	movl	%r9d, %esi
	movq	$-1, %rdx
	xorl	%r9d, %r9d
	movl	%r9d, %eax
	movabsq	$.L.str.15, %r8
	movabsq	$.L.str.5, %rcx
	movq	%rcx, -240(%rbp)        # 8-byte Spill
	movq	%rax, %rcx
	movq	%rax, %r9
	movq	-240(%rbp), %rax        # 8-byte Reload
	movq	%rax, (%rsp)
	callq	trace_logger_log_int
	movl	$1, %r11d
	movl	%r11d, %eax
	movl	$64, %r11d
	movl	%r11d, %esi
	movabsq	$.L.str.18, %r8
	xorl	%r11d, %r11d
	movl	%r11d, %r9d
	movabsq	$.L.str.5, %rcx
	movq	%rax, %rdi
	movq	-224(%rbp), %rdx        # 8-byte Reload
	movq	%rcx, -248(%rbp)        # 8-byte Spill
	movq	%rax, %rcx
	movq	-248(%rbp), %rax        # 8-byte Reload
	movq	%rax, (%rsp)
	callq	trace_logger_log_int
	movl	$19134, %r11d           # imm = 0x4ABE
	movl	%r11d, %edi
	movl	$64, %r11d
	movl	%r11d, %esi
	movl	$1, %r11d
	movl	%r11d, %ecx
	movabsq	$.L.str.32, %r8
	xorl	%r11d, %r11d
	movl	%r11d, %r9d
	movabsq	$.L.str.5, %rax
	movq	-224(%rbp), %rdx        # 8-byte Reload
	addq	$-1, %rdx
	.loc	1 35 38                 # ss_sort.c:35:38
	movq	%rdx, -256(%rbp)        # 8-byte Spill
	movq	%rax, (%rsp)
	callq	trace_logger_log_int
	movl	$35, %r11d
	movl	%r11d, %edi
	movabsq	$.L.str.47, %rsi
	movabsq	$.L.str.12, %rdx
	movabsq	$.L.str.51, %rcx
	movl	$32, %r11d
	movl	%r11d, %r8d
	xorl	%r9d, %r9d
	movl	$1, %r11d
	movl	$1, (%rsp)
	movl	%r11d, -260(%rbp)       # 4-byte Spill
	callq	trace_logger_log0
	movl	$2, %r9d
	movl	%r9d, %edi
	movl	$64, %r9d
	movl	%r9d, %esi
	movl	$1, %r9d
	movl	%r9d, %ecx
	movabsq	$.L.str.32, %r8
	xorl	%r9d, %r9d
                                        # kill: def %r9 killed %r9d
	movabsq	$.L.str.5, %rax
	movq	-256(%rbp), %rdx        # 8-byte Reload
	movq	%rax, (%rsp)
	callq	trace_logger_log_int
	movl	$1, %r11d
	movl	%r11d, %eax
	movl	$64, %r11d
	movl	%r11d, %esi
	movabsq	$.L.str.31, %r8
	xorl	%r11d, %r11d
	movl	%r11d, %r9d
	movabsq	$.L.str.5, %rcx
	movq	%rax, %rdi
	movq	-48(%rbp), %rdx         # 8-byte Reload
	movq	%rcx, -272(%rbp)        # 8-byte Spill
	movq	%rax, %rcx
	movq	-272(%rbp), %rax        # 8-byte Reload
	movq	%rax, (%rsp)
	callq	trace_logger_log_ptr
	movl	$19134, %r11d           # imm = 0x4ABE
	movl	%r11d, %edi
	movl	$64, %r11d
	movl	%r11d, %esi
	movl	$1, %r11d
	movl	%r11d, %ecx
	movabsq	$.L.str.51, %r8
	xorl	%r11d, %r11d
	movl	%r11d, %r9d
	movabsq	$.L.str.5, %rax
	movq	-256(%rbp), %rdx        # 8-byte Reload
	shlq	$2, %rdx
	movq	-48(%rbp), %r10         # 8-byte Reload
	addq	%rdx, %r10
	movq	%r10, %rdx
	movq	%rax, (%rsp)
	movq	%r10, -280(%rbp)        # 8-byte Spill
	callq	trace_logger_log_ptr
	movl	$35, %r11d
	movl	%r11d, %edi
	movabsq	$.L.str.47, %rsi
	movabsq	$.L.str.12, %rdx
	movabsq	$.L.str.52, %rcx
	movl	$30, %r11d
	movl	%r11d, %r8d
	xorl	%r9d, %r9d
	movl	$1, %r11d
	movl	$1, (%rsp)
	movl	%r11d, -284(%rbp)       # 4-byte Spill
	callq	trace_logger_log0
	movl	$1, %r9d
	movl	%r9d, %eax
	movl	$64, %r9d
	movl	%r9d, %esi
	movabsq	$.L.str.51, %r8
	xorl	%r9d, %r9d
                                        # kill: def %r9 killed %r9d
	movabsq	$.L.str.5, %rcx
	movq	%rax, %rdi
	movq	-280(%rbp), %rdx        # 8-byte Reload
	movq	%rcx, -296(%rbp)        # 8-byte Spill
	movq	%rax, %rcx
	movq	-296(%rbp), %rax        # 8-byte Reload
	movq	%rax, (%rsp)
	callq	trace_logger_log_ptr
	movl	$19134, %r11d           # imm = 0x4ABE
	movl	%r11d, %edi
	movl	$32, %r11d
	movl	%r11d, %esi
	movl	$1, %r11d
	movl	%r11d, %ecx
	movabsq	$.L.str.52, %r8
	xorl	%r11d, %r11d
	movl	%r11d, %r9d
	movabsq	$.L.str.5, %rax
	movq	-48(%rbp), %rdx         # 8-byte Reload
	movq	-224(%rbp), %r10        # 8-byte Reload
	movl	-4(%rdx,%r10,4), %r11d
	.loc	1 35 36                 # ss_sort.c:35:36
	movl	%r11d, %ebx
	movl	%ebx, %edx
	movq	%rax, (%rsp)
	movl	%r11d, -300(%rbp)       # 4-byte Spill
	callq	trace_logger_log_int
	movl	$35, %r11d
	movl	%r11d, %edi
	movabsq	$.L.str.47, %rsi
	movabsq	$.L.str.12, %rdx
	movabsq	$.L.str.50, %rcx
	movl	$11, %r11d
	movl	%r11d, %r8d
	xorl	%r9d, %r9d
	movl	$1, %r11d
	movl	$1, (%rsp)
	movl	%r11d, -304(%rbp)       # 4-byte Spill
	callq	trace_logger_log0
	movl	$2, %r9d
	movl	%r9d, %edi
	movl	$32, %r9d
	movl	%r9d, %esi
	movl	$1, %r9d
	movl	%r9d, %ecx
	movabsq	$.L.str.36, %r8
	xorl	%r9d, %r9d
                                        # kill: def %r9 killed %r9d
	movabsq	$.L.str.5, %rax
	movl	-132(%rbp), %r11d       # 4-byte Reload
	movl	%r11d, %ebx
	movl	%ebx, %edx
	movq	%rax, (%rsp)
	callq	trace_logger_log_int
	movl	$1, %r11d
	movl	%r11d, %eax
	movl	$32, %r11d
	movl	%r11d, %esi
	movabsq	$.L.str.52, %r8
	xorl	%r11d, %r11d
	movl	%r11d, %r9d
	movabsq	$.L.str.5, %rcx
	movl	-300(%rbp), %r11d       # 4-byte Reload
	movl	%r11d, %ebx
	movl	%ebx, %edx
	movq	%rax, %rdi
	movq	%rcx, -312(%rbp)        # 8-byte Spill
	movq	%rax, %rcx
	movq	-312(%rbp), %rax        # 8-byte Reload
	movq	%rax, (%rsp)
	callq	trace_logger_log_int
	movl	$19134, %r11d           # imm = 0x4ABE
	movl	%r11d, %edi
	movl	$32, %r11d
	movl	%r11d, %esi
	movl	$1, %r11d
	movl	%r11d, %ecx
	movabsq	$.L.str.50, %r8
	xorl	%r11d, %r11d
	movl	%r11d, %r9d
	movabsq	$.L.str.5, %rax
	movl	-300(%rbp), %r11d       # 4-byte Reload
	movl	-132(%rbp), %ebx        # 4-byte Reload
	addl	%ebx, %r11d
	.loc	1 35 5                  # ss_sort.c:35:5
	movl	%r11d, %r14d
	movl	%r14d, %edx
	movq	%rax, (%rsp)
	movl	%r11d, -316(%rbp)       # 4-byte Spill
	callq	trace_logger_log_int
	movl	$35, %r11d
	movl	%r11d, %edi
	movabsq	$.L.str.47, %rsi
	movabsq	$.L.str.12, %rdx
	movabsq	$.L.str.53, %rcx
	movl	$32, %r11d
	movl	%r11d, %r8d
	xorl	%r9d, %r9d
	movl	$1, %r11d
	movl	$1, (%rsp)
	movl	%r11d, -320(%rbp)       # 4-byte Spill
	callq	trace_logger_log0
	movl	$2, %r9d
	movl	%r9d, %edi
	movl	$64, %r9d
	movl	%r9d, %esi
	movl	$1, %r9d
	movl	%r9d, %ecx
	movabsq	$.L.str.13, %r8
	xorl	%r9d, %r9d
                                        # kill: def %r9 killed %r9d
	movabsq	$.L.str.5, %rax
	movq	-144(%rbp), %rdx        # 8-byte Reload
	movq	%rax, (%rsp)
	callq	trace_logger_log_int
	movl	$1, %r11d
	movl	%r11d, %eax
	movl	$64, %r11d
	movl	%r11d, %esi
	movabsq	$.L.str.48, %r8
	xorl	%r11d, %r11d
	movl	%r11d, %r9d
	movabsq	$.L.str.5, %rcx
	movq	%rax, %rdi
	movq	-40(%rbp), %rdx         # 8-byte Reload
	movq	%rcx, -328(%rbp)        # 8-byte Spill
	movq	%rax, %rcx
	movq	-328(%rbp), %rax        # 8-byte Reload
	movq	%rax, (%rsp)
	callq	trace_logger_log_ptr
	movl	$19134, %r11d           # imm = 0x4ABE
	movl	%r11d, %edi
	movl	$64, %r11d
	movl	%r11d, %esi
	movl	$1, %r11d
	movl	%r11d, %ecx
	movabsq	$.L.str.53, %r8
	xorl	%r11d, %r11d
	movl	%r11d, %r9d
	movabsq	$.L.str.5, %rax
	movq	-144(%rbp), %rdx        # 8-byte Reload
	shlq	$2, %rdx
	movq	-40(%rbp), %r10         # 8-byte Reload
	addq	%rdx, %r10
	.loc	1 35 18                 # ss_sort.c:35:18
	movq	%r10, %rdx
	movq	%rax, (%rsp)
	movq	%r10, -336(%rbp)        # 8-byte Spill
	callq	trace_logger_log_ptr
	movl	$35, %r11d
	movl	%r11d, %edi
	movabsq	$.L.str.47, %rsi
	movabsq	$.L.str.12, %rdx
	movabsq	$.L.str.23, %rcx
	movl	$31, %r11d
	movl	%r11d, %r8d
	xorl	%r9d, %r9d
	movl	$1, %r11d
	movl	$1, (%rsp)
	movl	%r11d, -340(%rbp)       # 4-byte Spill
	callq	trace_logger_log0
	movl	$2, %r9d
	movl	%r9d, %edi
	movl	$64, %r9d
	movl	%r9d, %esi
	movl	$1, %r9d
	movl	%r9d, %ecx
	movabsq	$.L.str.53, %r8
	xorl	%r9d, %r9d
                                        # kill: def %r9 killed %r9d
	movabsq	$.L.str.5, %rax
	movq	-336(%rbp), %rdx        # 8-byte Reload
	movq	%rax, (%rsp)
	callq	trace_logger_log_ptr
	movl	$1, %r11d
	movl	%r11d, %eax
	movl	$32, %r11d
	movl	%r11d, %esi
	movabsq	$.L.str.50, %r8
	xorl	%r11d, %r11d
	movl	%r11d, %r9d
	movabsq	$.L.str.5, %rcx
	movl	-316(%rbp), %r11d       # 4-byte Reload
	movl	%r11d, %ebx
	movl	%ebx, %edx
	movq	%rax, %rdi
	movq	%rcx, -352(%rbp)        # 8-byte Spill
	movq	%rax, %rcx
	movq	-352(%rbp), %rax        # 8-byte Reload
	movq	%rax, (%rsp)
	callq	trace_logger_log_int
	movl	$34, %r11d
	movl	%r11d, %edi
	movabsq	$.L.str.47, %rsi
	movabsq	$.L.str.12, %rdx
	movabsq	$.L.str.14, %rcx
	movl	$11, %r11d
	movl	%r11d, %r8d
	xorl	%r9d, %r9d
	movl	$1, %r11d
	movq	-40(%rbp), %rax         # 8-byte Reload
	movq	-144(%rbp), %r10        # 8-byte Reload
	movl	-316(%rbp), %ebx        # 4-byte Reload
	movl	%ebx, (%rax,%r10,4)
	.loc	1 34 49 is_stmt 1       # ss_sort.c:34:49
	movl	$1, (%rsp)
	movl	%r11d, -356(%rbp)       # 4-byte Spill
	callq	trace_logger_log0
	movl	$2, %r9d
	movl	%r9d, %edi
	movl	$64, %r9d
	movl	%r9d, %esi
	movl	$1, %r9d
	movl	%r9d, %edx
	xorl	%r9d, %r9d
	movl	%r9d, %eax
	movabsq	$.L.str.15, %r8
	movabsq	$.L.str.5, %rcx
	movq	%rcx, -368(%rbp)        # 8-byte Spill
	movq	%rax, %rcx
	movq	%rax, %r9
	movq	-368(%rbp), %rax        # 8-byte Reload
	movq	%rax, (%rsp)
	callq	trace_logger_log_int
	movl	$1, %r11d
	movl	%r11d, %eax
	movl	$64, %r11d
	movl	%r11d, %esi
	movabsq	$.L.str.13, %r8
	xorl	%r11d, %r11d
	movl	%r11d, %r9d
	movabsq	$.L.str.5, %rcx
	movq	%rax, %rdi
	movq	-144(%rbp), %rdx        # 8-byte Reload
	movq	%rcx, -376(%rbp)        # 8-byte Spill
	movq	%rax, %rcx
	movq	-376(%rbp), %rax        # 8-byte Reload
	movq	%rax, (%rsp)
	callq	trace_logger_log_int
	movl	$19134, %r11d           # imm = 0x4ABE
	movl	%r11d, %edi
	movl	$64, %r11d
	movl	%r11d, %esi
	movl	$1, %r11d
	movl	%r11d, %ecx
	movabsq	$.L.str.14, %r8
	xorl	%r11d, %r11d
	movl	%r11d, %r9d
	movabsq	$.L.str.5, %rax
	movq	-144(%rbp), %rdx        # 8-byte Reload
	addq	$1, %rdx
	.loc	1 34 35 is_stmt 0       # ss_sort.c:34:35
	movq	%rdx, -384(%rbp)        # 8-byte Spill
	movq	%rax, (%rsp)
	callq	trace_logger_log_int
	movl	$34, %r11d
	movl	%r11d, %edi
	movabsq	$.L.str.47, %rsi
	movabsq	$.L.str.12, %rdx
	movabsq	$.L.str.22, %rcx
	movl	$51, %r11d
	movl	%r11d, %r8d
	xorl	%r9d, %r9d
	movl	$1, %r11d
	movl	$1, (%rsp)
	movl	%r11d, -388(%rbp)       # 4-byte Spill
	callq	trace_logger_log0
	movl	$2, %r9d
	movl	%r9d, %edi
	movl	$64, %r9d
	movl	%r9d, %esi
	movl	$128, %r9d
	movl	%r9d, %edx
	xorl	%r9d, %r9d
	movl	%r9d, %eax
	movabsq	$.L.str.15, %r8
	movabsq	$.L.str.5, %rcx
	movq	%rcx, -400(%rbp)        # 8-byte Spill
	movq	%rax, %rcx
	movq	%rax, %r9
	movq	-400(%rbp), %rax        # 8-byte Reload
	movq	%rax, (%rsp)
	callq	trace_logger_log_int
	movl	$1, %r11d
	movl	%r11d, %eax
	movl	$64, %r11d
	movl	%r11d, %esi
	movabsq	$.L.str.14, %r8
	xorl	%r11d, %r11d
	movl	%r11d, %r9d
	movabsq	$.L.str.5, %rcx
	movq	%rax, %rdi
	movq	-384(%rbp), %rdx        # 8-byte Reload
	movq	%rcx, -408(%rbp)        # 8-byte Spill
	movq	%rax, %rcx
	movq	-408(%rbp), %rax        # 8-byte Reload
	movq	%rax, (%rsp)
	callq	trace_logger_log_int
	movl	$19134, %r11d           # imm = 0x4ABE
	movl	%r11d, %edi
	movl	$1, %r11d
	movl	%r11d, %eax
	movabsq	$.L.str.22, %r8
	xorl	%r11d, %r11d
	movl	%r11d, %r9d
	movabsq	$.L.str.5, %rcx
	movq	-384(%rbp), %rdx        # 8-byte Reload
	cmpq	$128, %rdx
	sete	%r15b
.Ltmp25:
	.loc	1 34 9                  # ss_sort.c:34:9
	movb	%r15b, %r12b
	andb	$1, %r12b
	movzbl	%r12b, %r11d
	movl	%r11d, %edx
	movq	%rax, %rsi
	movq	%rcx, -416(%rbp)        # 8-byte Spill
	movq	%rax, %rcx
	movq	-416(%rbp), %rax        # 8-byte Reload
	movq	%rax, (%rsp)
	movb	%r15b, -417(%rbp)       # 1-byte Spill
	callq	trace_logger_log_int
	movl	$34, %r11d
	movl	%r11d, %edi
	movabsq	$.L.str.47, %rsi
	movabsq	$.L.str.12, %rdx
	movabsq	$.L.str.34, %rcx
	movl	$2, %r11d
	movl	%r11d, %r8d
	xorl	%r9d, %r9d
	movl	$1, %r11d
	movl	$1, (%rsp)
	movl	%r11d, -424(%rbp)       # 4-byte Spill
	callq	trace_logger_log0
	movl	$3, %r9d
	movl	%r9d, %edi
	xorl	%r9d, %r9d
	movl	%r9d, %eax
	movl	$1, %r9d
	movl	%r9d, %ecx
	movabsq	$.L.str.54, %r8
	movabsq	$.L.str.5, %rdx
	movq	%rax, %rsi
	movq	%rdx, -432(%rbp)        # 8-byte Spill
	movq	%rax, %rdx
	movq	%rax, %r9
	movq	-432(%rbp), %rax        # 8-byte Reload
	movq	%rax, (%rsp)
	callq	trace_logger_log_int
	movl	$2, %r11d
	movl	%r11d, %edi
	xorl	%r11d, %r11d
	movl	%r11d, %eax
	movl	$1, %r11d
	movl	%r11d, %ecx
	movabsq	$.L.str.12, %r8
	movabsq	$.L.str.5, %rdx
	movq	%rax, %rsi
	movq	%rdx, -440(%rbp)        # 8-byte Spill
	movq	%rax, %rdx
	movq	%rax, %r9
	movq	-440(%rbp), %rax        # 8-byte Reload
	movq	%rax, (%rsp)
	callq	trace_logger_log_int
	movl	$1, %r11d
	movl	%r11d, %eax
	movabsq	$.L.str.22, %r8
	xorl	%r11d, %r11d
	movl	%r11d, %r9d
	movabsq	$.L.str.5, %rcx
	movb	-417(%rbp), %r15b       # 1-byte Reload
	andb	$1, %r15b
	movzbl	%r15b, %r11d
	movl	%r11d, %edx
	movq	%rax, %rdi
	movq	%rax, %rsi
	movq	%rcx, -448(%rbp)        # 8-byte Spill
	movq	%rax, %rcx
	movq	-448(%rbp), %rax        # 8-byte Reload
	movq	%rax, (%rsp)
	callq	trace_logger_log_int
	movb	-417(%rbp), %r15b       # 1-byte Reload
	testb	$1, %r15b
	movl	-316(%rbp), %r11d       # 4-byte Reload
	movq	-384(%rbp), %rax        # 8-byte Reload
	movl	%r11d, -116(%rbp)       # 4-byte Spill
	movq	%rax, -128(%rbp)        # 8-byte Spill
	jne	.LBB2_2
	jmp	.LBB2_1
.Ltmp26:
.LBB2_2:
	#DEBUG_VALUE: sum_scan:radixID <- [DW_OP_constu 144, DW_OP_minus] [%rbp+0]
	#DEBUG_VALUE: sum_scan:bucket <- [DW_OP_constu 48, DW_OP_minus] [%rbp+0]
	#DEBUG_VALUE: sum_scan:sum <- [DW_OP_constu 40, DW_OP_minus] [%rbp+0]
	.loc	1 0 9                   # ss_sort.c:0:9
	movl	$36, %eax
	movl	%eax, %edi
	movabsq	$.L.str.47, %rsi
	movabsq	$.L.str.54, %rdx
	movabsq	$.L.str.55, %rcx
	movl	$1, %eax
	movl	%eax, %r8d
	xorl	%r9d, %r9d
	movl	$1, %eax
	.loc	1 36 1 is_stmt 1        # ss_sort.c:36:1
	movl	$1, (%rsp)
	movl	%eax, -452(%rbp)        # 4-byte Spill
	callq	trace_logger_log0
	movabsq	$.L.str.47, %rdi
	movl	$1, %eax
	movl	%eax, %esi
	xorl	%edx, %edx
	movl	$1, %ecx
	callq	trace_logger_update_status
	addq	$432, %rsp              # imm = 0x1B0
	popq	%rbx
	popq	%r12
	popq	%r14
	popq	%r15
	popq	%rbp
	retq
.Ltmp27:
.Lfunc_end2:
	.size	sum_scan, .Lfunc_end2-sum_scan
	.cfi_endproc
                                        # -- End function
	.globl	last_step_scan          # -- Begin function last_step_scan
	.p2align	4, 0x90
	.type	last_step_scan,@function
last_step_scan:                         # @last_step_scan
.Lfunc_begin3:
	.loc	1 39 0                  # ss_sort.c:39:0
	.cfi_startproc
# %bb.0:
	pushq	%rbp
	.cfi_def_cfa_offset 16
	.cfi_offset %rbp, -16
	movq	%rsp, %rbp
	.cfi_def_cfa_register %rbp
	pushq	%r15
	pushq	%r14
	pushq	%r12
	pushq	%rbx
	subq	$576, %rsp              # imm = 0x240
	.cfi_offset %rbx, -48
	.cfi_offset %r12, -40
	.cfi_offset %r14, -32
	.cfi_offset %r15, -24
	movl	$24601, %eax            # imm = 0x6019
	movl	%eax, %ecx
	movl	$64, %eax
	movl	%eax, %edx
	movl	$1, %eax
	movl	%eax, %r8d
	movabsq	$.L.str.31, %r9
	xorl	%eax, %eax
	movl	%eax, %r10d
	movabsq	$.L.str.5, %r11
.Ltmp28:
	.loc	1 38 25 prologue_end    # ss_sort.c:38:25
	movq	%rdi, -40(%rbp)         # 8-byte Spill
	movq	%rcx, %rdi
	movq	%rsi, -48(%rbp)         # 8-byte Spill
	movq	%rdx, %rsi
	movq	-40(%rbp), %rdx         # 8-byte Reload
	movq	%r8, %rcx
	movq	%r9, %r8
	movq	%r10, %r9
	movq	%r11, (%rsp)
	callq	trace_logger_log_ptr
	movl	$24601, %eax            # imm = 0x6019
	movl	%eax, %edi
	movl	$64, %eax
	movl	%eax, %esi
	movl	$1, %eax
	movl	%eax, %ecx
	movabsq	$.L.str.48, %r8
	xorl	%eax, %eax
	movl	%eax, %r9d
	movabsq	$.L.str.5, %rdx
	movq	-48(%rbp), %r10         # 8-byte Reload
	movq	%rdx, -56(%rbp)         # 8-byte Spill
	movq	%r10, %rdx
	movq	-56(%rbp), %r11         # 8-byte Reload
	movq	%r11, (%rsp)
	callq	trace_logger_log_ptr
	movl	$42, %eax
	movl	%eax, %edi
	movabsq	$.L.str.56, %rsi
	movabsq	$.L.str.2, %rdx
	movabsq	$.L.str.7, %rcx
	movl	$2, %eax
	movl	%eax, %r8d
	xorl	%r9d, %r9d
	movl	$1, %eax
	#DEBUG_VALUE: last_step_scan:bucket <- [DW_OP_constu 40, DW_OP_minus] [%rbp+0]
	#DEBUG_VALUE: last_step_scan:sum <- [DW_OP_constu 48, DW_OP_minus] [%rbp+0]
.Ltmp29:
	#DEBUG_VALUE: last_step_scan:radixID <- 0
	.loc	1 42 15                 # ss_sort.c:42:15
	movl	$1, (%rsp)
	movl	%eax, -60(%rbp)         # 4-byte Spill
	callq	trace_logger_log0
	movl	$1, %eax
	movl	%eax, %ecx
	xorl	%eax, %eax
	movl	%eax, %edx
	movabsq	$.L.str.12, %r8
	movabsq	$.L.str.5, %rsi
	movq	%rcx, %rdi
	movq	%rsi, -72(%rbp)         # 8-byte Spill
	movq	%rdx, %rsi
	movq	%rdx, -80(%rbp)         # 8-byte Spill
	movq	-80(%rbp), %r9          # 8-byte Reload
	movq	-72(%rbp), %r10         # 8-byte Reload
	movq	%r10, (%rsp)
	callq	trace_logger_log_int
	xorl	%eax, %eax
	movl	%eax, %ecx
	movq	%rcx, -88(%rbp)         # 8-byte Spill
.Ltmp30:
.LBB3_1:                                # =>This Loop Header: Depth=1
                                        #     Child Loop BB3_2 Depth 2
	#DEBUG_VALUE: last_step_scan:sum <- [DW_OP_constu 48, DW_OP_minus] [%rbp+0]
	#DEBUG_VALUE: last_step_scan:bucket <- [DW_OP_constu 40, DW_OP_minus] [%rbp+0]
	.loc	1 0 15 is_stmt 0        # ss_sort.c:0:15
	movq	-88(%rbp), %rax         # 8-byte Reload
	movq	$-1, %rdi
	movabsq	$.L.str.56, %rsi
	movabsq	$.L.str.12, %rdx
	movabsq	$.L.str.57, %rcx
	movl	$53, %r8d
                                        # kill: def %r8 killed %r8d
	xorl	%r9d, %r9d
	movl	$1, %r10d
	.loc	1 40 16 is_stmt 1       # ss_sort.c:40:16
	movl	$1, (%rsp)
	movq	%rax, -96(%rbp)         # 8-byte Spill
	movl	%r10d, -100(%rbp)       # 4-byte Spill
	callq	trace_logger_log0
	movl	$2, %r9d
	movl	%r9d, %edi
	movl	$64, %r9d
	movl	%r9d, %esi
	xorl	%r9d, %r9d
	movl	%r9d, %edx
	movl	$1, %r9d
	movl	%r9d, %eax
	movabsq	$.L.str.58, %r8
	movabsq	$.L.str.29, %rcx
	movq	%rcx, -112(%rbp)        # 8-byte Spill
	movq	%rax, %rcx
	movq	%rax, %r9
	movq	-112(%rbp), %rax        # 8-byte Reload
	movq	%rax, (%rsp)
	callq	trace_logger_log_int
	movl	$1, %r10d
	movl	%r10d, %eax
	movl	$64, %r10d
	movl	%r10d, %esi
	xorl	%r10d, %r10d
	movl	%r10d, %ecx
	movabsq	$.L.str.15, %r8
	movabsq	$.L.str.2, %rdx
	movq	%rax, %rdi
	movq	%rdx, -120(%rbp)        # 8-byte Spill
	movq	%rcx, %rdx
	movq	%rax, %r9
	movq	-120(%rbp), %rax        # 8-byte Reload
	movq	%rax, (%rsp)
	callq	trace_logger_log_int
	movl	$19134, %r10d           # imm = 0x4ABE
	movl	%r10d, %edi
	movl	$64, %r10d
	movl	%r10d, %esi
	movl	$1, %r10d
	movl	%r10d, %ecx
	movabsq	$.L.str.57, %r8
	xorl	%r10d, %r10d
	movl	%r10d, %r9d
	movabsq	$.L.str.2, %rax
	movq	-96(%rbp), %rdx         # 8-byte Reload
	movq	%rax, (%rsp)
	callq	trace_logger_log_int
	movq	$-1, %rdi
	movabsq	$.L.str.56, %rsi
	movabsq	$.L.str.12, %rdx
	movabsq	$.L.str.18, %rcx
	movl	$23, %r10d
	movl	%r10d, %r8d
	xorl	%r9d, %r9d
	movl	$1, %r10d
.Ltmp31:
	#DEBUG_VALUE: last_step_scan:i <- 0
	#DEBUG_VALUE: last_step_scan:radixID <- [DW_OP_constu 96, DW_OP_minus] [%rbp+0]
	.loc	1 0 16 is_stmt 0        # ss_sort.c:0:16
	movl	$1, (%rsp)
	movl	%r10d, -124(%rbp)       # 4-byte Spill
	callq	trace_logger_log0
	movl	$2, %r9d
	movl	%r9d, %edi
	movl	$64, %r9d
	movl	%r9d, %esi
	movl	$4, %r9d
	movl	%r9d, %edx
	xorl	%r9d, %r9d
	movl	%r9d, %eax
	movabsq	$.L.str.15, %r8
	movabsq	$.L.str.5, %rcx
	movq	%rcx, -136(%rbp)        # 8-byte Spill
	movq	%rax, %rcx
	movq	%rax, %r9
	movq	-136(%rbp), %rax        # 8-byte Reload
	movq	%rax, (%rsp)
	callq	trace_logger_log_int
	movl	$1, %r10d
	movl	%r10d, %eax
	movl	$64, %r10d
	movl	%r10d, %esi
	movabsq	$.L.str.57, %r8
	xorl	%r10d, %r10d
	movl	%r10d, %r9d
	movabsq	$.L.str.5, %rcx
	movq	%rax, %rdi
	movq	-96(%rbp), %rdx         # 8-byte Reload
	movq	%rcx, -144(%rbp)        # 8-byte Spill
	movq	%rax, %rcx
	movq	-144(%rbp), %rax        # 8-byte Reload
	movq	%rax, (%rsp)
	callq	trace_logger_log_int
	movl	$19134, %r10d           # imm = 0x4ABE
	movl	%r10d, %edi
	movl	$64, %r10d
	movl	%r10d, %esi
	movl	$1, %r10d
	movl	%r10d, %ecx
	movabsq	$.L.str.18, %r8
	xorl	%r10d, %r10d
	movl	%r10d, %r9d
	movabsq	$.L.str.5, %rax
	movq	-96(%rbp), %rdx         # 8-byte Reload
	shlq	$4, %rdx
	movq	%rdx, -152(%rbp)        # 8-byte Spill
	movq	%rax, (%rsp)
	callq	trace_logger_log_int
	movq	$-1, %rdi
	movabsq	$.L.str.56, %rsi
	movabsq	$.L.str.12, %rdx
	movabsq	$.L.str.59, %rcx
	movl	$32, %r10d
	movl	%r10d, %r8d
	xorl	%r9d, %r9d
	movl	$1, %r10d
	movl	$1, (%rsp)
	movl	%r10d, -156(%rbp)       # 4-byte Spill
	callq	trace_logger_log0
	movl	$2, %r9d
	movl	%r9d, %edi
	movl	$64, %r9d
	movl	%r9d, %esi
	movl	$1, %r9d
	movl	%r9d, %ecx
	movabsq	$.L.str.57, %r8
	xorl	%r9d, %r9d
                                        # kill: def %r9 killed %r9d
	movabsq	$.L.str.5, %rax
	movq	-96(%rbp), %rdx         # 8-byte Reload
	movq	%rax, (%rsp)
	callq	trace_logger_log_int
	movl	$1, %r10d
	movl	%r10d, %eax
	movl	$64, %r10d
	movl	%r10d, %esi
	movabsq	$.L.str.48, %r8
	xorl	%r10d, %r10d
	movl	%r10d, %r9d
	movabsq	$.L.str.5, %rcx
	movq	%rax, %rdi
	movq	-48(%rbp), %rdx         # 8-byte Reload
	movq	%rcx, -168(%rbp)        # 8-byte Spill
	movq	%rax, %rcx
	movq	-168(%rbp), %rax        # 8-byte Reload
	movq	%rax, (%rsp)
	callq	trace_logger_log_ptr
	movl	$19134, %r10d           # imm = 0x4ABE
	movl	%r10d, %edi
	movl	$64, %r10d
	movl	%r10d, %esi
	movl	$1, %r10d
	movl	%r10d, %ecx
	movabsq	$.L.str.59, %r8
	xorl	%r10d, %r10d
	movl	%r10d, %r9d
	movabsq	$.L.str.5, %rax
	movq	-96(%rbp), %rdx         # 8-byte Reload
	shlq	$2, %rdx
	movq	-48(%rbp), %r11         # 8-byte Reload
	addq	%rdx, %r11
.Ltmp32:
	.loc	1 44 17 is_stmt 1       # ss_sort.c:44:17
	movq	%r11, %rdx
	movq	%rax, (%rsp)
	movq	%r11, -176(%rbp)        # 8-byte Spill
	callq	trace_logger_log_ptr
	movl	$44, %r10d
	movl	%r10d, %edi
	movabsq	$.L.str.56, %rsi
	movabsq	$.L.str.12, %rdx
	movabsq	$.L.str.34, %rcx
	movl	$2, %r10d
	movl	%r10d, %r8d
	xorl	%r9d, %r9d
	movl	$1, %r10d
	movl	$1, (%rsp)
	movl	%r10d, -180(%rbp)       # 4-byte Spill
	callq	trace_logger_log0
	movl	$1, %r9d
	movl	%r9d, %eax
	xorl	%r9d, %r9d
	movl	%r9d, %ecx
	movabsq	$.L.str.60, %r8
	movabsq	$.L.str.5, %rdx
	movq	%rax, %rdi
	movq	%rcx, %rsi
	movq	%rdx, -192(%rbp)        # 8-byte Spill
	movq	%rcx, %rdx
	movq	%rcx, -200(%rbp)        # 8-byte Spill
	movq	%rax, %rcx
	movq	-200(%rbp), %r9         # 8-byte Reload
	movq	-192(%rbp), %rax        # 8-byte Reload
	movq	%rax, (%rsp)
	callq	trace_logger_log_int
	xorl	%r10d, %r10d
	movl	%r10d, %eax
	movq	%rax, -208(%rbp)        # 8-byte Spill
.Ltmp33:
.LBB3_2:                                #   Parent Loop BB3_1 Depth=1
                                        # =>  This Inner Loop Header: Depth=2
	#DEBUG_VALUE: last_step_scan:radixID <- [DW_OP_constu 96, DW_OP_minus] [%rbp+0]
	#DEBUG_VALUE: last_step_scan:sum <- [DW_OP_constu 48, DW_OP_minus] [%rbp+0]
	#DEBUG_VALUE: last_step_scan:bucket <- [DW_OP_constu 40, DW_OP_minus] [%rbp+0]
	.loc	1 0 17 is_stmt 0        # ss_sort.c:0:17
	movq	-208(%rbp), %rax        # 8-byte Reload
	movq	$-1, %rdi
	movabsq	$.L.str.56, %rsi
	movabsq	$.L.str.60, %rdx
	movabsq	$.L.str.13, %rcx
	movl	$53, %r8d
                                        # kill: def %r8 killed %r8d
	xorl	%r9d, %r9d
	movl	$1, %r10d
	.loc	1 40 16 is_stmt 1       # ss_sort.c:40:16
	movl	$1, (%rsp)
	movq	%rax, -216(%rbp)        # 8-byte Spill
	movl	%r10d, -220(%rbp)       # 4-byte Spill
	callq	trace_logger_log0
	movl	$2, %r9d
	movl	%r9d, %edi
	movl	$64, %r9d
	movl	%r9d, %esi
	xorl	%r9d, %r9d
	movl	%r9d, %edx
	movl	$1, %r9d
	movl	%r9d, %eax
	movabsq	$.L.str.14, %r8
	movabsq	$.L.str.60, %rcx
	movq	%rcx, -232(%rbp)        # 8-byte Spill
	movq	%rax, %rcx
	movq	%rax, %r9
	movq	-232(%rbp), %rax        # 8-byte Reload
	movq	%rax, (%rsp)
	callq	trace_logger_log_int
	movl	$1, %r10d
	movl	%r10d, %eax
	movl	$64, %r10d
	movl	%r10d, %esi
	xorl	%r10d, %r10d
	movl	%r10d, %ecx
	movabsq	$.L.str.15, %r8
	movabsq	$.L.str.12, %rdx
	movq	%rax, %rdi
	movq	%rdx, -240(%rbp)        # 8-byte Spill
	movq	%rcx, %rdx
	movq	%rax, %r9
	movq	-240(%rbp), %rax        # 8-byte Reload
	movq	%rax, (%rsp)
	callq	trace_logger_log_int
	movl	$19134, %r10d           # imm = 0x4ABE
	movl	%r10d, %edi
	movl	$64, %r10d
	movl	%r10d, %esi
	movl	$1, %r10d
	movl	%r10d, %ecx
	movabsq	$.L.str.13, %r8
	xorl	%r10d, %r10d
	movl	%r10d, %r9d
	movabsq	$.L.str.12, %rax
	movq	-216(%rbp), %rdx        # 8-byte Reload
	movq	%rax, (%rsp)
	callq	trace_logger_log_int
	movl	$47, %r10d
	movl	%r10d, %edi
	movabsq	$.L.str.56, %rsi
	movabsq	$.L.str.60, %rdx
	movabsq	$.L.str.52, %rcx
	movl	$11, %r10d
	movl	%r10d, %r8d
	xorl	%r9d, %r9d
	movl	$1, %r10d
.Ltmp34:
	#DEBUG_VALUE: last_step_scan:i <- [DW_OP_constu 216, DW_OP_minus] [%rbp+0]
	.loc	1 47 37                 # ss_sort.c:47:37
	movl	$1, (%rsp)
	movl	%r10d, -244(%rbp)       # 4-byte Spill
	callq	trace_logger_log0
	movl	$2, %r9d
	movl	%r9d, %edi
	movl	$64, %r9d
	movl	%r9d, %esi
	movl	$1, %r9d
	movl	%r9d, %ecx
	movabsq	$.L.str.18, %r8
	xorl	%r9d, %r9d
                                        # kill: def %r9 killed %r9d
	movabsq	$.L.str.5, %rax
	movq	-152(%rbp), %rdx        # 8-byte Reload
	movq	%rax, (%rsp)
	callq	trace_logger_log_int
	movl	$1, %r10d
	movl	%r10d, %eax
	movl	$64, %r10d
	movl	%r10d, %esi
	movabsq	$.L.str.13, %r8
	xorl	%r10d, %r10d
	movl	%r10d, %r9d
	movabsq	$.L.str.5, %rcx
	movq	%rax, %rdi
	movq	-216(%rbp), %rdx        # 8-byte Reload
	movq	%rcx, -256(%rbp)        # 8-byte Spill
	movq	%rax, %rcx
	movq	-256(%rbp), %rax        # 8-byte Reload
	movq	%rax, (%rsp)
	callq	trace_logger_log_int
	movl	$19134, %r10d           # imm = 0x4ABE
	movl	%r10d, %edi
	movl	$64, %r10d
	movl	%r10d, %esi
	movl	$1, %r10d
	movl	%r10d, %ecx
	movabsq	$.L.str.52, %r8
	xorl	%r10d, %r10d
	movl	%r10d, %r9d
	movabsq	$.L.str.5, %rax
	movq	-216(%rbp), %rdx        # 8-byte Reload
	movq	-152(%rbp), %r11        # 8-byte Reload
	addq	%r11, %rdx
	.loc	1 47 9 is_stmt 0        # ss_sort.c:47:9
	movq	%rdx, -264(%rbp)        # 8-byte Spill
	movq	%rax, (%rsp)
	callq	trace_logger_log_int
	movl	$47, %r10d
	movl	%r10d, %edi
	movabsq	$.L.str.56, %rsi
	movabsq	$.L.str.60, %rdx
	movabsq	$.L.str.16, %rcx
	movl	$32, %r10d
	movl	%r10d, %r8d
	xorl	%r9d, %r9d
	movl	$1, %r10d
	movl	$1, (%rsp)
	movl	%r10d, -268(%rbp)       # 4-byte Spill
	callq	trace_logger_log0
	movl	$2, %r9d
	movl	%r9d, %edi
	movl	$64, %r9d
	movl	%r9d, %esi
	movl	$1, %r9d
	movl	%r9d, %ecx
	movabsq	$.L.str.52, %r8
	xorl	%r9d, %r9d
                                        # kill: def %r9 killed %r9d
	movabsq	$.L.str.5, %rax
	movq	-264(%rbp), %rdx        # 8-byte Reload
	movq	%rax, (%rsp)
	callq	trace_logger_log_int
	movl	$1, %r10d
	movl	%r10d, %eax
	movl	$64, %r10d
	movl	%r10d, %esi
	movabsq	$.L.str.31, %r8
	xorl	%r10d, %r10d
	movl	%r10d, %r9d
	movabsq	$.L.str.5, %rcx
	movq	%rax, %rdi
	movq	-40(%rbp), %rdx         # 8-byte Reload
	movq	%rcx, -280(%rbp)        # 8-byte Spill
	movq	%rax, %rcx
	movq	-280(%rbp), %rax        # 8-byte Reload
	movq	%rax, (%rsp)
	callq	trace_logger_log_ptr
	movl	$19134, %r10d           # imm = 0x4ABE
	movl	%r10d, %edi
	movl	$64, %r10d
	movl	%r10d, %esi
	movl	$1, %r10d
	movl	%r10d, %ecx
	movabsq	$.L.str.16, %r8
	xorl	%r10d, %r10d
	movl	%r10d, %r9d
	movabsq	$.L.str.5, %rax
	movq	-264(%rbp), %rdx        # 8-byte Reload
	shlq	$2, %rdx
	movq	-40(%rbp), %r11         # 8-byte Reload
	addq	%rdx, %r11
	movq	%r11, %rdx
	movq	%rax, (%rsp)
	movq	%r11, -288(%rbp)        # 8-byte Spill
	callq	trace_logger_log_ptr
	movl	$47, %r10d
	movl	%r10d, %edi
	movabsq	$.L.str.56, %rsi
	movabsq	$.L.str.60, %rdx
	movabsq	$.L.str.38, %rcx
	movl	$30, %r10d
	movl	%r10d, %r8d
	xorl	%r9d, %r9d
	movl	$1, %r10d
	movl	$1, (%rsp)
	movl	%r10d, -292(%rbp)       # 4-byte Spill
	callq	trace_logger_log0
	movl	$1, %r9d
	movl	%r9d, %eax
	movl	$64, %r9d
	movl	%r9d, %esi
	movabsq	$.L.str.16, %r8
	xorl	%r9d, %r9d
                                        # kill: def %r9 killed %r9d
	movabsq	$.L.str.5, %rcx
	movq	%rax, %rdi
	movq	-288(%rbp), %rdx        # 8-byte Reload
	movq	%rcx, -304(%rbp)        # 8-byte Spill
	movq	%rax, %rcx
	movq	-304(%rbp), %rax        # 8-byte Reload
	movq	%rax, (%rsp)
	callq	trace_logger_log_ptr
	movl	$19134, %r10d           # imm = 0x4ABE
	movl	%r10d, %edi
	movl	$32, %r10d
	movl	%r10d, %esi
	movl	$1, %r10d
	movl	%r10d, %ecx
	movabsq	$.L.str.38, %r8
	xorl	%r10d, %r10d
	movl	%r10d, %r9d
	movabsq	$.L.str.5, %rax
	movq	-40(%rbp), %rdx         # 8-byte Reload
	movq	-264(%rbp), %r11        # 8-byte Reload
	movl	(%rdx,%r11,4), %r10d
	.loc	1 47 45                 # ss_sort.c:47:45
	movl	%r10d, %ebx
	movl	%ebx, %edx
	movq	%rax, (%rsp)
	movl	%r10d, -308(%rbp)       # 4-byte Spill
	callq	trace_logger_log_int
	movl	$47, %r10d
	movl	%r10d, %edi
	movabsq	$.L.str.56, %rsi
	movabsq	$.L.str.60, %rdx
	movabsq	$.L.str.40, %rcx
	movl	$30, %r10d
	movl	%r10d, %r8d
	xorl	%r9d, %r9d
	movl	$1, %r10d
	movl	$1, (%rsp)
	movl	%r10d, -312(%rbp)       # 4-byte Spill
	callq	trace_logger_log0
	movl	$1, %r9d
	movl	%r9d, %eax
	movl	$64, %r9d
	movl	%r9d, %esi
	movabsq	$.L.str.59, %r8
	xorl	%r9d, %r9d
                                        # kill: def %r9 killed %r9d
	movabsq	$.L.str.5, %rcx
	movq	%rax, %rdi
	movq	-176(%rbp), %rdx        # 8-byte Reload
	movq	%rcx, -320(%rbp)        # 8-byte Spill
	movq	%rax, %rcx
	movq	-320(%rbp), %rax        # 8-byte Reload
	movq	%rax, (%rsp)
	callq	trace_logger_log_ptr
	movl	$19134, %r10d           # imm = 0x4ABE
	movl	%r10d, %edi
	movl	$32, %r10d
	movl	%r10d, %esi
	movl	$1, %r10d
	movl	%r10d, %ecx
	movabsq	$.L.str.40, %r8
	xorl	%r10d, %r10d
	movl	%r10d, %r9d
	movabsq	$.L.str.5, %rax
	movq	-176(%rbp), %rdx        # 8-byte Reload
	movl	(%rdx), %r10d
	.loc	1 47 43                 # ss_sort.c:47:43
	movl	%r10d, %ebx
	movl	%ebx, %edx
	movq	%rax, (%rsp)
	movl	%r10d, -324(%rbp)       # 4-byte Spill
	callq	trace_logger_log_int
	movl	$47, %r10d
	movl	%r10d, %edi
	movabsq	$.L.str.56, %rsi
	movabsq	$.L.str.60, %rdx
	movabsq	$.L.str.61, %rcx
	movl	$11, %r10d
	movl	%r10d, %r8d
	xorl	%r9d, %r9d
	movl	$1, %r10d
	movl	$1, (%rsp)
	movl	%r10d, -328(%rbp)       # 4-byte Spill
	callq	trace_logger_log0
	movl	$2, %r9d
	movl	%r9d, %edi
	movl	$32, %r9d
	movl	%r9d, %esi
	movl	$1, %r9d
	movl	%r9d, %ecx
	movabsq	$.L.str.38, %r8
	xorl	%r9d, %r9d
                                        # kill: def %r9 killed %r9d
	movabsq	$.L.str.5, %rax
	movl	-308(%rbp), %r10d       # 4-byte Reload
	movl	%r10d, %ebx
	movl	%ebx, %edx
	movq	%rax, (%rsp)
	callq	trace_logger_log_int
	movl	$1, %r10d
	movl	%r10d, %eax
	movl	$32, %r10d
	movl	%r10d, %esi
	movabsq	$.L.str.40, %r8
	xorl	%r10d, %r10d
	movl	%r10d, %r9d
	movabsq	$.L.str.5, %rcx
	movl	-324(%rbp), %r10d       # 4-byte Reload
	movl	%r10d, %ebx
	movl	%ebx, %edx
	movq	%rax, %rdi
	movq	%rcx, -336(%rbp)        # 8-byte Spill
	movq	%rax, %rcx
	movq	-336(%rbp), %rax        # 8-byte Reload
	movq	%rax, (%rsp)
	callq	trace_logger_log_int
	movl	$19134, %r10d           # imm = 0x4ABE
	movl	%r10d, %edi
	movl	$32, %r10d
	movl	%r10d, %esi
	movl	$1, %r10d
	movl	%r10d, %ecx
	movabsq	$.L.str.61, %r8
	xorl	%r10d, %r10d
	movl	%r10d, %r9d
	movabsq	$.L.str.5, %rax
	movl	-324(%rbp), %r10d       # 4-byte Reload
	movl	-308(%rbp), %ebx        # 4-byte Reload
	addl	%ebx, %r10d
	.loc	1 46 40 is_stmt 1       # ss_sort.c:46:40
	movl	%r10d, %r14d
	movl	%r14d, %edx
	movq	%rax, (%rsp)
	movl	%r10d, -340(%rbp)       # 4-byte Spill
	callq	trace_logger_log_int
	movl	$46, %r10d
	movl	%r10d, %edi
	movabsq	$.L.str.56, %rsi
	movabsq	$.L.str.60, %rdx
	movabsq	$.L.str.62, %rcx
	movl	$31, %r10d
	movl	%r10d, %r8d
	xorl	%r9d, %r9d
	movl	$1, %r10d
	movl	$1, (%rsp)
	movl	%r10d, -344(%rbp)       # 4-byte Spill
	callq	trace_logger_log0
	movl	$2, %r9d
	movl	%r9d, %edi
	movl	$64, %r9d
	movl	%r9d, %esi
	movl	$1, %r9d
	movl	%r9d, %ecx
	movabsq	$.L.str.16, %r8
	xorl	%r9d, %r9d
                                        # kill: def %r9 killed %r9d
	movabsq	$.L.str.5, %rax
	movq	-288(%rbp), %rdx        # 8-byte Reload
	movq	%rax, (%rsp)
	callq	trace_logger_log_ptr
	movl	$1, %r10d
	movl	%r10d, %eax
	movl	$32, %r10d
	movl	%r10d, %esi
	movabsq	$.L.str.61, %r8
	xorl	%r10d, %r10d
	movl	%r10d, %r9d
	movabsq	$.L.str.5, %rcx
	movl	-340(%rbp), %r10d       # 4-byte Reload
	movl	%r10d, %ebx
	movl	%ebx, %edx
	movq	%rax, %rdi
	movq	%rcx, -352(%rbp)        # 8-byte Spill
	movq	%rax, %rcx
	movq	-352(%rbp), %rax        # 8-byte Reload
	movq	%rax, (%rsp)
	callq	trace_logger_log_int
	movl	$44, %r10d
	movl	%r10d, %edi
	movabsq	$.L.str.56, %rsi
	movabsq	$.L.str.60, %rdx
	movabsq	$.L.str.14, %rcx
	movl	$11, %r10d
	movl	%r10d, %r8d
	xorl	%r9d, %r9d
	movl	$1, %r10d
	movq	-40(%rbp), %rax         # 8-byte Reload
	movq	-264(%rbp), %r11        # 8-byte Reload
	movl	-340(%rbp), %ebx        # 4-byte Reload
	movl	%ebx, (%rax,%r11,4)
.Ltmp35:
	.loc	1 44 45                 # ss_sort.c:44:45
	movl	$1, (%rsp)
	movl	%r10d, -356(%rbp)       # 4-byte Spill
	callq	trace_logger_log0
	movl	$2, %r9d
	movl	%r9d, %edi
	movl	$64, %r9d
	movl	%r9d, %esi
	movl	$1, %r9d
	movl	%r9d, %edx
	xorl	%r9d, %r9d
	movl	%r9d, %eax
	movabsq	$.L.str.15, %r8
	movabsq	$.L.str.5, %rcx
	movq	%rcx, -368(%rbp)        # 8-byte Spill
	movq	%rax, %rcx
	movq	%rax, %r9
	movq	-368(%rbp), %rax        # 8-byte Reload
	movq	%rax, (%rsp)
	callq	trace_logger_log_int
	movl	$1, %r10d
	movl	%r10d, %eax
	movl	$64, %r10d
	movl	%r10d, %esi
	movabsq	$.L.str.13, %r8
	xorl	%r10d, %r10d
	movl	%r10d, %r9d
	movabsq	$.L.str.5, %rcx
	movq	%rax, %rdi
	movq	-216(%rbp), %rdx        # 8-byte Reload
	movq	%rcx, -376(%rbp)        # 8-byte Spill
	movq	%rax, %rcx
	movq	-376(%rbp), %rax        # 8-byte Reload
	movq	%rax, (%rsp)
	callq	trace_logger_log_int
	movl	$19134, %r10d           # imm = 0x4ABE
	movl	%r10d, %edi
	movl	$64, %r10d
	movl	%r10d, %esi
	movl	$1, %r10d
	movl	%r10d, %ecx
	movabsq	$.L.str.14, %r8
	xorl	%r10d, %r10d
	movl	%r10d, %r9d
	movabsq	$.L.str.5, %rax
	movq	-216(%rbp), %rdx        # 8-byte Reload
	addq	$1, %rdx
	.loc	1 44 31 is_stmt 0       # ss_sort.c:44:31
	movq	%rdx, -384(%rbp)        # 8-byte Spill
	movq	%rax, (%rsp)
	callq	trace_logger_log_int
	movl	$44, %r10d
	movl	%r10d, %edi
	movabsq	$.L.str.56, %rsi
	movabsq	$.L.str.60, %rdx
	movabsq	$.L.str.22, %rcx
	movl	$51, %r10d
	movl	%r10d, %r8d
	xorl	%r9d, %r9d
	movl	$1, %r10d
	movl	$1, (%rsp)
	movl	%r10d, -388(%rbp)       # 4-byte Spill
	callq	trace_logger_log0
	movl	$2, %r9d
	movl	%r9d, %edi
	movl	$64, %r9d
	movl	%r9d, %esi
	movl	$16, %r9d
	movl	%r9d, %edx
	xorl	%r9d, %r9d
	movl	%r9d, %eax
	movabsq	$.L.str.15, %r8
	movabsq	$.L.str.5, %rcx
	movq	%rcx, -400(%rbp)        # 8-byte Spill
	movq	%rax, %rcx
	movq	%rax, %r9
	movq	-400(%rbp), %rax        # 8-byte Reload
	movq	%rax, (%rsp)
	callq	trace_logger_log_int
	movl	$1, %r10d
	movl	%r10d, %eax
	movl	$64, %r10d
	movl	%r10d, %esi
	movabsq	$.L.str.14, %r8
	xorl	%r10d, %r10d
	movl	%r10d, %r9d
	movabsq	$.L.str.5, %rcx
	movq	%rax, %rdi
	movq	-384(%rbp), %rdx        # 8-byte Reload
	movq	%rcx, -408(%rbp)        # 8-byte Spill
	movq	%rax, %rcx
	movq	-408(%rbp), %rax        # 8-byte Reload
	movq	%rax, (%rsp)
	callq	trace_logger_log_int
	movl	$19134, %r10d           # imm = 0x4ABE
	movl	%r10d, %edi
	movl	$1, %r10d
	movl	%r10d, %eax
	movabsq	$.L.str.22, %r8
	xorl	%r10d, %r10d
	movl	%r10d, %r9d
	movabsq	$.L.str.5, %rcx
	movq	-384(%rbp), %rdx        # 8-byte Reload
	cmpq	$16, %rdx
	sete	%r15b
.Ltmp36:
	.loc	1 44 17                 # ss_sort.c:44:17
	movb	%r15b, %r12b
	andb	$1, %r12b
	movzbl	%r12b, %r10d
	movl	%r10d, %edx
	movq	%rax, %rsi
	movq	%rcx, -416(%rbp)        # 8-byte Spill
	movq	%rax, %rcx
	movq	-416(%rbp), %rax        # 8-byte Reload
	movq	%rax, (%rsp)
	movb	%r15b, -417(%rbp)       # 1-byte Spill
	callq	trace_logger_log_int
	movl	$44, %r10d
	movl	%r10d, %edi
	movabsq	$.L.str.56, %rsi
	movabsq	$.L.str.60, %rdx
	movabsq	$.L.str.63, %rcx
	movl	$2, %r10d
	movl	%r10d, %r8d
	xorl	%r9d, %r9d
	movl	$1, %r10d
	movl	$1, (%rsp)
	movl	%r10d, -424(%rbp)       # 4-byte Spill
	callq	trace_logger_log0
	movl	$3, %r9d
	movl	%r9d, %edi
	xorl	%r9d, %r9d
	movl	%r9d, %eax
	movl	$1, %r9d
	movl	%r9d, %ecx
	movabsq	$.L.str.29, %r8
	movabsq	$.L.str.5, %rdx
	movq	%rax, %rsi
	movq	%rdx, -432(%rbp)        # 8-byte Spill
	movq	%rax, %rdx
	movq	%rax, %r9
	movq	-432(%rbp), %rax        # 8-byte Reload
	movq	%rax, (%rsp)
	callq	trace_logger_log_int
	movl	$2, %r10d
	movl	%r10d, %edi
	xorl	%r10d, %r10d
	movl	%r10d, %eax
	movl	$1, %r10d
	movl	%r10d, %ecx
	movabsq	$.L.str.60, %r8
	movabsq	$.L.str.5, %rdx
	movq	%rax, %rsi
	movq	%rdx, -440(%rbp)        # 8-byte Spill
	movq	%rax, %rdx
	movq	%rax, %r9
	movq	-440(%rbp), %rax        # 8-byte Reload
	movq	%rax, (%rsp)
	callq	trace_logger_log_int
	movl	$1, %r10d
	movl	%r10d, %eax
	movabsq	$.L.str.22, %r8
	xorl	%r10d, %r10d
	movl	%r10d, %r9d
	movabsq	$.L.str.5, %rcx
	movb	-417(%rbp), %r15b       # 1-byte Reload
	andb	$1, %r15b
	movzbl	%r15b, %r10d
	movl	%r10d, %edx
	movq	%rax, %rdi
	movq	%rax, %rsi
	movq	%rcx, -448(%rbp)        # 8-byte Spill
	movq	%rax, %rcx
	movq	-448(%rbp), %rax        # 8-byte Reload
	movq	%rax, (%rsp)
	callq	trace_logger_log_int
	movb	-417(%rbp), %r15b       # 1-byte Reload
	testb	$1, %r15b
	movq	-384(%rbp), %rax        # 8-byte Reload
	movq	%rax, -208(%rbp)        # 8-byte Spill
	jne	.LBB3_3
	jmp	.LBB3_2
.Ltmp37:
.LBB3_3:                                #   in Loop: Header=BB3_1 Depth=1
	#DEBUG_VALUE: last_step_scan:i <- [DW_OP_constu 216, DW_OP_minus] [%rbp+0]
	#DEBUG_VALUE: last_step_scan:radixID <- [DW_OP_constu 96, DW_OP_minus] [%rbp+0]
	#DEBUG_VALUE: last_step_scan:sum <- [DW_OP_constu 48, DW_OP_minus] [%rbp+0]
	#DEBUG_VALUE: last_step_scan:bucket <- [DW_OP_constu 40, DW_OP_minus] [%rbp+0]
	.loc	1 0 17                  # ss_sort.c:0:17
	movl	$42, %eax
	movl	%eax, %edi
	movabsq	$.L.str.56, %rsi
	movabsq	$.L.str.29, %rdx
	movabsq	$.L.str.58, %rcx
	movl	$11, %eax
	movl	%eax, %r8d
	xorl	%r9d, %r9d
	movl	$1, %eax
	.loc	1 42 55 is_stmt 1       # ss_sort.c:42:55
	movl	$1, (%rsp)
	movl	%eax, -452(%rbp)        # 4-byte Spill
	callq	trace_logger_log0
	movl	$2, %eax
	movl	%eax, %edi
	movl	$64, %eax
	movl	%eax, %esi
	movl	$1, %eax
	movl	%eax, %edx
	xorl	%eax, %eax
	movl	%eax, %ecx
	movabsq	$.L.str.15, %r8
	movabsq	$.L.str.5, %r10
	movq	%rcx, -464(%rbp)        # 8-byte Spill
	movq	-464(%rbp), %r9         # 8-byte Reload
	movq	%r10, (%rsp)
	callq	trace_logger_log_int
	movl	$1, %eax
	movl	%eax, %ecx
	movl	$64, %eax
	movl	%eax, %esi
	movabsq	$.L.str.57, %r8
	xorl	%eax, %eax
	movl	%eax, %r9d
	movabsq	$.L.str.5, %rdx
	movq	%rcx, %rdi
	movq	-96(%rbp), %r10         # 8-byte Reload
	movq	%rdx, -472(%rbp)        # 8-byte Spill
	movq	%r10, %rdx
	movq	-472(%rbp), %r11        # 8-byte Reload
	movq	%r11, (%rsp)
	callq	trace_logger_log_int
	movl	$19134, %eax            # imm = 0x4ABE
	movl	%eax, %edi
	movl	$64, %eax
	movl	%eax, %esi
	movl	$1, %eax
	movl	%eax, %ecx
	movabsq	$.L.str.58, %r8
	xorl	%eax, %eax
	movl	%eax, %r9d
	movabsq	$.L.str.5, %rdx
	movq	-96(%rbp), %r10         # 8-byte Reload
	addq	$1, %r10
	.loc	1 42 41 is_stmt 0       # ss_sort.c:42:41
	movq	%rdx, -480(%rbp)        # 8-byte Spill
	movq	%r10, %rdx
	movq	-480(%rbp), %r11        # 8-byte Reload
	movq	%r11, (%rsp)
	movq	%r10, -488(%rbp)        # 8-byte Spill
	callq	trace_logger_log_int
	movl	$42, %eax
	movl	%eax, %edi
	movabsq	$.L.str.56, %rsi
	movabsq	$.L.str.29, %rdx
	movabsq	$.L.str.64, %rcx
	movl	$51, %eax
	movl	%eax, %r8d
	xorl	%r9d, %r9d
	movl	$1, %eax
	movl	$1, (%rsp)
	movl	%eax, -492(%rbp)        # 4-byte Spill
	callq	trace_logger_log0
	movl	$2, %eax
	movl	%eax, %edi
	movl	$64, %eax
	movl	%eax, %esi
	movl	$128, %eax
	movl	%eax, %edx
	xorl	%eax, %eax
	movl	%eax, %ecx
	movabsq	$.L.str.15, %r8
	movabsq	$.L.str.5, %r10
	movq	%rcx, -504(%rbp)        # 8-byte Spill
	movq	-504(%rbp), %r9         # 8-byte Reload
	movq	%r10, (%rsp)
	callq	trace_logger_log_int
	movl	$1, %eax
	movl	%eax, %ecx
	movl	$64, %eax
	movl	%eax, %esi
	movabsq	$.L.str.58, %r8
	xorl	%eax, %eax
	movl	%eax, %r9d
	movabsq	$.L.str.5, %rdx
	movq	%rcx, %rdi
	movq	-488(%rbp), %r10        # 8-byte Reload
	movq	%rdx, -512(%rbp)        # 8-byte Spill
	movq	%r10, %rdx
	movq	-512(%rbp), %r11        # 8-byte Reload
	movq	%r11, (%rsp)
	callq	trace_logger_log_int
	movl	$19134, %eax            # imm = 0x4ABE
	movl	%eax, %edi
	movl	$1, %eax
	movl	%eax, %ecx
	movabsq	$.L.str.64, %r8
	xorl	%eax, %eax
	movl	%eax, %r9d
	movabsq	$.L.str.5, %rdx
	movq	-488(%rbp), %rsi        # 8-byte Reload
	cmpq	$128, %rsi
	sete	%bl
.Ltmp38:
	.loc	1 42 15                 # ss_sort.c:42:15
	movb	%bl, %r14b
	andb	$1, %r14b
	movzbl	%r14b, %eax
	movl	%eax, %r10d
	movq	%rcx, %rsi
	movq	%rdx, -520(%rbp)        # 8-byte Spill
	movq	%r10, %rdx
	movq	-520(%rbp), %r10        # 8-byte Reload
	movq	%r10, (%rsp)
	movb	%bl, -521(%rbp)         # 1-byte Spill
	callq	trace_logger_log_int
	movl	$42, %eax
	movl	%eax, %edi
	movabsq	$.L.str.56, %rsi
	movabsq	$.L.str.29, %rdx
	movabsq	$.L.str.44, %rcx
	movl	$2, %eax
	movl	%eax, %r8d
	xorl	%r9d, %r9d
	movl	$1, %eax
	movl	$1, (%rsp)
	movl	%eax, -528(%rbp)        # 4-byte Spill
	callq	trace_logger_log0
	movl	$3, %eax
	movl	%eax, %edi
	xorl	%eax, %eax
	movl	%eax, %ecx
	movl	$1, %eax
	movl	%eax, %edx
	movabsq	$.L.str.45, %r8
	movabsq	$.L.str.5, %rsi
	movq	%rsi, -536(%rbp)        # 8-byte Spill
	movq	%rcx, %rsi
	movq	%rdx, -544(%rbp)        # 8-byte Spill
	movq	%rcx, %rdx
	movq	-544(%rbp), %r10        # 8-byte Reload
	movq	%rcx, -552(%rbp)        # 8-byte Spill
	movq	%r10, %rcx
	movq	-552(%rbp), %r9         # 8-byte Reload
	movq	-536(%rbp), %r11        # 8-byte Reload
	movq	%r11, (%rsp)
	callq	trace_logger_log_int
	movl	$2, %eax
	movl	%eax, %edi
	xorl	%eax, %eax
	movl	%eax, %ecx
	movl	$1, %eax
	movl	%eax, %edx
	movabsq	$.L.str.12, %r8
	movabsq	$.L.str.5, %rsi
	movq	%rsi, -560(%rbp)        # 8-byte Spill
	movq	%rcx, %rsi
	movq	%rdx, -568(%rbp)        # 8-byte Spill
	movq	%rcx, %rdx
	movq	-568(%rbp), %r9         # 8-byte Reload
	movq	%rcx, -576(%rbp)        # 8-byte Spill
	movq	%r9, %rcx
	movq	-576(%rbp), %r9         # 8-byte Reload
	movq	-560(%rbp), %r10        # 8-byte Reload
	movq	%r10, (%rsp)
	callq	trace_logger_log_int
	movl	$1, %eax
	movl	%eax, %ecx
	movabsq	$.L.str.64, %r8
	xorl	%eax, %eax
	movl	%eax, %r9d
	movabsq	$.L.str.5, %rdx
	movb	-521(%rbp), %bl         # 1-byte Reload
	andb	$1, %bl
	movzbl	%bl, %eax
	movl	%eax, %esi
	movq	%rcx, %rdi
	movq	%rsi, -584(%rbp)        # 8-byte Spill
	movq	%rcx, %rsi
	movq	-584(%rbp), %r10        # 8-byte Reload
	movq	%rdx, -592(%rbp)        # 8-byte Spill
	movq	%r10, %rdx
	movq	-592(%rbp), %r11        # 8-byte Reload
	movq	%r11, (%rsp)
	callq	trace_logger_log_int
	movb	-521(%rbp), %bl         # 1-byte Reload
	testb	$1, %bl
	movq	-488(%rbp), %rcx        # 8-byte Reload
	movq	%rcx, -88(%rbp)         # 8-byte Spill
	jne	.LBB3_4
	jmp	.LBB3_1
.Ltmp39:
.LBB3_4:
	#DEBUG_VALUE: last_step_scan:i <- [DW_OP_constu 216, DW_OP_minus] [%rbp+0]
	#DEBUG_VALUE: last_step_scan:radixID <- [DW_OP_constu 96, DW_OP_minus] [%rbp+0]
	#DEBUG_VALUE: last_step_scan:sum <- [DW_OP_constu 48, DW_OP_minus] [%rbp+0]
	#DEBUG_VALUE: last_step_scan:bucket <- [DW_OP_constu 40, DW_OP_minus] [%rbp+0]
	.loc	1 0 15                  # ss_sort.c:0:15
	movl	$50, %eax
	movl	%eax, %edi
	movabsq	$.L.str.56, %rsi
	movabsq	$.L.str.45, %rdx
	movabsq	$.L.str.46, %rcx
	movl	$1, %eax
	movl	%eax, %r8d
	xorl	%r9d, %r9d
	movl	$1, %eax
	.loc	1 50 1 is_stmt 1        # ss_sort.c:50:1
	movl	$1, (%rsp)
	movl	%eax, -596(%rbp)        # 4-byte Spill
	callq	trace_logger_log0
	movabsq	$.L.str.56, %rdi
	movl	$1, %eax
	movl	%eax, %esi
	xorl	%edx, %edx
	movl	$1, %ecx
	callq	trace_logger_update_status
	addq	$576, %rsp              # imm = 0x240
	popq	%rbx
	popq	%r12
	popq	%r14
	popq	%r15
	popq	%rbp
	retq
.Ltmp40:
.Lfunc_end3:
	.size	last_step_scan, .Lfunc_end3-last_step_scan
	.cfi_endproc
                                        # -- End function
	.globl	init                    # -- Begin function init
	.p2align	4, 0x90
	.type	init,@function
init:                                   # @init
.Lfunc_begin4:
	.loc	1 53 0                  # ss_sort.c:53:0
	.cfi_startproc
# %bb.0:
	pushq	%rbp
	.cfi_def_cfa_offset 16
	.cfi_offset %rbp, -16
	movq	%rsp, %rbp
	.cfi_def_cfa_register %rbp
	pushq	%r14
	pushq	%rbx
	subq	$240, %rsp
	.cfi_offset %rbx, -32
	.cfi_offset %r14, -24
	movl	$24601, %eax            # imm = 0x6019
	movl	%eax, %ecx
	movl	$64, %eax
	movl	%eax, %esi
	movl	$1, %eax
	movl	%eax, %edx
	movabsq	$.L.str.31, %r8
	xorl	%eax, %eax
	movl	%eax, %r9d
	movabsq	$.L.str.5, %r10
.Ltmp41:
	.loc	1 52 15 prologue_end    # ss_sort.c:52:15
	movq	%rdi, -24(%rbp)         # 8-byte Spill
	movq	%rcx, %rdi
	movq	-24(%rbp), %rcx         # 8-byte Reload
	movq	%rdx, -32(%rbp)         # 8-byte Spill
	movq	%rcx, %rdx
	movq	-32(%rbp), %rcx         # 8-byte Reload
	movq	%r10, (%rsp)
	callq	trace_logger_log_ptr
	movl	$56, %eax
	movl	%eax, %edi
	movabsq	$.L.str.65, %rsi
	movabsq	$.L.str.2, %rdx
	movabsq	$.L.str.26, %rcx
	movl	$2, %eax
	movl	%eax, %r8d
	xorl	%r9d, %r9d
	movl	$1, %eax
	#DEBUG_VALUE: init:bucket <- [DW_OP_constu 24, DW_OP_minus] [%rbp+0]
.Ltmp42:
	#DEBUG_VALUE: init:radixID <- 0
	.loc	1 56 15                 # ss_sort.c:56:15
	movl	$1, (%rsp)
	movl	%eax, -36(%rbp)         # 4-byte Spill
	callq	trace_logger_log0
	movl	$1, %eax
	movl	%eax, %ecx
	xorl	%eax, %eax
	movl	%eax, %edx
	movabsq	$.L.str.12, %r8
	movabsq	$.L.str.5, %rsi
	movq	%rcx, %rdi
	movq	%rsi, -48(%rbp)         # 8-byte Spill
	movq	%rdx, %rsi
	movq	%rdx, -56(%rbp)         # 8-byte Spill
	movq	-56(%rbp), %r9          # 8-byte Reload
	movq	-48(%rbp), %r10         # 8-byte Reload
	movq	%r10, (%rsp)
	callq	trace_logger_log_int
	xorl	%eax, %eax
	movl	%eax, %ecx
	movq	%rcx, -64(%rbp)         # 8-byte Spill
.Ltmp43:
.LBB4_1:                                # =>This Inner Loop Header: Depth=1
	#DEBUG_VALUE: init:bucket <- [DW_OP_constu 24, DW_OP_minus] [%rbp+0]
	.loc	1 0 15 is_stmt 0        # ss_sort.c:0:15
	movq	-64(%rbp), %rax         # 8-byte Reload
	movq	$-1, %rdi
	movabsq	$.L.str.65, %rsi
	movabsq	$.L.str.12, %rdx
	movabsq	$.L.str.13, %rcx
	movl	$53, %r8d
                                        # kill: def %r8 killed %r8d
	xorl	%r9d, %r9d
	movl	$1, %r10d
	.loc	1 54 7 is_stmt 1        # ss_sort.c:54:7
	movl	$1, (%rsp)
	movq	%rax, -72(%rbp)         # 8-byte Spill
	movl	%r10d, -76(%rbp)        # 4-byte Spill
	callq	trace_logger_log0
	movl	$2, %r9d
	movl	%r9d, %edi
	movl	$64, %r9d
	movl	%r9d, %esi
	xorl	%r9d, %r9d
	movl	%r9d, %edx
	movl	$1, %r9d
	movl	%r9d, %eax
	movabsq	$.L.str.14, %r8
	movabsq	$.L.str.12, %rcx
	movq	%rcx, -88(%rbp)         # 8-byte Spill
	movq	%rax, %rcx
	movq	%rax, %r9
	movq	-88(%rbp), %rax         # 8-byte Reload
	movq	%rax, (%rsp)
	callq	trace_logger_log_int
	movl	$1, %r10d
	movl	%r10d, %eax
	movl	$64, %r10d
	movl	%r10d, %esi
	xorl	%r10d, %r10d
	movl	%r10d, %ecx
	movabsq	$.L.str.15, %r8
	movabsq	$.L.str.2, %rdx
	movq	%rax, %rdi
	movq	%rdx, -96(%rbp)         # 8-byte Spill
	movq	%rcx, %rdx
	movq	%rax, %r9
	movq	-96(%rbp), %rax         # 8-byte Reload
	movq	%rax, (%rsp)
	callq	trace_logger_log_int
	movl	$19134, %r10d           # imm = 0x4ABE
	movl	%r10d, %edi
	movl	$64, %r10d
	movl	%r10d, %esi
	movl	$1, %r10d
	movl	%r10d, %ecx
	movabsq	$.L.str.13, %r8
	xorl	%r10d, %r10d
	movl	%r10d, %r9d
	movabsq	$.L.str.2, %rax
	movq	-72(%rbp), %rdx         # 8-byte Reload
	movq	%rax, (%rsp)
	callq	trace_logger_log_int
	movl	$57, %r10d
	movl	%r10d, %edi
	movabsq	$.L.str.65, %rsi
	movabsq	$.L.str.12, %rdx
	movabsq	$.L.str.16, %rcx
	movl	$32, %r10d
	movl	%r10d, %r8d
	xorl	%r9d, %r9d
	movl	$1, %r10d
.Ltmp44:
	#DEBUG_VALUE: init:radixID <- [DW_OP_constu 72, DW_OP_minus] [%rbp+0]
	.loc	1 57 7                  # ss_sort.c:57:7
	movl	$1, (%rsp)
	movl	%r10d, -100(%rbp)       # 4-byte Spill
	callq	trace_logger_log0
	movl	$2, %r9d
	movl	%r9d, %edi
	movl	$64, %r9d
	movl	%r9d, %esi
	movl	$1, %r9d
	movl	%r9d, %ecx
	movabsq	$.L.str.13, %r8
	xorl	%r9d, %r9d
                                        # kill: def %r9 killed %r9d
	movabsq	$.L.str.5, %rax
	movq	-72(%rbp), %rdx         # 8-byte Reload
	movq	%rax, (%rsp)
	callq	trace_logger_log_int
	movl	$1, %r10d
	movl	%r10d, %eax
	movl	$64, %r10d
	movl	%r10d, %esi
	movabsq	$.L.str.31, %r8
	xorl	%r10d, %r10d
	movl	%r10d, %r9d
	movabsq	$.L.str.5, %rcx
	movq	%rax, %rdi
	movq	-24(%rbp), %rdx         # 8-byte Reload
	movq	%rcx, -112(%rbp)        # 8-byte Spill
	movq	%rax, %rcx
	movq	-112(%rbp), %rax        # 8-byte Reload
	movq	%rax, (%rsp)
	callq	trace_logger_log_ptr
	movl	$19134, %r10d           # imm = 0x4ABE
	movl	%r10d, %edi
	movl	$64, %r10d
	movl	%r10d, %esi
	movl	$1, %r10d
	movl	%r10d, %ecx
	movabsq	$.L.str.16, %r8
	xorl	%r10d, %r10d
	movl	%r10d, %r9d
	movabsq	$.L.str.5, %rax
	movq	-72(%rbp), %rdx         # 8-byte Reload
	shlq	$2, %rdx
	movq	-24(%rbp), %r11         # 8-byte Reload
	addq	%rdx, %r11
	.loc	1 57 23 is_stmt 0       # ss_sort.c:57:23
	movq	%r11, %rdx
	movq	%rax, (%rsp)
	movq	%r11, -120(%rbp)        # 8-byte Spill
	callq	trace_logger_log_ptr
	movl	$57, %r10d
	movl	%r10d, %edi
	movabsq	$.L.str.65, %rsi
	movabsq	$.L.str.12, %rdx
	movabsq	$.L.str.23, %rcx
	movl	$31, %r10d
	movl	%r10d, %r8d
	xorl	%r9d, %r9d
	movl	$1, %r10d
	movl	$1, (%rsp)
	movl	%r10d, -124(%rbp)       # 4-byte Spill
	callq	trace_logger_log0
	movl	$2, %r9d
	movl	%r9d, %edi
	movl	$64, %r9d
	movl	%r9d, %esi
	movl	$1, %r9d
	movl	%r9d, %ecx
	movabsq	$.L.str.16, %r8
	xorl	%r9d, %r9d
                                        # kill: def %r9 killed %r9d
	movabsq	$.L.str.5, %rax
	movq	-120(%rbp), %rdx        # 8-byte Reload
	movq	%rax, (%rsp)
	callq	trace_logger_log_ptr
	movl	$1, %r10d
	movl	%r10d, %eax
	movl	$32, %r10d
	movl	%r10d, %esi
	xorl	%r10d, %r10d
	movl	%r10d, %ecx
	movabsq	$.L.str.66, %r8
	movabsq	$.L.str.5, %rdx
	movq	%rax, %rdi
	movq	%rdx, -136(%rbp)        # 8-byte Spill
	movq	%rcx, %rdx
	movq	%rcx, -144(%rbp)        # 8-byte Spill
	movq	%rax, %rcx
	movq	-144(%rbp), %r9         # 8-byte Reload
	movq	-136(%rbp), %rax        # 8-byte Reload
	movq	%rax, (%rsp)
	callq	trace_logger_log_int
	movl	$56, %r10d
	movl	%r10d, %edi
	movabsq	$.L.str.65, %rsi
	movabsq	$.L.str.12, %rdx
	movabsq	$.L.str.14, %rcx
	movl	$11, %r10d
	movl	%r10d, %r8d
	xorl	%r9d, %r9d
	movl	$1, %r10d
	movq	-24(%rbp), %rax         # 8-byte Reload
	movq	-72(%rbp), %r11         # 8-byte Reload
	movl	$0, (%rax,%r11,4)
	.loc	1 56 55 is_stmt 1       # ss_sort.c:56:55
	movl	$1, (%rsp)
	movl	%r10d, -148(%rbp)       # 4-byte Spill
	callq	trace_logger_log0
	movl	$2, %r9d
	movl	%r9d, %edi
	movl	$64, %r9d
	movl	%r9d, %esi
	movl	$1, %r9d
	movl	%r9d, %edx
	xorl	%r9d, %r9d
	movl	%r9d, %eax
	movabsq	$.L.str.15, %r8
	movabsq	$.L.str.5, %rcx
	movq	%rcx, -160(%rbp)        # 8-byte Spill
	movq	%rax, %rcx
	movq	%rax, %r9
	movq	-160(%rbp), %rax        # 8-byte Reload
	movq	%rax, (%rsp)
	callq	trace_logger_log_int
	movl	$1, %r10d
	movl	%r10d, %eax
	movl	$64, %r10d
	movl	%r10d, %esi
	movabsq	$.L.str.13, %r8
	xorl	%r10d, %r10d
	movl	%r10d, %r9d
	movabsq	$.L.str.5, %rcx
	movq	%rax, %rdi
	movq	-72(%rbp), %rdx         # 8-byte Reload
	movq	%rcx, -168(%rbp)        # 8-byte Spill
	movq	%rax, %rcx
	movq	-168(%rbp), %rax        # 8-byte Reload
	movq	%rax, (%rsp)
	callq	trace_logger_log_int
	movl	$19134, %r10d           # imm = 0x4ABE
	movl	%r10d, %edi
	movl	$64, %r10d
	movl	%r10d, %esi
	movl	$1, %r10d
	movl	%r10d, %ecx
	movabsq	$.L.str.14, %r8
	xorl	%r10d, %r10d
	movl	%r10d, %r9d
	movabsq	$.L.str.5, %rax
	movq	-72(%rbp), %rdx         # 8-byte Reload
	addq	$1, %rdx
	.loc	1 56 41 is_stmt 0       # ss_sort.c:56:41
	movq	%rdx, -176(%rbp)        # 8-byte Spill
	movq	%rax, (%rsp)
	callq	trace_logger_log_int
	movl	$56, %r10d
	movl	%r10d, %edi
	movabsq	$.L.str.65, %rsi
	movabsq	$.L.str.12, %rdx
	movabsq	$.L.str.22, %rcx
	movl	$51, %r10d
	movl	%r10d, %r8d
	xorl	%r9d, %r9d
	movl	$1, %r10d
	movl	$1, (%rsp)
	movl	%r10d, -180(%rbp)       # 4-byte Spill
	callq	trace_logger_log0
	movl	$2, %r9d
	movl	%r9d, %edi
	movl	$64, %r9d
	movl	%r9d, %esi
	movl	$2048, %r9d             # imm = 0x800
	movl	%r9d, %edx
	xorl	%r9d, %r9d
	movl	%r9d, %eax
	movabsq	$.L.str.15, %r8
	movabsq	$.L.str.5, %rcx
	movq	%rcx, -192(%rbp)        # 8-byte Spill
	movq	%rax, %rcx
	movq	%rax, %r9
	movq	-192(%rbp), %rax        # 8-byte Reload
	movq	%rax, (%rsp)
	callq	trace_logger_log_int
	movl	$1, %r10d
	movl	%r10d, %eax
	movl	$64, %r10d
	movl	%r10d, %esi
	movabsq	$.L.str.14, %r8
	xorl	%r10d, %r10d
	movl	%r10d, %r9d
	movabsq	$.L.str.5, %rcx
	movq	%rax, %rdi
	movq	-176(%rbp), %rdx        # 8-byte Reload
	movq	%rcx, -200(%rbp)        # 8-byte Spill
	movq	%rax, %rcx
	movq	-200(%rbp), %rax        # 8-byte Reload
	movq	%rax, (%rsp)
	callq	trace_logger_log_int
	movl	$19134, %r10d           # imm = 0x4ABE
	movl	%r10d, %edi
	movl	$1, %r10d
	movl	%r10d, %eax
	movabsq	$.L.str.22, %r8
	xorl	%r10d, %r10d
	movl	%r10d, %r9d
	movabsq	$.L.str.5, %rcx
	movq	-176(%rbp), %rdx        # 8-byte Reload
	cmpq	$2048, %rdx             # imm = 0x800
	sete	%bl
.Ltmp45:
	.loc	1 56 15                 # ss_sort.c:56:15
	movb	%bl, %r14b
	andb	$1, %r14b
	movzbl	%r14b, %r10d
	movl	%r10d, %edx
	movq	%rax, %rsi
	movq	%rcx, -208(%rbp)        # 8-byte Spill
	movq	%rax, %rcx
	movq	-208(%rbp), %rax        # 8-byte Reload
	movq	%rax, (%rsp)
	movb	%bl, -209(%rbp)         # 1-byte Spill
	callq	trace_logger_log_int
	movl	$56, %r10d
	movl	%r10d, %edi
	movabsq	$.L.str.65, %rsi
	movabsq	$.L.str.12, %rdx
	movabsq	$.L.str.34, %rcx
	movl	$2, %r10d
	movl	%r10d, %r8d
	xorl	%r9d, %r9d
	movl	$1, %r10d
	movl	$1, (%rsp)
	movl	%r10d, -216(%rbp)       # 4-byte Spill
	callq	trace_logger_log0
	movl	$3, %r9d
	movl	%r9d, %edi
	xorl	%r9d, %r9d
	movl	%r9d, %eax
	movl	$1, %r9d
	movl	%r9d, %ecx
	movabsq	$.L.str.67, %r8
	movabsq	$.L.str.5, %rdx
	movq	%rax, %rsi
	movq	%rdx, -224(%rbp)        # 8-byte Spill
	movq	%rax, %rdx
	movq	%rax, %r9
	movq	-224(%rbp), %rax        # 8-byte Reload
	movq	%rax, (%rsp)
	callq	trace_logger_log_int
	movl	$2, %r10d
	movl	%r10d, %edi
	xorl	%r10d, %r10d
	movl	%r10d, %eax
	movl	$1, %r10d
	movl	%r10d, %ecx
	movabsq	$.L.str.12, %r8
	movabsq	$.L.str.5, %rdx
	movq	%rax, %rsi
	movq	%rdx, -232(%rbp)        # 8-byte Spill
	movq	%rax, %rdx
	movq	%rax, %r9
	movq	-232(%rbp), %rax        # 8-byte Reload
	movq	%rax, (%rsp)
	callq	trace_logger_log_int
	movl	$1, %r10d
	movl	%r10d, %eax
	movabsq	$.L.str.22, %r8
	xorl	%r10d, %r10d
	movl	%r10d, %r9d
	movabsq	$.L.str.5, %rcx
	movb	-209(%rbp), %bl         # 1-byte Reload
	andb	$1, %bl
	movzbl	%bl, %r10d
	movl	%r10d, %edx
	movq	%rax, %rdi
	movq	%rax, %rsi
	movq	%rcx, -240(%rbp)        # 8-byte Spill
	movq	%rax, %rcx
	movq	-240(%rbp), %rax        # 8-byte Reload
	movq	%rax, (%rsp)
	callq	trace_logger_log_int
	movb	-209(%rbp), %bl         # 1-byte Reload
	testb	$1, %bl
	movq	-176(%rbp), %rax        # 8-byte Reload
	movq	%rax, -64(%rbp)         # 8-byte Spill
	jne	.LBB4_2
	jmp	.LBB4_1
.Ltmp46:
.LBB4_2:
	#DEBUG_VALUE: init:radixID <- [DW_OP_constu 72, DW_OP_minus] [%rbp+0]
	#DEBUG_VALUE: init:bucket <- [DW_OP_constu 24, DW_OP_minus] [%rbp+0]
	.loc	1 0 15                  # ss_sort.c:0:15
	movl	$58, %eax
	movl	%eax, %edi
	movabsq	$.L.str.65, %rsi
	movabsq	$.L.str.67, %rdx
	movabsq	$.L.str.68, %rcx
	movl	$1, %eax
	movl	%eax, %r8d
	xorl	%r9d, %r9d
	movl	$1, %eax
	.loc	1 58 1 is_stmt 1        # ss_sort.c:58:1
	movl	$1, (%rsp)
	movl	%eax, -244(%rbp)        # 4-byte Spill
	callq	trace_logger_log0
	movabsq	$.L.str.65, %rdi
	movl	$1, %eax
	movl	%eax, %esi
	xorl	%edx, %edx
	movl	$1, %ecx
	callq	trace_logger_update_status
	addq	$240, %rsp
	popq	%rbx
	popq	%r14
	popq	%rbp
	retq
.Ltmp47:
.Lfunc_end4:
	.size	init, .Lfunc_end4-init
	.cfi_endproc
                                        # -- End function
	.globl	hist                    # -- Begin function hist
	.p2align	4, 0x90
	.type	hist,@function
hist:                                   # @hist
.Lfunc_begin5:
	.loc	1 62 0                  # ss_sort.c:62:0
	.cfi_startproc
# %bb.0:
	pushq	%rbp
	.cfi_def_cfa_offset 16
	.cfi_offset %rbp, -16
	movq	%rsp, %rbp
	.cfi_def_cfa_register %rbp
	pushq	%r15
	pushq	%r14
	pushq	%r12
	pushq	%rbx
	subq	$736, %rsp              # imm = 0x2E0
	.cfi_offset %rbx, -48
	.cfi_offset %r12, -40
	.cfi_offset %r14, -32
	.cfi_offset %r15, -24
	movl	$24601, %eax            # imm = 0x6019
	movl	%eax, %ecx
	movl	$64, %eax
	movl	%eax, %r8d
	movl	$1, %eax
	movl	%eax, %r9d
	movabsq	$.L.str.31, %r10
	xorl	%eax, %eax
	movl	%eax, %r11d
	movabsq	$.L.str.5, %rbx
.Ltmp48:
	.loc	1 61 15 prologue_end    # ss_sort.c:61:15
	movq	%rdi, -40(%rbp)         # 8-byte Spill
	movq	%rcx, %rdi
	movq	%rsi, -48(%rbp)         # 8-byte Spill
	movq	%r8, %rsi
	movq	-40(%rbp), %rcx         # 8-byte Reload
	movl	%edx, -52(%rbp)         # 4-byte Spill
	movq	%rcx, %rdx
	movq	%r9, %rcx
	movq	%r10, %r8
	movq	%r11, %r9
	movq	%rbx, (%rsp)
	callq	trace_logger_log_ptr
	movl	$24601, %eax            # imm = 0x6019
	movl	%eax, %edi
	movl	$64, %eax
	movl	%eax, %esi
	movl	$1, %eax
	movl	%eax, %ecx
	movabsq	$.L.str.17, %r8
	xorl	%eax, %eax
	movl	%eax, %r9d
	movabsq	$.L.str.5, %rdx
	movq	-48(%rbp), %r10         # 8-byte Reload
	movq	%rdx, -64(%rbp)         # 8-byte Spill
	movq	%r10, %rdx
	movq	-64(%rbp), %r11         # 8-byte Reload
	movq	%r11, (%rsp)
	callq	trace_logger_log_ptr
	movl	$24601, %eax            # imm = 0x6019
	movl	%eax, %edi
	movl	$32, %eax
	movl	%eax, %esi
	movl	$1, %eax
	movl	%eax, %ecx
	movabsq	$.L.str.75, %r8
	xorl	%eax, %eax
	movl	%eax, %r9d
	movabsq	$.L.str.5, %rdx
	movl	-52(%rbp), %eax         # 4-byte Reload
	movl	%eax, %r14d
	movl	%r14d, %r10d
	movq	%rdx, -72(%rbp)         # 8-byte Spill
	movq	%r10, %rdx
	movq	-72(%rbp), %r10         # 8-byte Reload
	movq	%r10, (%rsp)
	callq	trace_logger_log_int
	movl	$65, %eax
	movl	%eax, %edi
	movabsq	$.L.str.69, %rsi
	movabsq	$.L.str.2, %rdx
	movabsq	$.L.str.70, %rcx
	movl	$2, %eax
	movl	%eax, %r8d
	xorl	%r9d, %r9d
	movl	$1, %eax
	#DEBUG_VALUE: hist:bucket <- [DW_OP_constu 40, DW_OP_minus] [%rbp+0]
	#DEBUG_VALUE: hist:a <- [DW_OP_constu 48, DW_OP_minus] [%rbp+0]
	#DEBUG_VALUE: hist:exp <- [DW_OP_constu 52, DW_OP_minus] [%rbp+0]
.Ltmp49:
	#DEBUG_VALUE: hist:blockID <- 0
	#DEBUG_VALUE: hist:maskID <- 0
	#DEBUG_VALUE: hist:blockID <- 0
	.loc	1 65 9                  # ss_sort.c:65:9
	movl	$1, (%rsp)
	movl	%eax, -76(%rbp)         # 4-byte Spill
	callq	trace_logger_log0
	movl	$1, %eax
	movl	%eax, %ecx
	xorl	%eax, %eax
	movl	%eax, %edx
	movabsq	$.L.str.12, %r8
	movabsq	$.L.str.5, %rsi
	movq	%rcx, %rdi
	movq	%rsi, -88(%rbp)         # 8-byte Spill
	movq	%rdx, %rsi
	movq	%rdx, -96(%rbp)         # 8-byte Spill
	movq	-96(%rbp), %r9          # 8-byte Reload
	movq	-88(%rbp), %r10         # 8-byte Reload
	movq	%r10, (%rsp)
	callq	trace_logger_log_int
	xorl	%eax, %eax
	movl	%eax, %ecx
	movq	%rcx, -104(%rbp)        # 8-byte Spill
.Ltmp50:
.LBB5_1:                                # =>This Loop Header: Depth=1
                                        #     Child Loop BB5_2 Depth 2
	#DEBUG_VALUE: hist:exp <- [DW_OP_constu 52, DW_OP_minus] [%rbp+0]
	#DEBUG_VALUE: hist:a <- [DW_OP_constu 48, DW_OP_minus] [%rbp+0]
	#DEBUG_VALUE: hist:bucket <- [DW_OP_constu 40, DW_OP_minus] [%rbp+0]
	.loc	1 0 9 is_stmt 0         # ss_sort.c:0:9
	movq	-104(%rbp), %rax        # 8-byte Reload
	movq	$-1, %rdi
	movabsq	$.L.str.69, %rsi
	movabsq	$.L.str.12, %rdx
	movabsq	$.L.str.71, %rcx
	movl	$53, %r8d
                                        # kill: def %r8 killed %r8d
	xorl	%r9d, %r9d
	movl	$1, %r10d
	.loc	1 63 20 is_stmt 1       # ss_sort.c:63:20
	movl	$1, (%rsp)
	movq	%rax, -112(%rbp)        # 8-byte Spill
	movl	%r10d, -116(%rbp)       # 4-byte Spill
	callq	trace_logger_log0
	movl	$2, %r9d
	movl	%r9d, %edi
	movl	$64, %r9d
	movl	%r9d, %esi
	xorl	%r9d, %r9d
	movl	%r9d, %edx
	movl	$1, %r9d
	movl	%r9d, %eax
	movabsq	$.L.str.72, %r8
	movabsq	$.L.str.73, %rcx
	movq	%rcx, -128(%rbp)        # 8-byte Spill
	movq	%rax, %rcx
	movq	%rax, %r9
	movq	-128(%rbp), %rax        # 8-byte Reload
	movq	%rax, (%rsp)
	callq	trace_logger_log_int
	movl	$1, %r10d
	movl	%r10d, %eax
	movl	$64, %r10d
	movl	%r10d, %esi
	xorl	%r10d, %r10d
	movl	%r10d, %ecx
	movabsq	$.L.str.15, %r8
	movabsq	$.L.str.2, %rdx
	movq	%rax, %rdi
	movq	%rdx, -136(%rbp)        # 8-byte Spill
	movq	%rcx, %rdx
	movq	%rax, %r9
	movq	-136(%rbp), %rax        # 8-byte Reload
	movq	%rax, (%rsp)
	callq	trace_logger_log_int
	movl	$19134, %r10d           # imm = 0x4ABE
	movl	%r10d, %edi
	movl	$64, %r10d
	movl	%r10d, %esi
	movl	$1, %r10d
	movl	%r10d, %ecx
	movabsq	$.L.str.71, %r8
	xorl	%r10d, %r10d
	movl	%r10d, %r9d
	movabsq	$.L.str.2, %rax
	movq	-112(%rbp), %rdx        # 8-byte Reload
	movq	%rax, (%rsp)
	callq	trace_logger_log_int
	movq	$-1, %rdi
	movabsq	$.L.str.69, %rsi
	movabsq	$.L.str.12, %rdx
	movabsq	$.L.str.18, %rcx
	movl	$23, %r10d
	movl	%r10d, %r8d
	xorl	%r9d, %r9d
	movl	$1, %r10d
	#DEBUG_VALUE: hist:maskID <- 0
.Ltmp51:
	#DEBUG_VALUE: hist:blockID <- [DW_OP_constu 112, DW_OP_minus] [%rbp+0]
	.loc	1 0 20 is_stmt 0        # ss_sort.c:0:20
	movl	$1, (%rsp)
	movl	%r10d, -140(%rbp)       # 4-byte Spill
	callq	trace_logger_log0
	movl	$2, %r9d
	movl	%r9d, %eax
	movl	$64, %r9d
	movl	%r9d, %esi
	xorl	%r9d, %r9d
	movl	%r9d, %ecx
	movabsq	$.L.str.15, %r8
	movabsq	$.L.str.5, %rdx
	movq	%rax, %rdi
	movq	%rdx, -152(%rbp)        # 8-byte Spill
	movq	%rax, %rdx
	movq	%rcx, -160(%rbp)        # 8-byte Spill
	movq	-160(%rbp), %r9         # 8-byte Reload
	movq	-152(%rbp), %rax        # 8-byte Reload
	movq	%rax, (%rsp)
	callq	trace_logger_log_int
	movl	$1, %r10d
	movl	%r10d, %eax
	movl	$64, %r10d
	movl	%r10d, %esi
	movabsq	$.L.str.71, %r8
	xorl	%r10d, %r10d
	movl	%r10d, %r9d
	movabsq	$.L.str.5, %rcx
	movq	%rax, %rdi
	movq	-112(%rbp), %rdx        # 8-byte Reload
	movq	%rcx, -168(%rbp)        # 8-byte Spill
	movq	%rax, %rcx
	movq	-168(%rbp), %rax        # 8-byte Reload
	movq	%rax, (%rsp)
	callq	trace_logger_log_int
	movl	$19134, %r10d           # imm = 0x4ABE
	movl	%r10d, %edi
	movl	$64, %r10d
	movl	%r10d, %esi
	movl	$1, %r10d
	movl	%r10d, %ecx
	movabsq	$.L.str.18, %r8
	xorl	%r10d, %r10d
	movl	%r10d, %r9d
	movabsq	$.L.str.5, %rax
	movq	-112(%rbp), %rdx        # 8-byte Reload
	shlq	$2, %rdx
.Ltmp52:
	.loc	1 65 57 is_stmt 1       # ss_sort.c:65:57
	movq	%rdx, -176(%rbp)        # 8-byte Spill
	movq	%rax, (%rsp)
	callq	trace_logger_log_int
	movl	$65, %r10d
	movl	%r10d, %edi
	movabsq	$.L.str.69, %rsi
	movabsq	$.L.str.12, %rdx
	movabsq	$.L.str.72, %rcx
	movl	$11, %r10d
	movl	%r10d, %r8d
	xorl	%r9d, %r9d
	movl	$1, %r10d
	movl	$1, (%rsp)
	movl	%r10d, -180(%rbp)       # 4-byte Spill
	callq	trace_logger_log0
	movl	$2, %r9d
	movl	%r9d, %edi
	movl	$64, %r9d
	movl	%r9d, %esi
	movl	$1, %r9d
	movl	%r9d, %edx
	xorl	%r9d, %r9d
	movl	%r9d, %eax
	movabsq	$.L.str.15, %r8
	movabsq	$.L.str.5, %rcx
	movq	%rcx, -192(%rbp)        # 8-byte Spill
	movq	%rax, %rcx
	movq	%rax, %r9
	movq	-192(%rbp), %rax        # 8-byte Reload
	movq	%rax, (%rsp)
	callq	trace_logger_log_int
	movl	$1, %r10d
	movl	%r10d, %eax
	movl	$64, %r10d
	movl	%r10d, %esi
	movabsq	$.L.str.71, %r8
	xorl	%r10d, %r10d
	movl	%r10d, %r9d
	movabsq	$.L.str.5, %rcx
	movq	%rax, %rdi
	movq	-112(%rbp), %rdx        # 8-byte Reload
	movq	%rcx, -200(%rbp)        # 8-byte Spill
	movq	%rax, %rcx
	movq	-200(%rbp), %rax        # 8-byte Reload
	movq	%rax, (%rsp)
	callq	trace_logger_log_int
	movl	$19134, %r10d           # imm = 0x4ABE
	movl	%r10d, %edi
	movl	$64, %r10d
	movl	%r10d, %esi
	movl	$1, %r10d
	movl	%r10d, %ecx
	movabsq	$.L.str.72, %r8
	xorl	%r10d, %r10d
	movl	%r10d, %r9d
	movabsq	$.L.str.5, %rax
	movq	-112(%rbp), %rdx        # 8-byte Reload
	addq	$1, %rdx
	movq	%rdx, -208(%rbp)        # 8-byte Spill
	movq	%rax, (%rsp)
	callq	trace_logger_log_int
	movq	$-1, %rdi
	movabsq	$.L.str.69, %rsi
	movabsq	$.L.str.12, %rdx
	movabsq	$.L.str.32, %rcx
	movl	$36, %r10d
	movl	%r10d, %r8d
	xorl	%r9d, %r9d
	movl	$1, %r10d
	movl	$1, (%rsp)
	movl	%r10d, -212(%rbp)       # 4-byte Spill
	callq	trace_logger_log0
	movl	$1, %r9d
	movl	%r9d, %eax
	movl	$64, %r9d
	movl	%r9d, %esi
	movabsq	$.L.str.72, %r8
	xorl	%r9d, %r9d
                                        # kill: def %r9 killed %r9d
	movabsq	$.L.str.5, %rcx
	movq	%rax, %rdi
	movq	-208(%rbp), %rdx        # 8-byte Reload
	movq	%rcx, -224(%rbp)        # 8-byte Spill
	movq	%rax, %rcx
	movq	-224(%rbp), %rax        # 8-byte Reload
	movq	%rax, (%rsp)
	callq	trace_logger_log_int
	movl	$19134, %r10d           # imm = 0x4ABE
	movl	%r10d, %edi
	movl	$32, %r10d
	movl	%r10d, %esi
	movl	$1, %r10d
	movl	%r10d, %ecx
	movabsq	$.L.str.32, %r8
	xorl	%r10d, %r10d
	movl	%r10d, %r9d
	movabsq	$.L.str.5, %rax
	movq	-208(%rbp), %rdx        # 8-byte Reload
	movl	%edx, %r10d
.Ltmp53:
	.loc	1 67 12                 # ss_sort.c:67:12
	movl	%r10d, %r11d
	movl	%r11d, %edx
	movq	%rax, (%rsp)
	movl	%r10d, -228(%rbp)       # 4-byte Spill
	callq	trace_logger_log_int
	movl	$67, %r10d
	movl	%r10d, %edi
	movabsq	$.L.str.69, %rsi
	movabsq	$.L.str.12, %rdx
	movabsq	$.L.str.34, %rcx
	movl	$2, %r10d
	movl	%r10d, %r8d
	xorl	%r9d, %r9d
	movl	$1, %r10d
	movl	$1, (%rsp)
	movl	%r10d, -232(%rbp)       # 4-byte Spill
	callq	trace_logger_log0
	movl	$1, %r9d
	movl	%r9d, %eax
	xorl	%r9d, %r9d
	movl	%r9d, %ecx
	movabsq	$.L.str.35, %r8
	movabsq	$.L.str.5, %rdx
	movq	%rax, %rdi
	movq	%rcx, %rsi
	movq	%rdx, -240(%rbp)        # 8-byte Spill
	movq	%rcx, %rdx
	movq	%rcx, -248(%rbp)        # 8-byte Spill
	movq	%rax, %rcx
	movq	-248(%rbp), %r9         # 8-byte Reload
	movq	-240(%rbp), %rax        # 8-byte Reload
	movq	%rax, (%rsp)
	callq	trace_logger_log_int
	xorl	%r10d, %r10d
	movl	%r10d, %eax
	movq	%rax, -256(%rbp)        # 8-byte Spill
.Ltmp54:
.LBB5_2:                                #   Parent Loop BB5_1 Depth=1
                                        # =>  This Inner Loop Header: Depth=2
	#DEBUG_VALUE: hist:blockID <- [DW_OP_constu 112, DW_OP_minus] [%rbp+0]
	#DEBUG_VALUE: hist:exp <- [DW_OP_constu 52, DW_OP_minus] [%rbp+0]
	#DEBUG_VALUE: hist:a <- [DW_OP_constu 48, DW_OP_minus] [%rbp+0]
	#DEBUG_VALUE: hist:bucket <- [DW_OP_constu 40, DW_OP_minus] [%rbp+0]
	.loc	1 0 12 is_stmt 0        # ss_sort.c:0:12
	movq	-256(%rbp), %rax        # 8-byte Reload
	movq	$-1, %rdi
	movabsq	$.L.str.69, %rsi
	movabsq	$.L.str.35, %rdx
	movabsq	$.L.str.13, %rcx
	movl	$53, %r8d
                                        # kill: def %r8 killed %r8d
	xorl	%r9d, %r9d
	movl	$1, %r10d
	.loc	1 63 20 is_stmt 1       # ss_sort.c:63:20
	movl	$1, (%rsp)
	movq	%rax, -264(%rbp)        # 8-byte Spill
	movl	%r10d, -268(%rbp)       # 4-byte Spill
	callq	trace_logger_log0
	movl	$2, %r9d
	movl	%r9d, %edi
	movl	$64, %r9d
	movl	%r9d, %esi
	xorl	%r9d, %r9d
	movl	%r9d, %edx
	movl	$1, %r9d
	movl	%r9d, %eax
	movabsq	$.L.str.14, %r8
	movabsq	$.L.str.35, %rcx
	movq	%rcx, -280(%rbp)        # 8-byte Spill
	movq	%rax, %rcx
	movq	%rax, %r9
	movq	-280(%rbp), %rax        # 8-byte Reload
	movq	%rax, (%rsp)
	callq	trace_logger_log_int
	movl	$1, %r10d
	movl	%r10d, %eax
	movl	$64, %r10d
	movl	%r10d, %esi
	xorl	%r10d, %r10d
	movl	%r10d, %ecx
	movabsq	$.L.str.15, %r8
	movabsq	$.L.str.12, %rdx
	movq	%rax, %rdi
	movq	%rdx, -288(%rbp)        # 8-byte Spill
	movq	%rcx, %rdx
	movq	%rax, %r9
	movq	-288(%rbp), %rax        # 8-byte Reload
	movq	%rax, (%rsp)
	callq	trace_logger_log_int
	movl	$19134, %r10d           # imm = 0x4ABE
	movl	%r10d, %edi
	movl	$64, %r10d
	movl	%r10d, %esi
	movl	$1, %r10d
	movl	%r10d, %ecx
	movabsq	$.L.str.13, %r8
	xorl	%r10d, %r10d
	movl	%r10d, %r9d
	movabsq	$.L.str.12, %rax
	movq	-264(%rbp), %rdx        # 8-byte Reload
	movq	%rax, (%rsp)
	callq	trace_logger_log_int
	movl	$68, %r10d
	movl	%r10d, %edi
	movabsq	$.L.str.69, %rsi
	movabsq	$.L.str.35, %rdx
	movabsq	$.L.str.38, %rcx
	movl	$11, %r10d
	movl	%r10d, %r8d
	xorl	%r9d, %r9d
	movl	$1, %r10d
.Ltmp55:
	#DEBUG_VALUE: hist:maskID <- [DW_OP_constu 264, DW_OP_minus] [%rbp+0]
	.loc	1 68 45                 # ss_sort.c:68:45
	movl	$1, (%rsp)
	movl	%r10d, -292(%rbp)       # 4-byte Spill
	callq	trace_logger_log0
	movl	$2, %r9d
	movl	%r9d, %edi
	movl	$64, %r9d
	movl	%r9d, %esi
	movl	$1, %r9d
	movl	%r9d, %ecx
	movabsq	$.L.str.18, %r8
	xorl	%r9d, %r9d
                                        # kill: def %r9 killed %r9d
	movabsq	$.L.str.5, %rax
	movq	-176(%rbp), %rdx        # 8-byte Reload
	movq	%rax, (%rsp)
	callq	trace_logger_log_int
	movl	$1, %r10d
	movl	%r10d, %eax
	movl	$64, %r10d
	movl	%r10d, %esi
	movabsq	$.L.str.13, %r8
	xorl	%r10d, %r10d
	movl	%r10d, %r9d
	movabsq	$.L.str.5, %rcx
	movq	%rax, %rdi
	movq	-264(%rbp), %rdx        # 8-byte Reload
	movq	%rcx, -304(%rbp)        # 8-byte Spill
	movq	%rax, %rcx
	movq	-304(%rbp), %rax        # 8-byte Reload
	movq	%rax, (%rsp)
	callq	trace_logger_log_int
	movl	$19134, %r10d           # imm = 0x4ABE
	movl	%r10d, %edi
	movl	$64, %r10d
	movl	%r10d, %esi
	movl	$1, %r10d
	movl	%r10d, %ecx
	movabsq	$.L.str.38, %r8
	xorl	%r10d, %r10d
	movl	%r10d, %r9d
	movabsq	$.L.str.5, %rax
	movq	-264(%rbp), %rdx        # 8-byte Reload
	movq	-176(%rbp), %r11        # 8-byte Reload
	addq	%r11, %rdx
	.loc	1 68 16 is_stmt 0       # ss_sort.c:68:16
	movq	%rdx, -312(%rbp)        # 8-byte Spill
	movq	%rax, (%rsp)
	callq	trace_logger_log_int
	movl	$68, %r10d
	movl	%r10d, %edi
	movabsq	$.L.str.69, %rsi
	movabsq	$.L.str.35, %rdx
	movabsq	$.L.str.16, %rcx
	movl	$32, %r10d
	movl	%r10d, %r8d
	xorl	%r9d, %r9d
	movl	$1, %r10d
	movl	$1, (%rsp)
	movl	%r10d, -316(%rbp)       # 4-byte Spill
	callq	trace_logger_log0
	movl	$2, %r9d
	movl	%r9d, %edi
	movl	$64, %r9d
	movl	%r9d, %esi
	movl	$1, %r9d
	movl	%r9d, %ecx
	movabsq	$.L.str.38, %r8
	xorl	%r9d, %r9d
                                        # kill: def %r9 killed %r9d
	movabsq	$.L.str.5, %rax
	movq	-312(%rbp), %rdx        # 8-byte Reload
	movq	%rax, (%rsp)
	callq	trace_logger_log_int
	movl	$1, %r10d
	movl	%r10d, %eax
	movl	$64, %r10d
	movl	%r10d, %esi
	movabsq	$.L.str.17, %r8
	xorl	%r10d, %r10d
	movl	%r10d, %r9d
	movabsq	$.L.str.5, %rcx
	movq	%rax, %rdi
	movq	-48(%rbp), %rdx         # 8-byte Reload
	movq	%rcx, -328(%rbp)        # 8-byte Spill
	movq	%rax, %rcx
	movq	-328(%rbp), %rax        # 8-byte Reload
	movq	%rax, (%rsp)
	callq	trace_logger_log_ptr
	movl	$19134, %r10d           # imm = 0x4ABE
	movl	%r10d, %edi
	movl	$64, %r10d
	movl	%r10d, %esi
	movl	$1, %r10d
	movl	%r10d, %ecx
	movabsq	$.L.str.16, %r8
	xorl	%r10d, %r10d
	movl	%r10d, %r9d
	movabsq	$.L.str.5, %rax
	movq	-312(%rbp), %rdx        # 8-byte Reload
	shlq	$2, %rdx
	movq	-48(%rbp), %r11         # 8-byte Reload
	addq	%rdx, %r11
	movq	%r11, %rdx
	movq	%rax, (%rsp)
	movq	%r11, -336(%rbp)        # 8-byte Spill
	callq	trace_logger_log_ptr
	movl	$68, %r10d
	movl	%r10d, %edi
	movabsq	$.L.str.69, %rsi
	movabsq	$.L.str.35, %rdx
	movabsq	$.L.str.40, %rcx
	movl	$30, %r10d
	movl	%r10d, %r8d
	xorl	%r9d, %r9d
	movl	$1, %r10d
	movl	$1, (%rsp)
	movl	%r10d, -340(%rbp)       # 4-byte Spill
	callq	trace_logger_log0
	movl	$1, %r9d
	movl	%r9d, %eax
	movl	$64, %r9d
	movl	%r9d, %esi
	movabsq	$.L.str.16, %r8
	xorl	%r9d, %r9d
                                        # kill: def %r9 killed %r9d
	movabsq	$.L.str.5, %rcx
	movq	%rax, %rdi
	movq	-336(%rbp), %rdx        # 8-byte Reload
	movq	%rcx, -352(%rbp)        # 8-byte Spill
	movq	%rax, %rcx
	movq	-352(%rbp), %rax        # 8-byte Reload
	movq	%rax, (%rsp)
	callq	trace_logger_log_ptr
	movl	$19134, %r10d           # imm = 0x4ABE
	movl	%r10d, %edi
	movl	$32, %r10d
	movl	%r10d, %esi
	movl	$1, %r10d
	movl	%r10d, %ecx
	movabsq	$.L.str.40, %r8
	xorl	%r10d, %r10d
	movl	%r10d, %r9d
	movabsq	$.L.str.5, %rax
	movq	-48(%rbp), %rdx         # 8-byte Reload
	movq	-312(%rbp), %r11        # 8-byte Reload
	movl	(%rdx,%r11,4), %r10d
	.loc	1 68 55                 # ss_sort.c:68:55
	movl	%r10d, %ebx
	movl	%ebx, %edx
	movq	%rax, (%rsp)
	movl	%r10d, -356(%rbp)       # 4-byte Spill
	callq	trace_logger_log_int
	movl	$68, %r10d
	movl	%r10d, %edi
	movabsq	$.L.str.69, %rsi
	movabsq	$.L.str.35, %rdx
	movabsq	$.L.str.74, %rcx
	movl	$25, %r10d
	movl	%r10d, %r8d
	xorl	%r9d, %r9d
	movl	$1, %r10d
	movl	$1, (%rsp)
	movl	%r10d, -360(%rbp)       # 4-byte Spill
	callq	trace_logger_log0
	movl	$2, %r9d
	movl	%r9d, %edi
	movl	$32, %r9d
	movl	%r9d, %esi
	movl	$1, %r9d
	movl	%r9d, %ecx
	movabsq	$.L.str.75, %r8
	xorl	%r9d, %r9d
                                        # kill: def %r9 killed %r9d
	movabsq	$.L.str.5, %rax
	movl	-52(%rbp), %r10d        # 4-byte Reload
	movl	%r10d, %ebx
	movl	%ebx, %edx
	movq	%rax, (%rsp)
	callq	trace_logger_log_int
	movl	$1, %r10d
	movl	%r10d, %eax
	movl	$32, %r10d
	movl	%r10d, %esi
	movabsq	$.L.str.40, %r8
	xorl	%r10d, %r10d
	movl	%r10d, %r9d
	movabsq	$.L.str.5, %rcx
	movl	-356(%rbp), %r10d       # 4-byte Reload
	movl	%r10d, %ebx
	movl	%ebx, %edx
	movq	%rax, %rdi
	movq	%rcx, -368(%rbp)        # 8-byte Spill
	movq	%rax, %rcx
	movq	-368(%rbp), %rax        # 8-byte Reload
	movq	%rax, (%rsp)
	callq	trace_logger_log_int
	movl	$19134, %r10d           # imm = 0x4ABE
	movl	%r10d, %edi
	movl	$32, %r10d
	movl	%r10d, %esi
	movl	$1, %r10d
	movl	%r10d, %ecx
	movabsq	$.L.str.74, %r8
	xorl	%r10d, %r10d
	movl	%r10d, %r9d
	movabsq	$.L.str.5, %rax
	movl	-52(%rbp), %r10d        # 4-byte Reload
	movq	%rcx, -376(%rbp)        # 8-byte Spill
	movl	%r10d, %ecx
                                        # kill: def %cl killed %ecx
	movl	-356(%rbp), %ebx        # 4-byte Reload
	sarl	%cl, %ebx
	.loc	1 68 71                 # ss_sort.c:68:71
	movl	%ebx, %r14d
	movl	%r14d, %edx
	movq	-376(%rbp), %rcx        # 8-byte Reload
	movq	%rax, (%rsp)
	movl	%ebx, -380(%rbp)        # 4-byte Spill
	callq	trace_logger_log_int
	movl	$68, %r10d
	movl	%r10d, %edi
	movabsq	$.L.str.69, %rsi
	movabsq	$.L.str.35, %rdx
	movabsq	$.L.str.76, %rcx
	movl	$23, %r10d
	movl	%r10d, %r8d
	xorl	%r9d, %r9d
	movl	$1, %r10d
	movl	$1, (%rsp)
	movl	%r10d, -384(%rbp)       # 4-byte Spill
	callq	trace_logger_log0
	movl	$2, %r9d
	movl	%r9d, %edi
	movl	$32, %r9d
	movl	%r9d, %esi
	movl	$9, %r9d
	movl	%r9d, %edx
	xorl	%r9d, %r9d
	movl	%r9d, %eax
	movabsq	$.L.str.15, %r8
	movabsq	$.L.str.5, %rcx
	movq	%rcx, -392(%rbp)        # 8-byte Spill
	movq	%rax, %rcx
	movq	%rax, %r9
	movq	-392(%rbp), %rax        # 8-byte Reload
	movq	%rax, (%rsp)
	callq	trace_logger_log_int
	movl	$1, %r10d
	movl	%r10d, %eax
	movl	$32, %r10d
	movl	%r10d, %esi
	movabsq	$.L.str.74, %r8
	xorl	%r10d, %r10d
	movl	%r10d, %r9d
	movabsq	$.L.str.5, %rcx
	movl	-380(%rbp), %r10d       # 4-byte Reload
	movl	%r10d, %ebx
	movl	%ebx, %edx
	movq	%rax, %rdi
	movq	%rcx, -400(%rbp)        # 8-byte Spill
	movq	%rax, %rcx
	movq	-400(%rbp), %rax        # 8-byte Reload
	movq	%rax, (%rsp)
	callq	trace_logger_log_int
	movl	$19134, %r10d           # imm = 0x4ABE
	movl	%r10d, %edi
	movl	$32, %r10d
	movl	%r10d, %esi
	movl	$1, %r10d
	movl	%r10d, %ecx
	movabsq	$.L.str.76, %r8
	xorl	%r10d, %r10d
	movl	%r10d, %r9d
	movabsq	$.L.str.5, %rax
	movl	-380(%rbp), %r10d       # 4-byte Reload
	shll	$9, %r10d
	movl	%r10d, %ebx
	movl	%ebx, %edx
	movq	%rax, (%rsp)
	movl	%r10d, -404(%rbp)       # 4-byte Spill
	callq	trace_logger_log_int
	movl	$68, %r10d
	movl	%r10d, %edi
	movabsq	$.L.str.69, %rsi
	movabsq	$.L.str.35, %rdx
	movabsq	$.L.str.77, %rcx
	movl	$26, %r10d
	movl	%r10d, %r8d
	xorl	%r9d, %r9d
	movl	$1, %r10d
	movl	$1, (%rsp)
	movl	%r10d, -408(%rbp)       # 4-byte Spill
	callq	trace_logger_log0
	movl	$2, %r9d
	movl	%r9d, %edi
	movl	$32, %r9d
	movl	%r9d, %esi
	movl	$1536, %r9d             # imm = 0x600
	movl	%r9d, %edx
	xorl	%r9d, %r9d
	movl	%r9d, %eax
	movabsq	$.L.str.15, %r8
	movabsq	$.L.str.5, %rcx
	movq	%rcx, -416(%rbp)        # 8-byte Spill
	movq	%rax, %rcx
	movq	%rax, %r9
	movq	-416(%rbp), %rax        # 8-byte Reload
	movq	%rax, (%rsp)
	callq	trace_logger_log_int
	movl	$1, %r10d
	movl	%r10d, %eax
	movl	$32, %r10d
	movl	%r10d, %esi
	movabsq	$.L.str.76, %r8
	xorl	%r10d, %r10d
	movl	%r10d, %r9d
	movabsq	$.L.str.5, %rcx
	movl	-404(%rbp), %r10d       # 4-byte Reload
	movl	%r10d, %ebx
	movl	%ebx, %edx
	movq	%rax, %rdi
	movq	%rcx, -424(%rbp)        # 8-byte Spill
	movq	%rax, %rcx
	movq	-424(%rbp), %rax        # 8-byte Reload
	movq	%rax, (%rsp)
	callq	trace_logger_log_int
	movl	$19134, %r10d           # imm = 0x4ABE
	movl	%r10d, %edi
	movl	$32, %r10d
	movl	%r10d, %esi
	movl	$1, %r10d
	movl	%r10d, %ecx
	movabsq	$.L.str.77, %r8
	xorl	%r10d, %r10d
	movl	%r10d, %r9d
	movabsq	$.L.str.5, %rax
	movl	-404(%rbp), %r10d       # 4-byte Reload
	andl	$1536, %r10d            # imm = 0x600
	.loc	1 68 95                 # ss_sort.c:68:95
	movl	%r10d, %ebx
	movl	%ebx, %edx
	movq	%rax, (%rsp)
	movl	%r10d, -428(%rbp)       # 4-byte Spill
	callq	trace_logger_log_int
	movl	$68, %r10d
	movl	%r10d, %edi
	movabsq	$.L.str.69, %rsi
	movabsq	$.L.str.35, %rdx
	movabsq	$.L.str.61, %rcx
	movl	$11, %r10d
	movl	%r10d, %r8d
	xorl	%r9d, %r9d
	movl	$1, %r10d
	movl	$1, (%rsp)
	movl	%r10d, -432(%rbp)       # 4-byte Spill
	callq	trace_logger_log0
	movl	$2, %r9d
	movl	%r9d, %edi
	movl	$32, %r9d
	movl	%r9d, %esi
	movl	$1, %r9d
	movl	%r9d, %ecx
	movabsq	$.L.str.32, %r8
	xorl	%r9d, %r9d
                                        # kill: def %r9 killed %r9d
	movabsq	$.L.str.5, %rax
	movl	-228(%rbp), %r10d       # 4-byte Reload
	movl	%r10d, %ebx
	movl	%ebx, %edx
	movq	%rax, (%rsp)
	callq	trace_logger_log_int
	movl	$1, %r10d
	movl	%r10d, %eax
	movl	$32, %r10d
	movl	%r10d, %esi
	movabsq	$.L.str.77, %r8
	xorl	%r10d, %r10d
	movl	%r10d, %r9d
	movabsq	$.L.str.5, %rcx
	movl	-428(%rbp), %r10d       # 4-byte Reload
	movl	%r10d, %ebx
	movl	%ebx, %edx
	movq	%rax, %rdi
	movq	%rcx, -440(%rbp)        # 8-byte Spill
	movq	%rax, %rcx
	movq	-440(%rbp), %rax        # 8-byte Reload
	movq	%rax, (%rsp)
	callq	trace_logger_log_int
	movl	$19134, %r10d           # imm = 0x4ABE
	movl	%r10d, %edi
	movl	$32, %r10d
	movl	%r10d, %esi
	movl	$1, %r10d
	movl	%r10d, %ecx
	movabsq	$.L.str.61, %r8
	xorl	%r10d, %r10d
	movl	%r10d, %r9d
	movabsq	$.L.str.5, %rax
	movl	-428(%rbp), %r10d       # 4-byte Reload
	movl	-228(%rbp), %ebx        # 4-byte Reload
	addl	%ebx, %r10d
	.loc	1 68 7                  # ss_sort.c:68:7
	movl	%r10d, %r14d
	movl	%r14d, %edx
	movq	%rax, (%rsp)
	movl	%r10d, -444(%rbp)       # 4-byte Spill
	callq	trace_logger_log_int
	movl	$68, %r10d
	movl	%r10d, %edi
	movabsq	$.L.str.69, %rsi
	movabsq	$.L.str.35, %rdx
	movabsq	$.L.str.78, %rcx
	movl	$37, %r10d
	movl	%r10d, %r8d
	xorl	%r9d, %r9d
	movl	$1, %r10d
	movl	$1, (%rsp)
	movl	%r10d, -448(%rbp)       # 4-byte Spill
	callq	trace_logger_log0
	movl	$1, %r9d
	movl	%r9d, %eax
	movl	$32, %r9d
	movl	%r9d, %esi
	movabsq	$.L.str.61, %r8
	xorl	%r9d, %r9d
                                        # kill: def %r9 killed %r9d
	movabsq	$.L.str.5, %rcx
	movl	-444(%rbp), %r10d       # 4-byte Reload
	movl	%r10d, %ebx
	movl	%ebx, %edx
	movq	%rax, %rdi
	movq	%rcx, -456(%rbp)        # 8-byte Spill
	movq	%rax, %rcx
	movq	-456(%rbp), %rax        # 8-byte Reload
	movq	%rax, (%rsp)
	callq	trace_logger_log_int
	movl	$19134, %r10d           # imm = 0x4ABE
	movl	%r10d, %edi
	movl	$64, %r10d
	movl	%r10d, %esi
	movl	$1, %r10d
	movl	%r10d, %ecx
	movabsq	$.L.str.78, %r8
	xorl	%r10d, %r10d
	movl	%r10d, %r9d
	movabsq	$.L.str.5, %rax
	movl	-444(%rbp), %r10d       # 4-byte Reload
	movl	%r10d, %ebx
	movl	%ebx, %edx
	movq	%rdx, -464(%rbp)        # 8-byte Spill
	movq	%rax, (%rsp)
	callq	trace_logger_log_int
	movl	$68, %r10d
	movl	%r10d, %edi
	movabsq	$.L.str.69, %rsi
	movabsq	$.L.str.35, %rdx
	movabsq	$.L.str.53, %rcx
	movl	$32, %r10d
	movl	%r10d, %r8d
	xorl	%r9d, %r9d
	movl	$1, %r10d
	movl	$1, (%rsp)
	movl	%r10d, -468(%rbp)       # 4-byte Spill
	callq	trace_logger_log0
	movl	$2, %r9d
	movl	%r9d, %edi
	movl	$64, %r9d
	movl	%r9d, %esi
	movl	$1, %r9d
	movl	%r9d, %ecx
	movabsq	$.L.str.78, %r8
	xorl	%r9d, %r9d
                                        # kill: def %r9 killed %r9d
	movabsq	$.L.str.5, %rax
	movq	-464(%rbp), %rdx        # 8-byte Reload
	movq	%rax, (%rsp)
	callq	trace_logger_log_int
	movl	$1, %r10d
	movl	%r10d, %eax
	movl	$64, %r10d
	movl	%r10d, %esi
	movabsq	$.L.str.31, %r8
	xorl	%r10d, %r10d
	movl	%r10d, %r9d
	movabsq	$.L.str.5, %rcx
	movq	%rax, %rdi
	movq	-40(%rbp), %rdx         # 8-byte Reload
	movq	%rcx, -480(%rbp)        # 8-byte Spill
	movq	%rax, %rcx
	movq	-480(%rbp), %rax        # 8-byte Reload
	movq	%rax, (%rsp)
	callq	trace_logger_log_ptr
	movl	$19134, %r10d           # imm = 0x4ABE
	movl	%r10d, %edi
	movl	$64, %r10d
	movl	%r10d, %esi
	movl	$1, %r10d
	movl	%r10d, %ecx
	movabsq	$.L.str.53, %r8
	xorl	%r10d, %r10d
	movl	%r10d, %r9d
	movabsq	$.L.str.5, %rax
	movq	-464(%rbp), %rdx        # 8-byte Reload
	shlq	$2, %rdx
	movq	-40(%rbp), %r11         # 8-byte Reload
	addq	%rdx, %r11
	.loc	1 68 99                 # ss_sort.c:68:99
	movq	%r11, %rdx
	movq	%rax, (%rsp)
	movq	%r11, -488(%rbp)        # 8-byte Spill
	callq	trace_logger_log_ptr
	movl	$68, %r10d
	movl	%r10d, %edi
	movabsq	$.L.str.69, %rsi
	movabsq	$.L.str.35, %rdx
	movabsq	$.L.str.79, %rcx
	movl	$30, %r10d
	movl	%r10d, %r8d
	xorl	%r9d, %r9d
	movl	$1, %r10d
	movl	$1, (%rsp)
	movl	%r10d, -492(%rbp)       # 4-byte Spill
	callq	trace_logger_log0
	movl	$1, %r9d
	movl	%r9d, %eax
	movl	$64, %r9d
	movl	%r9d, %esi
	movabsq	$.L.str.53, %r8
	xorl	%r9d, %r9d
                                        # kill: def %r9 killed %r9d
	movabsq	$.L.str.5, %rcx
	movq	%rax, %rdi
	movq	-488(%rbp), %rdx        # 8-byte Reload
	movq	%rcx, -504(%rbp)        # 8-byte Spill
	movq	%rax, %rcx
	movq	-504(%rbp), %rax        # 8-byte Reload
	movq	%rax, (%rsp)
	callq	trace_logger_log_ptr
	movl	$19134, %r10d           # imm = 0x4ABE
	movl	%r10d, %edi
	movl	$32, %r10d
	movl	%r10d, %esi
	movl	$1, %r10d
	movl	%r10d, %ecx
	movabsq	$.L.str.79, %r8
	xorl	%r10d, %r10d
	movl	%r10d, %r9d
	movabsq	$.L.str.5, %rax
	movq	-40(%rbp), %rdx         # 8-byte Reload
	movq	-464(%rbp), %r11        # 8-byte Reload
	movl	(%rdx,%r11,4), %r10d
	movl	%r10d, %ebx
	movl	%ebx, %edx
	movq	%rax, (%rsp)
	movl	%r10d, -508(%rbp)       # 4-byte Spill
	callq	trace_logger_log_int
	movl	$68, %r10d
	movl	%r10d, %edi
	movabsq	$.L.str.69, %rsi
	movabsq	$.L.str.35, %rdx
	movabsq	$.L.str.80, %rcx
	movl	$11, %r10d
	movl	%r10d, %r8d
	xorl	%r9d, %r9d
	movl	$1, %r10d
	movl	$1, (%rsp)
	movl	%r10d, -512(%rbp)       # 4-byte Spill
	callq	trace_logger_log0
	movl	$2, %r9d
	movl	%r9d, %edi
	movl	$32, %r9d
	movl	%r9d, %esi
	movl	$1, %r9d
	movl	%r9d, %edx
	xorl	%r9d, %r9d
	movl	%r9d, %eax
	movabsq	$.L.str.15, %r8
	movabsq	$.L.str.5, %rcx
	movq	%rcx, -520(%rbp)        # 8-byte Spill
	movq	%rax, %rcx
	movq	%rax, %r9
	movq	-520(%rbp), %rax        # 8-byte Reload
	movq	%rax, (%rsp)
	callq	trace_logger_log_int
	movl	$1, %r10d
	movl	%r10d, %eax
	movl	$32, %r10d
	movl	%r10d, %esi
	movabsq	$.L.str.79, %r8
	xorl	%r10d, %r10d
	movl	%r10d, %r9d
	movabsq	$.L.str.5, %rcx
	movl	-508(%rbp), %r10d       # 4-byte Reload
	movl	%r10d, %ebx
	movl	%ebx, %edx
	movq	%rax, %rdi
	movq	%rcx, -528(%rbp)        # 8-byte Spill
	movq	%rax, %rcx
	movq	-528(%rbp), %rax        # 8-byte Reload
	movq	%rax, (%rsp)
	callq	trace_logger_log_int
	movl	$19134, %r10d           # imm = 0x4ABE
	movl	%r10d, %edi
	movl	$32, %r10d
	movl	%r10d, %esi
	movl	$1, %r10d
	movl	%r10d, %ecx
	movabsq	$.L.str.80, %r8
	xorl	%r10d, %r10d
	movl	%r10d, %r9d
	movabsq	$.L.str.5, %rax
	movl	-508(%rbp), %r10d       # 4-byte Reload
	addl	$1, %r10d
	movl	%r10d, %ebx
	movl	%ebx, %edx
	movq	%rax, (%rsp)
	movl	%r10d, -532(%rbp)       # 4-byte Spill
	callq	trace_logger_log_int
	movl	$68, %r10d
	movl	%r10d, %edi
	movabsq	$.L.str.69, %rsi
	movabsq	$.L.str.35, %rdx
	movabsq	$.L.str.41, %rcx
	movl	$31, %r10d
	movl	%r10d, %r8d
	xorl	%r9d, %r9d
	movl	$1, %r10d
	movl	$1, (%rsp)
	movl	%r10d, -536(%rbp)       # 4-byte Spill
	callq	trace_logger_log0
	movl	$2, %r9d
	movl	%r9d, %edi
	movl	$64, %r9d
	movl	%r9d, %esi
	movl	$1, %r9d
	movl	%r9d, %ecx
	movabsq	$.L.str.53, %r8
	xorl	%r9d, %r9d
                                        # kill: def %r9 killed %r9d
	movabsq	$.L.str.5, %rax
	movq	-488(%rbp), %rdx        # 8-byte Reload
	movq	%rax, (%rsp)
	callq	trace_logger_log_ptr
	movl	$1, %r10d
	movl	%r10d, %eax
	movl	$32, %r10d
	movl	%r10d, %esi
	movabsq	$.L.str.80, %r8
	xorl	%r10d, %r10d
	movl	%r10d, %r9d
	movabsq	$.L.str.5, %rcx
	movl	-532(%rbp), %r10d       # 4-byte Reload
	movl	%r10d, %ebx
	movl	%ebx, %edx
	movq	%rax, %rdi
	movq	%rcx, -544(%rbp)        # 8-byte Spill
	movq	%rax, %rcx
	movq	-544(%rbp), %rax        # 8-byte Reload
	movq	%rax, (%rsp)
	callq	trace_logger_log_int
	movl	$67, %r10d
	movl	%r10d, %edi
	movabsq	$.L.str.69, %rsi
	movabsq	$.L.str.35, %rdx
	movabsq	$.L.str.14, %rcx
	movl	$11, %r10d
	movl	%r10d, %r8d
	xorl	%r9d, %r9d
	movl	$1, %r10d
	movq	-40(%rbp), %rax         # 8-byte Reload
	movq	-464(%rbp), %r11        # 8-byte Reload
	movl	-532(%rbp), %ebx        # 4-byte Reload
	movl	%ebx, (%rax,%r11,4)
	.loc	1 67 48 is_stmt 1       # ss_sort.c:67:48
	movl	$1, (%rsp)
	movl	%r10d, -548(%rbp)       # 4-byte Spill
	callq	trace_logger_log0
	movl	$2, %r9d
	movl	%r9d, %edi
	movl	$64, %r9d
	movl	%r9d, %esi
	movl	$1, %r9d
	movl	%r9d, %edx
	xorl	%r9d, %r9d
	movl	%r9d, %eax
	movabsq	$.L.str.15, %r8
	movabsq	$.L.str.5, %rcx
	movq	%rcx, -560(%rbp)        # 8-byte Spill
	movq	%rax, %rcx
	movq	%rax, %r9
	movq	-560(%rbp), %rax        # 8-byte Reload
	movq	%rax, (%rsp)
	callq	trace_logger_log_int
	movl	$1, %r10d
	movl	%r10d, %eax
	movl	$64, %r10d
	movl	%r10d, %esi
	movabsq	$.L.str.13, %r8
	xorl	%r10d, %r10d
	movl	%r10d, %r9d
	movabsq	$.L.str.5, %rcx
	movq	%rax, %rdi
	movq	-264(%rbp), %rdx        # 8-byte Reload
	movq	%rcx, -568(%rbp)        # 8-byte Spill
	movq	%rax, %rcx
	movq	-568(%rbp), %rax        # 8-byte Reload
	movq	%rax, (%rsp)
	callq	trace_logger_log_int
	movl	$19134, %r10d           # imm = 0x4ABE
	movl	%r10d, %edi
	movl	$64, %r10d
	movl	%r10d, %esi
	movl	$1, %r10d
	movl	%r10d, %ecx
	movabsq	$.L.str.14, %r8
	xorl	%r10d, %r10d
	movl	%r10d, %r9d
	movabsq	$.L.str.5, %rax
	movq	-264(%rbp), %rdx        # 8-byte Reload
	addq	$1, %rdx
	.loc	1 67 37 is_stmt 0       # ss_sort.c:67:37
	movq	%rdx, -576(%rbp)        # 8-byte Spill
	movq	%rax, (%rsp)
	callq	trace_logger_log_int
	movl	$67, %r10d
	movl	%r10d, %edi
	movabsq	$.L.str.69, %rsi
	movabsq	$.L.str.35, %rdx
	movabsq	$.L.str.22, %rcx
	movl	$51, %r10d
	movl	%r10d, %r8d
	xorl	%r9d, %r9d
	movl	$1, %r10d
	movl	$1, (%rsp)
	movl	%r10d, -580(%rbp)       # 4-byte Spill
	callq	trace_logger_log0
	movl	$2, %r9d
	movl	%r9d, %edi
	movl	$64, %r9d
	movl	%r9d, %esi
	movl	$4, %r9d
	movl	%r9d, %edx
	xorl	%r9d, %r9d
	movl	%r9d, %eax
	movabsq	$.L.str.15, %r8
	movabsq	$.L.str.5, %rcx
	movq	%rcx, -592(%rbp)        # 8-byte Spill
	movq	%rax, %rcx
	movq	%rax, %r9
	movq	-592(%rbp), %rax        # 8-byte Reload
	movq	%rax, (%rsp)
	callq	trace_logger_log_int
	movl	$1, %r10d
	movl	%r10d, %eax
	movl	$64, %r10d
	movl	%r10d, %esi
	movabsq	$.L.str.14, %r8
	xorl	%r10d, %r10d
	movl	%r10d, %r9d
	movabsq	$.L.str.5, %rcx
	movq	%rax, %rdi
	movq	-576(%rbp), %rdx        # 8-byte Reload
	movq	%rcx, -600(%rbp)        # 8-byte Spill
	movq	%rax, %rcx
	movq	-600(%rbp), %rax        # 8-byte Reload
	movq	%rax, (%rsp)
	callq	trace_logger_log_int
	movl	$19134, %r10d           # imm = 0x4ABE
	movl	%r10d, %edi
	movl	$1, %r10d
	movl	%r10d, %eax
	movabsq	$.L.str.22, %r8
	xorl	%r10d, %r10d
	movl	%r10d, %r9d
	movabsq	$.L.str.5, %rcx
	movq	-576(%rbp), %rdx        # 8-byte Reload
	cmpq	$4, %rdx
	sete	%r15b
.Ltmp56:
	.loc	1 67 12                 # ss_sort.c:67:12
	movb	%r15b, %r12b
	andb	$1, %r12b
	movzbl	%r12b, %r10d
	movl	%r10d, %edx
	movq	%rax, %rsi
	movq	%rcx, -608(%rbp)        # 8-byte Spill
	movq	%rax, %rcx
	movq	-608(%rbp), %rax        # 8-byte Reload
	movq	%rax, (%rsp)
	movb	%r15b, -609(%rbp)       # 1-byte Spill
	callq	trace_logger_log_int
	movl	$67, %r10d
	movl	%r10d, %edi
	movabsq	$.L.str.69, %rsi
	movabsq	$.L.str.35, %rdx
	movabsq	$.L.str.42, %rcx
	movl	$2, %r10d
	movl	%r10d, %r8d
	xorl	%r9d, %r9d
	movl	$1, %r10d
	movl	$1, (%rsp)
	movl	%r10d, -616(%rbp)       # 4-byte Spill
	callq	trace_logger_log0
	movl	$3, %r9d
	movl	%r9d, %edi
	xorl	%r9d, %r9d
	movl	%r9d, %eax
	movl	$1, %r9d
	movl	%r9d, %ecx
	movabsq	$.L.str.73, %r8
	movabsq	$.L.str.5, %rdx
	movq	%rax, %rsi
	movq	%rdx, -624(%rbp)        # 8-byte Spill
	movq	%rax, %rdx
	movq	%rax, %r9
	movq	-624(%rbp), %rax        # 8-byte Reload
	movq	%rax, (%rsp)
	callq	trace_logger_log_int
	movl	$2, %r10d
	movl	%r10d, %edi
	xorl	%r10d, %r10d
	movl	%r10d, %eax
	movl	$1, %r10d
	movl	%r10d, %ecx
	movabsq	$.L.str.35, %r8
	movabsq	$.L.str.5, %rdx
	movq	%rax, %rsi
	movq	%rdx, -632(%rbp)        # 8-byte Spill
	movq	%rax, %rdx
	movq	%rax, %r9
	movq	-632(%rbp), %rax        # 8-byte Reload
	movq	%rax, (%rsp)
	callq	trace_logger_log_int
	movl	$1, %r10d
	movl	%r10d, %eax
	movabsq	$.L.str.22, %r8
	xorl	%r10d, %r10d
	movl	%r10d, %r9d
	movabsq	$.L.str.5, %rcx
	movb	-609(%rbp), %r15b       # 1-byte Reload
	andb	$1, %r15b
	movzbl	%r15b, %r10d
	movl	%r10d, %edx
	movq	%rax, %rdi
	movq	%rax, %rsi
	movq	%rcx, -640(%rbp)        # 8-byte Spill
	movq	%rax, %rcx
	movq	-640(%rbp), %rax        # 8-byte Reload
	movq	%rax, (%rsp)
	callq	trace_logger_log_int
	movb	-609(%rbp), %r15b       # 1-byte Reload
	testb	$1, %r15b
	movq	-576(%rbp), %rax        # 8-byte Reload
	movq	%rax, -256(%rbp)        # 8-byte Spill
	jne	.LBB5_3
	jmp	.LBB5_2
.Ltmp57:
.LBB5_3:                                #   in Loop: Header=BB5_1 Depth=1
	#DEBUG_VALUE: hist:maskID <- [DW_OP_constu 264, DW_OP_minus] [%rbp+0]
	#DEBUG_VALUE: hist:blockID <- [DW_OP_constu 112, DW_OP_minus] [%rbp+0]
	#DEBUG_VALUE: hist:exp <- [DW_OP_constu 52, DW_OP_minus] [%rbp+0]
	#DEBUG_VALUE: hist:a <- [DW_OP_constu 48, DW_OP_minus] [%rbp+0]
	#DEBUG_VALUE: hist:bucket <- [DW_OP_constu 40, DW_OP_minus] [%rbp+0]
	.loc	1 0 12                  # ss_sort.c:0:12
	movl	$65, %eax
	movl	%eax, %edi
	movabsq	$.L.str.69, %rsi
	movabsq	$.L.str.73, %rdx
	movabsq	$.L.str.81, %rcx
	movl	$51, %eax
	movl	%eax, %r8d
	xorl	%r9d, %r9d
	movl	$1, %eax
	.loc	1 65 35 is_stmt 1       # ss_sort.c:65:35
	movl	$1, (%rsp)
	movl	%eax, -644(%rbp)        # 4-byte Spill
	callq	trace_logger_log0
	movl	$2, %eax
	movl	%eax, %edi
	movl	$64, %eax
	movl	%eax, %esi
	movl	$512, %eax              # imm = 0x200
	movl	%eax, %edx
	xorl	%eax, %eax
	movl	%eax, %ecx
	movabsq	$.L.str.15, %r8
	movabsq	$.L.str.5, %r10
	movq	%rcx, -656(%rbp)        # 8-byte Spill
	movq	-656(%rbp), %r9         # 8-byte Reload
	movq	%r10, (%rsp)
	callq	trace_logger_log_int
	movl	$1, %eax
	movl	%eax, %ecx
	movl	$64, %eax
	movl	%eax, %esi
	movabsq	$.L.str.72, %r8
	xorl	%eax, %eax
	movl	%eax, %r9d
	movabsq	$.L.str.5, %rdx
	movq	%rcx, %rdi
	movq	-208(%rbp), %r10        # 8-byte Reload
	movq	%rdx, -664(%rbp)        # 8-byte Spill
	movq	%r10, %rdx
	movq	-664(%rbp), %r11        # 8-byte Reload
	movq	%r11, (%rsp)
	callq	trace_logger_log_int
	movl	$19134, %eax            # imm = 0x4ABE
	movl	%eax, %edi
	movl	$1, %eax
	movl	%eax, %ecx
	movabsq	$.L.str.81, %r8
	xorl	%eax, %eax
	movl	%eax, %r9d
	movabsq	$.L.str.5, %rdx
	movq	-208(%rbp), %rsi        # 8-byte Reload
	cmpq	$512, %rsi              # imm = 0x200
	sete	%bl
.Ltmp58:
	.loc	1 65 9 is_stmt 0        # ss_sort.c:65:9
	movb	%bl, %r14b
	andb	$1, %r14b
	movzbl	%r14b, %eax
	movl	%eax, %r10d
	movq	%rcx, %rsi
	movq	%rdx, -672(%rbp)        # 8-byte Spill
	movq	%r10, %rdx
	movq	-672(%rbp), %r10        # 8-byte Reload
	movq	%r10, (%rsp)
	movb	%bl, -673(%rbp)         # 1-byte Spill
	callq	trace_logger_log_int
	movl	$65, %eax
	movl	%eax, %edi
	movabsq	$.L.str.69, %rsi
	movabsq	$.L.str.73, %rdx
	movabsq	$.L.str.82, %rcx
	movl	$2, %eax
	movl	%eax, %r8d
	xorl	%r9d, %r9d
	movl	$1, %eax
	movl	$1, (%rsp)
	movl	%eax, -680(%rbp)        # 4-byte Spill
	callq	trace_logger_log0
	movl	$3, %eax
	movl	%eax, %edi
	xorl	%eax, %eax
	movl	%eax, %ecx
	movl	$1, %eax
	movl	%eax, %edx
	movabsq	$.L.str.83, %r8
	movabsq	$.L.str.5, %rsi
	movq	%rsi, -688(%rbp)        # 8-byte Spill
	movq	%rcx, %rsi
	movq	%rdx, -696(%rbp)        # 8-byte Spill
	movq	%rcx, %rdx
	movq	-696(%rbp), %r10        # 8-byte Reload
	movq	%rcx, -704(%rbp)        # 8-byte Spill
	movq	%r10, %rcx
	movq	-704(%rbp), %r9         # 8-byte Reload
	movq	-688(%rbp), %r11        # 8-byte Reload
	movq	%r11, (%rsp)
	callq	trace_logger_log_int
	movl	$2, %eax
	movl	%eax, %edi
	xorl	%eax, %eax
	movl	%eax, %ecx
	movl	$1, %eax
	movl	%eax, %edx
	movabsq	$.L.str.12, %r8
	movabsq	$.L.str.5, %rsi
	movq	%rsi, -712(%rbp)        # 8-byte Spill
	movq	%rcx, %rsi
	movq	%rdx, -720(%rbp)        # 8-byte Spill
	movq	%rcx, %rdx
	movq	-720(%rbp), %r9         # 8-byte Reload
	movq	%rcx, -728(%rbp)        # 8-byte Spill
	movq	%r9, %rcx
	movq	-728(%rbp), %r9         # 8-byte Reload
	movq	-712(%rbp), %r10        # 8-byte Reload
	movq	%r10, (%rsp)
	callq	trace_logger_log_int
	movl	$1, %eax
	movl	%eax, %ecx
	movabsq	$.L.str.81, %r8
	xorl	%eax, %eax
	movl	%eax, %r9d
	movabsq	$.L.str.5, %rdx
	movb	-673(%rbp), %bl         # 1-byte Reload
	andb	$1, %bl
	movzbl	%bl, %eax
	movl	%eax, %esi
	movq	%rcx, %rdi
	movq	%rsi, -736(%rbp)        # 8-byte Spill
	movq	%rcx, %rsi
	movq	-736(%rbp), %r10        # 8-byte Reload
	movq	%rdx, -744(%rbp)        # 8-byte Spill
	movq	%r10, %rdx
	movq	-744(%rbp), %r11        # 8-byte Reload
	movq	%r11, (%rsp)
	callq	trace_logger_log_int
	movb	-673(%rbp), %bl         # 1-byte Reload
	testb	$1, %bl
	movq	-208(%rbp), %rcx        # 8-byte Reload
	movq	%rcx, -104(%rbp)        # 8-byte Spill
	jne	.LBB5_4
	jmp	.LBB5_1
.Ltmp59:
.LBB5_4:
	#DEBUG_VALUE: hist:maskID <- [DW_OP_constu 264, DW_OP_minus] [%rbp+0]
	#DEBUG_VALUE: hist:blockID <- [DW_OP_constu 112, DW_OP_minus] [%rbp+0]
	#DEBUG_VALUE: hist:exp <- [DW_OP_constu 52, DW_OP_minus] [%rbp+0]
	#DEBUG_VALUE: hist:a <- [DW_OP_constu 48, DW_OP_minus] [%rbp+0]
	#DEBUG_VALUE: hist:bucket <- [DW_OP_constu 40, DW_OP_minus] [%rbp+0]
	.loc	1 0 9                   # ss_sort.c:0:9
	movl	$70, %eax
	movl	%eax, %edi
	movabsq	$.L.str.69, %rsi
	movabsq	$.L.str.83, %rdx
	movabsq	$.L.str.84, %rcx
	movl	$1, %eax
	movl	%eax, %r8d
	xorl	%r9d, %r9d
	movl	$1, %eax
	.loc	1 70 1 is_stmt 1        # ss_sort.c:70:1
	movl	$1, (%rsp)
	movl	%eax, -748(%rbp)        # 4-byte Spill
	callq	trace_logger_log0
	movabsq	$.L.str.69, %rdi
	movl	$1, %eax
	movl	%eax, %esi
	xorl	%edx, %edx
	movl	$1, %ecx
	callq	trace_logger_update_status
	addq	$736, %rsp              # imm = 0x2E0
	popq	%rbx
	popq	%r12
	popq	%r14
	popq	%r15
	popq	%rbp
	retq
.Ltmp60:
.Lfunc_end5:
	.size	hist, .Lfunc_end5-hist
	.cfi_endproc
                                        # -- End function
	.globl	update                  # -- Begin function update
	.p2align	4, 0x90
	.type	update,@function
update:                                 # @update
.Lfunc_begin6:
	.loc	1 76 0                  # ss_sort.c:76:0
	.cfi_startproc
# %bb.0:
	pushq	%rbp
	.cfi_def_cfa_offset 16
	.cfi_offset %rbp, -16
	movq	%rsp, %rbp
	.cfi_def_cfa_register %rbp
	pushq	%r15
	pushq	%r14
	pushq	%r12
	pushq	%rbx
	subq	$816, %rsp              # imm = 0x330
	.cfi_offset %rbx, -48
	.cfi_offset %r12, -40
	.cfi_offset %r14, -32
	.cfi_offset %r15, -24
	movl	$24601, %eax            # imm = 0x6019
	movl	%eax, %r8d
	movl	$64, %eax
	movl	%eax, %r9d
	movl	$1, %eax
	movl	%eax, %r10d
	movabsq	$.L.str.94, %r11
	xorl	%eax, %eax
	movl	%eax, %ebx
	movabsq	$.L.str.5, %r14
.Ltmp61:
	.loc	1 75 17 prologue_end    # ss_sort.c:75:17
	movq	%rdi, -40(%rbp)         # 8-byte Spill
	movq	%r8, %rdi
	movq	%rsi, -48(%rbp)         # 8-byte Spill
	movq	%r9, %rsi
	movq	-40(%rbp), %r8          # 8-byte Reload
	movq	%rdx, -56(%rbp)         # 8-byte Spill
	movq	%r8, %rdx
	movl	%ecx, -60(%rbp)         # 4-byte Spill
	movq	%r10, %rcx
	movq	%r11, %r8
	movq	%rbx, %r9
	movq	%r14, (%rsp)
	callq	trace_logger_log_ptr
	movl	$24601, %eax            # imm = 0x6019
	movl	%eax, %edi
	movl	$64, %eax
	movl	%eax, %esi
	movl	$1, %eax
	movl	%eax, %ecx
	movabsq	$.L.str.31, %r8
	xorl	%eax, %eax
	movl	%eax, %r9d
	movabsq	$.L.str.5, %rdx
	movq	-48(%rbp), %r10         # 8-byte Reload
	movq	%rdx, -72(%rbp)         # 8-byte Spill
	movq	%r10, %rdx
	movq	-72(%rbp), %r11         # 8-byte Reload
	movq	%r11, (%rsp)
	callq	trace_logger_log_ptr
	movl	$24601, %eax            # imm = 0x6019
	movl	%eax, %edi
	movl	$64, %eax
	movl	%eax, %esi
	movl	$1, %eax
	movl	%eax, %ecx
	movabsq	$.L.str.17, %r8
	xorl	%eax, %eax
	movl	%eax, %r9d
	movabsq	$.L.str.5, %rdx
	movq	-56(%rbp), %r10         # 8-byte Reload
	movq	%rdx, -80(%rbp)         # 8-byte Spill
	movq	%r10, %rdx
	movq	-80(%rbp), %r11         # 8-byte Reload
	movq	%r11, (%rsp)
	callq	trace_logger_log_ptr
	movl	$24601, %eax            # imm = 0x6019
	movl	%eax, %edi
	movl	$32, %eax
	movl	%eax, %esi
	movl	$1, %eax
	movl	%eax, %ecx
	movabsq	$.L.str.75, %r8
	xorl	%eax, %eax
	movl	%eax, %r9d
	movabsq	$.L.str.5, %rdx
	movl	-60(%rbp), %eax         # 4-byte Reload
	movl	%eax, %r15d
	movl	%r15d, %r10d
	movq	%rdx, -88(%rbp)         # 8-byte Spill
	movq	%r10, %rdx
	movq	-88(%rbp), %r10         # 8-byte Reload
	movq	%r10, (%rsp)
	callq	trace_logger_log_int
	movl	$79, %eax
	movl	%eax, %edi
	movabsq	$.L.str.85, %rsi
	movabsq	$.L.str.2, %rdx
	movabsq	$.L.str.86, %rcx
	movl	$2, %eax
	movl	%eax, %r8d
	xorl	%r9d, %r9d
	movl	$1, %eax
	#DEBUG_VALUE: update:b <- [DW_OP_constu 40, DW_OP_minus] [%rbp+0]
	#DEBUG_VALUE: update:bucket <- [DW_OP_constu 48, DW_OP_minus] [%rbp+0]
	#DEBUG_VALUE: update:a <- [DW_OP_constu 56, DW_OP_minus] [%rbp+0]
	#DEBUG_VALUE: update:exp <- [DW_OP_constu 60, DW_OP_minus] [%rbp+0]
.Ltmp62:
	#DEBUG_VALUE: update:blockID <- 0
	#DEBUG_VALUE: update:maskID <- 0
	#DEBUG_VALUE: update:blockID <- 0
	.loc	1 79 9                  # ss_sort.c:79:9
	movl	$1, (%rsp)
	movl	%eax, -92(%rbp)         # 4-byte Spill
	callq	trace_logger_log0
	movl	$1, %eax
	movl	%eax, %ecx
	xorl	%eax, %eax
	movl	%eax, %edx
	movabsq	$.L.str.12, %r8
	movabsq	$.L.str.5, %rsi
	movq	%rcx, %rdi
	movq	%rsi, -104(%rbp)        # 8-byte Spill
	movq	%rdx, %rsi
	movq	%rdx, -112(%rbp)        # 8-byte Spill
	movq	-112(%rbp), %r9         # 8-byte Reload
	movq	-104(%rbp), %r10        # 8-byte Reload
	movq	%r10, (%rsp)
	callq	trace_logger_log_int
	xorl	%eax, %eax
	movl	%eax, %ecx
	movq	%rcx, -120(%rbp)        # 8-byte Spill
.Ltmp63:
.LBB6_1:                                # =>This Loop Header: Depth=1
                                        #     Child Loop BB6_2 Depth 2
	#DEBUG_VALUE: update:exp <- [DW_OP_constu 60, DW_OP_minus] [%rbp+0]
	#DEBUG_VALUE: update:a <- [DW_OP_constu 56, DW_OP_minus] [%rbp+0]
	#DEBUG_VALUE: update:bucket <- [DW_OP_constu 48, DW_OP_minus] [%rbp+0]
	#DEBUG_VALUE: update:b <- [DW_OP_constu 40, DW_OP_minus] [%rbp+0]
	.loc	1 0 9 is_stmt 0         # ss_sort.c:0:9
	movq	-120(%rbp), %rax        # 8-byte Reload
	movq	$-1, %rdi
	movabsq	$.L.str.85, %rsi
	movabsq	$.L.str.12, %rdx
	movabsq	$.L.str.87, %rcx
	movl	$53, %r8d
                                        # kill: def %r8 killed %r8d
	xorl	%r9d, %r9d
	movl	$1, %r10d
	.loc	1 77 20 is_stmt 1       # ss_sort.c:77:20
	movl	$1, (%rsp)
	movq	%rax, -128(%rbp)        # 8-byte Spill
	movl	%r10d, -132(%rbp)       # 4-byte Spill
	callq	trace_logger_log0
	movl	$2, %r9d
	movl	%r9d, %edi
	movl	$64, %r9d
	movl	%r9d, %esi
	xorl	%r9d, %r9d
	movl	%r9d, %edx
	movl	$1, %r9d
	movl	%r9d, %eax
	movabsq	$.L.str.88, %r8
	movabsq	$.L.str.73, %rcx
	movq	%rcx, -144(%rbp)        # 8-byte Spill
	movq	%rax, %rcx
	movq	%rax, %r9
	movq	-144(%rbp), %rax        # 8-byte Reload
	movq	%rax, (%rsp)
	callq	trace_logger_log_int
	movl	$1, %r10d
	movl	%r10d, %eax
	movl	$64, %r10d
	movl	%r10d, %esi
	xorl	%r10d, %r10d
	movl	%r10d, %ecx
	movabsq	$.L.str.15, %r8
	movabsq	$.L.str.2, %rdx
	movq	%rax, %rdi
	movq	%rdx, -152(%rbp)        # 8-byte Spill
	movq	%rcx, %rdx
	movq	%rax, %r9
	movq	-152(%rbp), %rax        # 8-byte Reload
	movq	%rax, (%rsp)
	callq	trace_logger_log_int
	movl	$19134, %r10d           # imm = 0x4ABE
	movl	%r10d, %edi
	movl	$64, %r10d
	movl	%r10d, %esi
	movl	$1, %r10d
	movl	%r10d, %ecx
	movabsq	$.L.str.87, %r8
	xorl	%r10d, %r10d
	movl	%r10d, %r9d
	movabsq	$.L.str.2, %rax
	movq	-128(%rbp), %rdx        # 8-byte Reload
	movq	%rax, (%rsp)
	callq	trace_logger_log_int
	movq	$-1, %rdi
	movabsq	$.L.str.85, %rsi
	movabsq	$.L.str.12, %rdx
	movabsq	$.L.str.18, %rcx
	movl	$23, %r10d
	movl	%r10d, %r8d
	xorl	%r9d, %r9d
	movl	$1, %r10d
	#DEBUG_VALUE: update:maskID <- 0
.Ltmp64:
	#DEBUG_VALUE: update:blockID <- [DW_OP_constu 128, DW_OP_minus] [%rbp+0]
	.loc	1 0 20 is_stmt 0        # ss_sort.c:0:20
	movl	$1, (%rsp)
	movl	%r10d, -156(%rbp)       # 4-byte Spill
	callq	trace_logger_log0
	movl	$2, %r9d
	movl	%r9d, %eax
	movl	$64, %r9d
	movl	%r9d, %esi
	xorl	%r9d, %r9d
	movl	%r9d, %ecx
	movabsq	$.L.str.15, %r8
	movabsq	$.L.str.5, %rdx
	movq	%rax, %rdi
	movq	%rdx, -168(%rbp)        # 8-byte Spill
	movq	%rax, %rdx
	movq	%rcx, -176(%rbp)        # 8-byte Spill
	movq	-176(%rbp), %r9         # 8-byte Reload
	movq	-168(%rbp), %rax        # 8-byte Reload
	movq	%rax, (%rsp)
	callq	trace_logger_log_int
	movl	$1, %r10d
	movl	%r10d, %eax
	movl	$64, %r10d
	movl	%r10d, %esi
	movabsq	$.L.str.87, %r8
	xorl	%r10d, %r10d
	movl	%r10d, %r9d
	movabsq	$.L.str.5, %rcx
	movq	%rax, %rdi
	movq	-128(%rbp), %rdx        # 8-byte Reload
	movq	%rcx, -184(%rbp)        # 8-byte Spill
	movq	%rax, %rcx
	movq	-184(%rbp), %rax        # 8-byte Reload
	movq	%rax, (%rsp)
	callq	trace_logger_log_int
	movl	$19134, %r10d           # imm = 0x4ABE
	movl	%r10d, %edi
	movl	$64, %r10d
	movl	%r10d, %esi
	movl	$1, %r10d
	movl	%r10d, %ecx
	movabsq	$.L.str.18, %r8
	xorl	%r10d, %r10d
	movl	%r10d, %r9d
	movabsq	$.L.str.5, %rax
	movq	-128(%rbp), %rdx        # 8-byte Reload
	shlq	$2, %rdx
	movq	%rdx, -192(%rbp)        # 8-byte Spill
	movq	%rax, (%rsp)
	callq	trace_logger_log_int
	movq	$-1, %rdi
	movabsq	$.L.str.85, %rsi
	movabsq	$.L.str.12, %rdx
	movabsq	$.L.str.32, %rcx
	movl	$36, %r10d
	movl	%r10d, %r8d
	xorl	%r9d, %r9d
	movl	$1, %r10d
	movl	$1, (%rsp)
	movl	%r10d, -196(%rbp)       # 4-byte Spill
	callq	trace_logger_log0
	movl	$1, %r9d
	movl	%r9d, %eax
	movl	$64, %r9d
	movl	%r9d, %esi
	movabsq	$.L.str.87, %r8
	xorl	%r9d, %r9d
                                        # kill: def %r9 killed %r9d
	movabsq	$.L.str.5, %rcx
	movq	%rax, %rdi
	movq	-128(%rbp), %rdx        # 8-byte Reload
	movq	%rcx, -208(%rbp)        # 8-byte Spill
	movq	%rax, %rcx
	movq	-208(%rbp), %rax        # 8-byte Reload
	movq	%rax, (%rsp)
	callq	trace_logger_log_int
	movl	$19134, %r10d           # imm = 0x4ABE
	movl	%r10d, %edi
	movl	$32, %r10d
	movl	%r10d, %esi
	movl	$1, %r10d
	movl	%r10d, %ecx
	movabsq	$.L.str.32, %r8
	xorl	%r10d, %r10d
	movl	%r10d, %r9d
	movabsq	$.L.str.5, %rax
	movq	-128(%rbp), %rdx        # 8-byte Reload
	movl	%edx, %r10d
.Ltmp65:
	.loc	1 81 12 is_stmt 1       # ss_sort.c:81:12
	movl	%r10d, %r11d
	movl	%r11d, %edx
	movq	%rax, (%rsp)
	movl	%r10d, -212(%rbp)       # 4-byte Spill
	callq	trace_logger_log_int
	movl	$81, %r10d
	movl	%r10d, %edi
	movabsq	$.L.str.85, %rsi
	movabsq	$.L.str.12, %rdx
	movabsq	$.L.str.34, %rcx
	movl	$2, %r10d
	movl	%r10d, %r8d
	xorl	%r9d, %r9d
	movl	$1, %r10d
	movl	$1, (%rsp)
	movl	%r10d, -216(%rbp)       # 4-byte Spill
	callq	trace_logger_log0
	movl	$1, %r9d
	movl	%r9d, %eax
	xorl	%r9d, %r9d
	movl	%r9d, %ecx
	movabsq	$.L.str.35, %r8
	movabsq	$.L.str.5, %rdx
	movq	%rax, %rdi
	movq	%rcx, %rsi
	movq	%rdx, -224(%rbp)        # 8-byte Spill
	movq	%rcx, %rdx
	movq	%rcx, -232(%rbp)        # 8-byte Spill
	movq	%rax, %rcx
	movq	-232(%rbp), %r9         # 8-byte Reload
	movq	-224(%rbp), %rax        # 8-byte Reload
	movq	%rax, (%rsp)
	callq	trace_logger_log_int
	xorl	%r10d, %r10d
	movl	%r10d, %eax
	movq	%rax, -240(%rbp)        # 8-byte Spill
.Ltmp66:
.LBB6_2:                                #   Parent Loop BB6_1 Depth=1
                                        # =>  This Inner Loop Header: Depth=2
	#DEBUG_VALUE: update:blockID <- [DW_OP_constu 128, DW_OP_minus] [%rbp+0]
	#DEBUG_VALUE: update:exp <- [DW_OP_constu 60, DW_OP_minus] [%rbp+0]
	#DEBUG_VALUE: update:a <- [DW_OP_constu 56, DW_OP_minus] [%rbp+0]
	#DEBUG_VALUE: update:bucket <- [DW_OP_constu 48, DW_OP_minus] [%rbp+0]
	#DEBUG_VALUE: update:b <- [DW_OP_constu 40, DW_OP_minus] [%rbp+0]
	.loc	1 0 12 is_stmt 0        # ss_sort.c:0:12
	movq	-240(%rbp), %rax        # 8-byte Reload
	movq	$-1, %rdi
	movabsq	$.L.str.85, %rsi
	movabsq	$.L.str.35, %rdx
	movabsq	$.L.str.13, %rcx
	movl	$53, %r8d
                                        # kill: def %r8 killed %r8d
	xorl	%r9d, %r9d
	movl	$1, %r10d
	.loc	1 77 20 is_stmt 1       # ss_sort.c:77:20
	movl	$1, (%rsp)
	movq	%rax, -248(%rbp)        # 8-byte Spill
	movl	%r10d, -252(%rbp)       # 4-byte Spill
	callq	trace_logger_log0
	movl	$2, %r9d
	movl	%r9d, %edi
	movl	$64, %r9d
	movl	%r9d, %esi
	xorl	%r9d, %r9d
	movl	%r9d, %edx
	movl	$1, %r9d
	movl	%r9d, %eax
	movabsq	$.L.str.14, %r8
	movabsq	$.L.str.35, %rcx
	movq	%rcx, -264(%rbp)        # 8-byte Spill
	movq	%rax, %rcx
	movq	%rax, %r9
	movq	-264(%rbp), %rax        # 8-byte Reload
	movq	%rax, (%rsp)
	callq	trace_logger_log_int
	movl	$1, %r10d
	movl	%r10d, %eax
	movl	$64, %r10d
	movl	%r10d, %esi
	xorl	%r10d, %r10d
	movl	%r10d, %ecx
	movabsq	$.L.str.15, %r8
	movabsq	$.L.str.12, %rdx
	movq	%rax, %rdi
	movq	%rdx, -272(%rbp)        # 8-byte Spill
	movq	%rcx, %rdx
	movq	%rax, %r9
	movq	-272(%rbp), %rax        # 8-byte Reload
	movq	%rax, (%rsp)
	callq	trace_logger_log_int
	movl	$19134, %r10d           # imm = 0x4ABE
	movl	%r10d, %edi
	movl	$64, %r10d
	movl	%r10d, %esi
	movl	$1, %r10d
	movl	%r10d, %ecx
	movabsq	$.L.str.13, %r8
	xorl	%r10d, %r10d
	movl	%r10d, %r9d
	movabsq	$.L.str.12, %rax
	movq	-248(%rbp), %rdx        # 8-byte Reload
	movq	%rax, (%rsp)
	callq	trace_logger_log_int
	movl	$82, %r10d
	movl	%r10d, %edi
	movabsq	$.L.str.85, %rsi
	movabsq	$.L.str.35, %rdx
	movabsq	$.L.str.38, %rcx
	movl	$11, %r10d
	movl	%r10d, %r8d
	xorl	%r9d, %r9d
	movl	$1, %r10d
.Ltmp67:
	#DEBUG_VALUE: update:maskID <- [DW_OP_constu 248, DW_OP_minus] [%rbp+0]
	.loc	1 82 51                 # ss_sort.c:82:51
	movl	$1, (%rsp)
	movl	%r10d, -276(%rbp)       # 4-byte Spill
	callq	trace_logger_log0
	movl	$2, %r9d
	movl	%r9d, %edi
	movl	$64, %r9d
	movl	%r9d, %esi
	movl	$1, %r9d
	movl	%r9d, %ecx
	movabsq	$.L.str.18, %r8
	xorl	%r9d, %r9d
                                        # kill: def %r9 killed %r9d
	movabsq	$.L.str.5, %rax
	movq	-192(%rbp), %rdx        # 8-byte Reload
	movq	%rax, (%rsp)
	callq	trace_logger_log_int
	movl	$1, %r10d
	movl	%r10d, %eax
	movl	$64, %r10d
	movl	%r10d, %esi
	movabsq	$.L.str.13, %r8
	xorl	%r10d, %r10d
	movl	%r10d, %r9d
	movabsq	$.L.str.5, %rcx
	movq	%rax, %rdi
	movq	-248(%rbp), %rdx        # 8-byte Reload
	movq	%rcx, -288(%rbp)        # 8-byte Spill
	movq	%rax, %rcx
	movq	-288(%rbp), %rax        # 8-byte Reload
	movq	%rax, (%rsp)
	callq	trace_logger_log_int
	movl	$19134, %r10d           # imm = 0x4ABE
	movl	%r10d, %edi
	movl	$64, %r10d
	movl	%r10d, %esi
	movl	$1, %r10d
	movl	%r10d, %ecx
	movabsq	$.L.str.38, %r8
	xorl	%r10d, %r10d
	movl	%r10d, %r9d
	movabsq	$.L.str.5, %rax
	movq	-248(%rbp), %rdx        # 8-byte Reload
	movq	-192(%rbp), %r11        # 8-byte Reload
	addq	%r11, %rdx
	.loc	1 82 22 is_stmt 0       # ss_sort.c:82:22
	movq	%rdx, -296(%rbp)        # 8-byte Spill
	movq	%rax, (%rsp)
	callq	trace_logger_log_int
	movl	$82, %r10d
	movl	%r10d, %edi
	movabsq	$.L.str.85, %rsi
	movabsq	$.L.str.35, %rdx
	movabsq	$.L.str.16, %rcx
	movl	$32, %r10d
	movl	%r10d, %r8d
	xorl	%r9d, %r9d
	movl	$1, %r10d
	movl	$1, (%rsp)
	movl	%r10d, -300(%rbp)       # 4-byte Spill
	callq	trace_logger_log0
	movl	$2, %r9d
	movl	%r9d, %edi
	movl	$64, %r9d
	movl	%r9d, %esi
	movl	$1, %r9d
	movl	%r9d, %ecx
	movabsq	$.L.str.38, %r8
	xorl	%r9d, %r9d
                                        # kill: def %r9 killed %r9d
	movabsq	$.L.str.5, %rax
	movq	-296(%rbp), %rdx        # 8-byte Reload
	movq	%rax, (%rsp)
	callq	trace_logger_log_int
	movl	$1, %r10d
	movl	%r10d, %eax
	movl	$64, %r10d
	movl	%r10d, %esi
	movabsq	$.L.str.17, %r8
	xorl	%r10d, %r10d
	movl	%r10d, %r9d
	movabsq	$.L.str.5, %rcx
	movq	%rax, %rdi
	movq	-56(%rbp), %rdx         # 8-byte Reload
	movq	%rcx, -312(%rbp)        # 8-byte Spill
	movq	%rax, %rcx
	movq	-312(%rbp), %rax        # 8-byte Reload
	movq	%rax, (%rsp)
	callq	trace_logger_log_ptr
	movl	$19134, %r10d           # imm = 0x4ABE
	movl	%r10d, %edi
	movl	$64, %r10d
	movl	%r10d, %esi
	movl	$1, %r10d
	movl	%r10d, %ecx
	movabsq	$.L.str.16, %r8
	xorl	%r10d, %r10d
	movl	%r10d, %r9d
	movabsq	$.L.str.5, %rax
	movq	-296(%rbp), %rdx        # 8-byte Reload
	shlq	$2, %rdx
	movq	-56(%rbp), %r11         # 8-byte Reload
	addq	%rdx, %r11
	movq	%r11, %rdx
	movq	%rax, (%rsp)
	movq	%r11, -320(%rbp)        # 8-byte Spill
	callq	trace_logger_log_ptr
	movl	$82, %r10d
	movl	%r10d, %edi
	movabsq	$.L.str.85, %rsi
	movabsq	$.L.str.35, %rdx
	movabsq	$.L.str.89, %rcx
	movl	$30, %r10d
	movl	%r10d, %r8d
	xorl	%r9d, %r9d
	movl	$1, %r10d
	movl	$1, (%rsp)
	movl	%r10d, -324(%rbp)       # 4-byte Spill
	callq	trace_logger_log0
	movl	$1, %r9d
	movl	%r9d, %eax
	movl	$64, %r9d
	movl	%r9d, %esi
	movabsq	$.L.str.16, %r8
	xorl	%r9d, %r9d
                                        # kill: def %r9 killed %r9d
	movabsq	$.L.str.5, %rcx
	movq	%rax, %rdi
	movq	-320(%rbp), %rdx        # 8-byte Reload
	movq	%rcx, -336(%rbp)        # 8-byte Spill
	movq	%rax, %rcx
	movq	-336(%rbp), %rax        # 8-byte Reload
	movq	%rax, (%rsp)
	callq	trace_logger_log_ptr
	movl	$19134, %r10d           # imm = 0x4ABE
	movl	%r10d, %edi
	movl	$32, %r10d
	movl	%r10d, %esi
	movl	$1, %r10d
	movl	%r10d, %ecx
	movabsq	$.L.str.89, %r8
	xorl	%r10d, %r10d
	movl	%r10d, %r9d
	movabsq	$.L.str.5, %rax
	movq	-56(%rbp), %rdx         # 8-byte Reload
	movq	-296(%rbp), %r11        # 8-byte Reload
	movl	(%rdx,%r11,4), %r10d
	.loc	1 82 11                 # ss_sort.c:82:11
	movl	%r10d, %ebx
	movl	%ebx, %edx
	movq	%rax, (%rsp)
	movl	%r10d, -340(%rbp)       # 4-byte Spill
	callq	trace_logger_log_int
	movl	$83, %r10d
	movl	%r10d, %edi
	movabsq	$.L.str.85, %rsi
	movabsq	$.L.str.35, %rdx
	movabsq	$.L.str.74, %rcx
	movl	$25, %r10d
	movl	%r10d, %r8d
	xorl	%r9d, %r9d
	movl	$1, %r10d
.Ltmp68:
	#DEBUG_VALUE: a_value <- [DW_OP_constu 340, DW_OP_minus] [%rbp+0]
	.loc	1 83 43 is_stmt 1       # ss_sort.c:83:43
	movl	$1, (%rsp)
	movl	%r10d, -344(%rbp)       # 4-byte Spill
	callq	trace_logger_log0
	movl	$2, %r9d
	movl	%r9d, %edi
	movl	$32, %r9d
	movl	%r9d, %esi
	movl	$1, %r9d
	movl	%r9d, %ecx
	movabsq	$.L.str.75, %r8
	xorl	%r9d, %r9d
                                        # kill: def %r9 killed %r9d
	movabsq	$.L.str.5, %rax
	movl	-60(%rbp), %r10d        # 4-byte Reload
	movl	%r10d, %ebx
	movl	%ebx, %edx
	movq	%rax, (%rsp)
	callq	trace_logger_log_int
	movl	$1, %r10d
	movl	%r10d, %eax
	movl	$32, %r10d
	movl	%r10d, %esi
	movabsq	$.L.str.89, %r8
	xorl	%r10d, %r10d
	movl	%r10d, %r9d
	movabsq	$.L.str.5, %rcx
	movl	-340(%rbp), %r10d       # 4-byte Reload
	movl	%r10d, %ebx
	movl	%ebx, %edx
	movq	%rax, %rdi
	movq	%rcx, -352(%rbp)        # 8-byte Spill
	movq	%rax, %rcx
	movq	-352(%rbp), %rax        # 8-byte Reload
	movq	%rax, (%rsp)
	callq	trace_logger_log_int
	movl	$19134, %r10d           # imm = 0x4ABE
	movl	%r10d, %edi
	movl	$32, %r10d
	movl	%r10d, %esi
	movl	$1, %r10d
	movl	%r10d, %ecx
	movabsq	$.L.str.74, %r8
	xorl	%r10d, %r10d
	movl	%r10d, %r9d
	movabsq	$.L.str.5, %rax
	movl	-60(%rbp), %r10d        # 4-byte Reload
	movq	%rcx, -360(%rbp)        # 8-byte Spill
	movl	%r10d, %ecx
                                        # kill: def %cl killed %ecx
	movl	-340(%rbp), %ebx        # 4-byte Reload
	sarl	%cl, %ebx
	.loc	1 83 59 is_stmt 0       # ss_sort.c:83:59
	movl	%ebx, %r14d
	movl	%r14d, %edx
	movq	-360(%rbp), %rcx        # 8-byte Reload
	movq	%rax, (%rsp)
	movl	%ebx, -364(%rbp)        # 4-byte Spill
	callq	trace_logger_log_int
	movl	$83, %r10d
	movl	%r10d, %edi
	movabsq	$.L.str.85, %rsi
	movabsq	$.L.str.35, %rdx
	movabsq	$.L.str.76, %rcx
	movl	$23, %r10d
	movl	%r10d, %r8d
	xorl	%r9d, %r9d
	movl	$1, %r10d
	movl	$1, (%rsp)
	movl	%r10d, -368(%rbp)       # 4-byte Spill
	callq	trace_logger_log0
	movl	$2, %r9d
	movl	%r9d, %edi
	movl	$32, %r9d
	movl	%r9d, %esi
	movl	$9, %r9d
	movl	%r9d, %edx
	xorl	%r9d, %r9d
	movl	%r9d, %eax
	movabsq	$.L.str.15, %r8
	movabsq	$.L.str.5, %rcx
	movq	%rcx, -376(%rbp)        # 8-byte Spill
	movq	%rax, %rcx
	movq	%rax, %r9
	movq	-376(%rbp), %rax        # 8-byte Reload
	movq	%rax, (%rsp)
	callq	trace_logger_log_int
	movl	$1, %r10d
	movl	%r10d, %eax
	movl	$32, %r10d
	movl	%r10d, %esi
	movabsq	$.L.str.74, %r8
	xorl	%r10d, %r10d
	movl	%r10d, %r9d
	movabsq	$.L.str.5, %rcx
	movl	-364(%rbp), %r10d       # 4-byte Reload
	movl	%r10d, %ebx
	movl	%ebx, %edx
	movq	%rax, %rdi
	movq	%rcx, -384(%rbp)        # 8-byte Spill
	movq	%rax, %rcx
	movq	-384(%rbp), %rax        # 8-byte Reload
	movq	%rax, (%rsp)
	callq	trace_logger_log_int
	movl	$19134, %r10d           # imm = 0x4ABE
	movl	%r10d, %edi
	movl	$32, %r10d
	movl	%r10d, %esi
	movl	$1, %r10d
	movl	%r10d, %ecx
	movabsq	$.L.str.76, %r8
	xorl	%r10d, %r10d
	movl	%r10d, %r9d
	movabsq	$.L.str.5, %rax
	movl	-364(%rbp), %r10d       # 4-byte Reload
	shll	$9, %r10d
	movl	%r10d, %ebx
	movl	%ebx, %edx
	movq	%rax, (%rsp)
	movl	%r10d, -388(%rbp)       # 4-byte Spill
	callq	trace_logger_log_int
	movl	$83, %r10d
	movl	%r10d, %edi
	movabsq	$.L.str.85, %rsi
	movabsq	$.L.str.35, %rdx
	movabsq	$.L.str.77, %rcx
	movl	$26, %r10d
	movl	%r10d, %r8d
	xorl	%r9d, %r9d
	movl	$1, %r10d
	movl	$1, (%rsp)
	movl	%r10d, -392(%rbp)       # 4-byte Spill
	callq	trace_logger_log0
	movl	$2, %r9d
	movl	%r9d, %edi
	movl	$32, %r9d
	movl	%r9d, %esi
	movl	$1536, %r9d             # imm = 0x600
	movl	%r9d, %edx
	xorl	%r9d, %r9d
	movl	%r9d, %eax
	movabsq	$.L.str.15, %r8
	movabsq	$.L.str.5, %rcx
	movq	%rcx, -400(%rbp)        # 8-byte Spill
	movq	%rax, %rcx
	movq	%rax, %r9
	movq	-400(%rbp), %rax        # 8-byte Reload
	movq	%rax, (%rsp)
	callq	trace_logger_log_int
	movl	$1, %r10d
	movl	%r10d, %eax
	movl	$32, %r10d
	movl	%r10d, %esi
	movabsq	$.L.str.76, %r8
	xorl	%r10d, %r10d
	movl	%r10d, %r9d
	movabsq	$.L.str.5, %rcx
	movl	-388(%rbp), %r10d       # 4-byte Reload
	movl	%r10d, %ebx
	movl	%ebx, %edx
	movq	%rax, %rdi
	movq	%rcx, -408(%rbp)        # 8-byte Spill
	movq	%rax, %rcx
	movq	-408(%rbp), %rax        # 8-byte Reload
	movq	%rax, (%rsp)
	callq	trace_logger_log_int
	movl	$19134, %r10d           # imm = 0x4ABE
	movl	%r10d, %edi
	movl	$32, %r10d
	movl	%r10d, %esi
	movl	$1, %r10d
	movl	%r10d, %ecx
	movabsq	$.L.str.77, %r8
	xorl	%r10d, %r10d
	movl	%r10d, %r9d
	movabsq	$.L.str.5, %rax
	movl	-388(%rbp), %r10d       # 4-byte Reload
	andl	$1536, %r10d            # imm = 0x600
	.loc	1 83 73                 # ss_sort.c:83:73
	movl	%r10d, %ebx
	movl	%ebx, %edx
	movq	%rax, (%rsp)
	movl	%r10d, -412(%rbp)       # 4-byte Spill
	callq	trace_logger_log_int
	movl	$83, %r10d
	movl	%r10d, %edi
	movabsq	$.L.str.85, %rsi
	movabsq	$.L.str.35, %rdx
	movabsq	$.L.str.90, %rcx
	movl	$11, %r10d
	movl	%r10d, %r8d
	xorl	%r9d, %r9d
	movl	$1, %r10d
	movl	$1, (%rsp)
	movl	%r10d, -416(%rbp)       # 4-byte Spill
	callq	trace_logger_log0
	movl	$2, %r9d
	movl	%r9d, %edi
	movl	$32, %r9d
	movl	%r9d, %esi
	movl	$1, %r9d
	movl	%r9d, %ecx
	movabsq	$.L.str.32, %r8
	xorl	%r9d, %r9d
                                        # kill: def %r9 killed %r9d
	movabsq	$.L.str.5, %rax
	movl	-212(%rbp), %r10d       # 4-byte Reload
	movl	%r10d, %ebx
	movl	%ebx, %edx
	movq	%rax, (%rsp)
	callq	trace_logger_log_int
	movl	$1, %r10d
	movl	%r10d, %eax
	movl	$32, %r10d
	movl	%r10d, %esi
	movabsq	$.L.str.77, %r8
	xorl	%r10d, %r10d
	movl	%r10d, %r9d
	movabsq	$.L.str.5, %rcx
	movl	-412(%rbp), %r10d       # 4-byte Reload
	movl	%r10d, %ebx
	movl	%ebx, %edx
	movq	%rax, %rdi
	movq	%rcx, -424(%rbp)        # 8-byte Spill
	movq	%rax, %rcx
	movq	-424(%rbp), %rax        # 8-byte Reload
	movq	%rax, (%rsp)
	callq	trace_logger_log_int
	movl	$19134, %r10d           # imm = 0x4ABE
	movl	%r10d, %edi
	movl	$32, %r10d
	movl	%r10d, %esi
	movl	$1, %r10d
	movl	%r10d, %ecx
	movabsq	$.L.str.90, %r8
	xorl	%r10d, %r10d
	movl	%r10d, %r9d
	movabsq	$.L.str.5, %rax
	movl	-412(%rbp), %r10d       # 4-byte Reload
	movl	-212(%rbp), %ebx        # 4-byte Reload
	addl	%ebx, %r10d
	.loc	1 83 26                 # ss_sort.c:83:26
	movl	%r10d, %r14d
	movl	%r14d, %edx
	movq	%rax, (%rsp)
	movl	%r10d, -428(%rbp)       # 4-byte Spill
	callq	trace_logger_log_int
	movl	$83, %r10d
	movl	%r10d, %edi
	movabsq	$.L.str.85, %rsi
	movabsq	$.L.str.35, %rdx
	movabsq	$.L.str.78, %rcx
	movl	$37, %r10d
	movl	%r10d, %r8d
	xorl	%r9d, %r9d
	movl	$1, %r10d
	movl	$1, (%rsp)
	movl	%r10d, -432(%rbp)       # 4-byte Spill
	callq	trace_logger_log0
	movl	$1, %r9d
	movl	%r9d, %eax
	movl	$32, %r9d
	movl	%r9d, %esi
	movabsq	$.L.str.90, %r8
	xorl	%r9d, %r9d
                                        # kill: def %r9 killed %r9d
	movabsq	$.L.str.5, %rcx
	movl	-428(%rbp), %r10d       # 4-byte Reload
	movl	%r10d, %ebx
	movl	%ebx, %edx
	movq	%rax, %rdi
	movq	%rcx, -440(%rbp)        # 8-byte Spill
	movq	%rax, %rcx
	movq	-440(%rbp), %rax        # 8-byte Reload
	movq	%rax, (%rsp)
	callq	trace_logger_log_int
	movl	$19134, %r10d           # imm = 0x4ABE
	movl	%r10d, %edi
	movl	$64, %r10d
	movl	%r10d, %esi
	movl	$1, %r10d
	movl	%r10d, %ecx
	movabsq	$.L.str.78, %r8
	xorl	%r10d, %r10d
	movl	%r10d, %r9d
	movabsq	$.L.str.5, %rax
	movl	-428(%rbp), %r10d       # 4-byte Reload
	movl	%r10d, %ebx
	movl	%ebx, %edx
	movq	%rdx, -448(%rbp)        # 8-byte Spill
	movq	%rax, (%rsp)
	callq	trace_logger_log_int
	movl	$83, %r10d
	movl	%r10d, %edi
	movabsq	$.L.str.85, %rsi
	movabsq	$.L.str.35, %rdx
	movabsq	$.L.str.39, %rcx
	movl	$32, %r10d
	movl	%r10d, %r8d
	xorl	%r9d, %r9d
	movl	$1, %r10d
	movl	$1, (%rsp)
	movl	%r10d, -452(%rbp)       # 4-byte Spill
	callq	trace_logger_log0
	movl	$2, %r9d
	movl	%r9d, %edi
	movl	$64, %r9d
	movl	%r9d, %esi
	movl	$1, %r9d
	movl	%r9d, %ecx
	movabsq	$.L.str.78, %r8
	xorl	%r9d, %r9d
                                        # kill: def %r9 killed %r9d
	movabsq	$.L.str.5, %rax
	movq	-448(%rbp), %rdx        # 8-byte Reload
	movq	%rax, (%rsp)
	callq	trace_logger_log_int
	movl	$1, %r10d
	movl	%r10d, %eax
	movl	$64, %r10d
	movl	%r10d, %esi
	movabsq	$.L.str.31, %r8
	xorl	%r10d, %r10d
	movl	%r10d, %r9d
	movabsq	$.L.str.5, %rcx
	movq	%rax, %rdi
	movq	-48(%rbp), %rdx         # 8-byte Reload
	movq	%rcx, -464(%rbp)        # 8-byte Spill
	movq	%rax, %rcx
	movq	-464(%rbp), %rax        # 8-byte Reload
	movq	%rax, (%rsp)
	callq	trace_logger_log_ptr
	movl	$19134, %r10d           # imm = 0x4ABE
	movl	%r10d, %edi
	movl	$64, %r10d
	movl	%r10d, %esi
	movl	$1, %r10d
	movl	%r10d, %ecx
	movabsq	$.L.str.39, %r8
	xorl	%r10d, %r10d
	movl	%r10d, %r9d
	movabsq	$.L.str.5, %rax
	movq	-448(%rbp), %rdx        # 8-byte Reload
	shlq	$2, %rdx
	movq	-48(%rbp), %r11         # 8-byte Reload
	addq	%rdx, %r11
	movq	%r11, %rdx
	movq	%rax, (%rsp)
	movq	%r11, -472(%rbp)        # 8-byte Spill
	callq	trace_logger_log_ptr
	movl	$83, %r10d
	movl	%r10d, %edi
	movabsq	$.L.str.85, %rsi
	movabsq	$.L.str.35, %rdx
	movabsq	$.L.str.91, %rcx
	movl	$30, %r10d
	movl	%r10d, %r8d
	xorl	%r9d, %r9d
	movl	$1, %r10d
	movl	$1, (%rsp)
	movl	%r10d, -476(%rbp)       # 4-byte Spill
	callq	trace_logger_log0
	movl	$1, %r9d
	movl	%r9d, %eax
	movl	$64, %r9d
	movl	%r9d, %esi
	movabsq	$.L.str.39, %r8
	xorl	%r9d, %r9d
                                        # kill: def %r9 killed %r9d
	movabsq	$.L.str.5, %rcx
	movq	%rax, %rdi
	movq	-472(%rbp), %rdx        # 8-byte Reload
	movq	%rcx, -488(%rbp)        # 8-byte Spill
	movq	%rax, %rcx
	movq	-488(%rbp), %rax        # 8-byte Reload
	movq	%rax, (%rsp)
	callq	trace_logger_log_ptr
	movl	$19134, %r10d           # imm = 0x4ABE
	movl	%r10d, %edi
	movl	$32, %r10d
	movl	%r10d, %esi
	movl	$1, %r10d
	movl	%r10d, %ecx
	movabsq	$.L.str.91, %r8
	xorl	%r10d, %r10d
	movl	%r10d, %r9d
	movabsq	$.L.str.5, %rax
	movq	-48(%rbp), %rdx         # 8-byte Reload
	movq	-448(%rbp), %r11        # 8-byte Reload
	movl	(%rdx,%r11,4), %r10d
	.loc	1 83 11                 # ss_sort.c:83:11
	movl	%r10d, %ebx
	movl	%ebx, %edx
	movq	%rax, (%rsp)
	movl	%r10d, -492(%rbp)       # 4-byte Spill
	callq	trace_logger_log_int
	movl	$84, %r10d
	movl	%r10d, %edi
	movabsq	$.L.str.85, %rsi
	movabsq	$.L.str.35, %rdx
	movabsq	$.L.str.92, %rcx
	movl	$38, %r10d
	movl	%r10d, %r8d
	xorl	%r9d, %r9d
	movl	$1, %r10d
.Ltmp69:
	#DEBUG_VALUE: bucket_value <- [DW_OP_constu 492, DW_OP_minus] [%rbp+0]
	.loc	1 84 7 is_stmt 1        # ss_sort.c:84:7
	movl	$1, (%rsp)
	movl	%r10d, -496(%rbp)       # 4-byte Spill
	callq	trace_logger_log0
	movl	$1, %r9d
	movl	%r9d, %eax
	movl	$32, %r9d
	movl	%r9d, %esi
	movabsq	$.L.str.91, %r8
	xorl	%r9d, %r9d
                                        # kill: def %r9 killed %r9d
	movabsq	$.L.str.5, %rcx
	movl	-492(%rbp), %r10d       # 4-byte Reload
	movl	%r10d, %ebx
	movl	%ebx, %edx
	movq	%rax, %rdi
	movq	%rcx, -504(%rbp)        # 8-byte Spill
	movq	%rax, %rcx
	movq	-504(%rbp), %rax        # 8-byte Reload
	movq	%rax, (%rsp)
	callq	trace_logger_log_int
	movl	$19134, %r10d           # imm = 0x4ABE
	movl	%r10d, %edi
	movl	$64, %r10d
	movl	%r10d, %esi
	movl	$1, %r10d
	movl	%r10d, %ecx
	movabsq	$.L.str.92, %r8
	xorl	%r10d, %r10d
	movl	%r10d, %r9d
	movabsq	$.L.str.5, %rax
	movl	-492(%rbp), %r10d       # 4-byte Reload
	movslq	%r10d, %rdx
	movq	%rdx, -512(%rbp)        # 8-byte Spill
	movq	%rax, (%rsp)
	callq	trace_logger_log_int
	movl	$84, %r10d
	movl	%r10d, %edi
	movabsq	$.L.str.85, %rsi
	movabsq	$.L.str.35, %rdx
	movabsq	$.L.str.93, %rcx
	movl	$32, %r10d
	movl	%r10d, %r8d
	xorl	%r9d, %r9d
	movl	$1, %r10d
	movl	$1, (%rsp)
	movl	%r10d, -516(%rbp)       # 4-byte Spill
	callq	trace_logger_log0
	movl	$2, %r9d
	movl	%r9d, %edi
	movl	$64, %r9d
	movl	%r9d, %esi
	movl	$1, %r9d
	movl	%r9d, %ecx
	movabsq	$.L.str.92, %r8
	xorl	%r9d, %r9d
                                        # kill: def %r9 killed %r9d
	movabsq	$.L.str.5, %rax
	movq	-512(%rbp), %rdx        # 8-byte Reload
	movq	%rax, (%rsp)
	callq	trace_logger_log_int
	movl	$1, %r10d
	movl	%r10d, %eax
	movl	$64, %r10d
	movl	%r10d, %esi
	movabsq	$.L.str.94, %r8
	xorl	%r10d, %r10d
	movl	%r10d, %r9d
	movabsq	$.L.str.5, %rcx
	movq	%rax, %rdi
	movq	-40(%rbp), %rdx         # 8-byte Reload
	movq	%rcx, -528(%rbp)        # 8-byte Spill
	movq	%rax, %rcx
	movq	-528(%rbp), %rax        # 8-byte Reload
	movq	%rax, (%rsp)
	callq	trace_logger_log_ptr
	movl	$19134, %r10d           # imm = 0x4ABE
	movl	%r10d, %edi
	movl	$64, %r10d
	movl	%r10d, %esi
	movl	$1, %r10d
	movl	%r10d, %ecx
	movabsq	$.L.str.93, %r8
	xorl	%r10d, %r10d
	movl	%r10d, %r9d
	movabsq	$.L.str.5, %rax
	movq	-512(%rbp), %rdx        # 8-byte Reload
	shlq	$2, %rdx
	movq	-40(%rbp), %r11         # 8-byte Reload
	addq	%rdx, %r11
	.loc	1 84 23 is_stmt 0       # ss_sort.c:84:23
	movq	%r11, %rdx
	movq	%rax, (%rsp)
	movq	%r11, -536(%rbp)        # 8-byte Spill
	callq	trace_logger_log_ptr
	movl	$84, %r10d
	movl	%r10d, %edi
	movabsq	$.L.str.85, %rsi
	movabsq	$.L.str.35, %rdx
	movabsq	$.L.str.95, %rcx
	movl	$31, %r10d
	movl	%r10d, %r8d
	xorl	%r9d, %r9d
	movl	$1, %r10d
	movl	$1, (%rsp)
	movl	%r10d, -540(%rbp)       # 4-byte Spill
	callq	trace_logger_log0
	movl	$2, %r9d
	movl	%r9d, %edi
	movl	$64, %r9d
	movl	%r9d, %esi
	movl	$1, %r9d
	movl	%r9d, %ecx
	movabsq	$.L.str.93, %r8
	xorl	%r9d, %r9d
                                        # kill: def %r9 killed %r9d
	movabsq	$.L.str.5, %rax
	movq	-536(%rbp), %rdx        # 8-byte Reload
	movq	%rax, (%rsp)
	callq	trace_logger_log_ptr
	movl	$1, %r10d
	movl	%r10d, %eax
	movl	$32, %r10d
	movl	%r10d, %esi
	movabsq	$.L.str.89, %r8
	xorl	%r10d, %r10d
	movl	%r10d, %r9d
	movabsq	$.L.str.5, %rcx
	movl	-340(%rbp), %r10d       # 4-byte Reload
	movl	%r10d, %ebx
	movl	%ebx, %edx
	movq	%rax, %rdi
	movq	%rcx, -552(%rbp)        # 8-byte Spill
	movq	%rax, %rcx
	movq	-552(%rbp), %rax        # 8-byte Reload
	movq	%rax, (%rsp)
	callq	trace_logger_log_int
	movl	$85, %r10d
	movl	%r10d, %edi
	movabsq	$.L.str.85, %rsi
	movabsq	$.L.str.35, %rdx
	movabsq	$.L.str.96, %rcx
	movl	$11, %r10d
	movl	%r10d, %r8d
	xorl	%r9d, %r9d
	movl	$1, %r10d
	movq	-40(%rbp), %rax         # 8-byte Reload
	movq	-512(%rbp), %r11        # 8-byte Reload
	movl	-340(%rbp), %ebx        # 4-byte Reload
	movl	%ebx, (%rax,%r11,4)
	.loc	1 85 80 is_stmt 1       # ss_sort.c:85:80
	movl	$1, (%rsp)
	movl	%r10d, -556(%rbp)       # 4-byte Spill
	callq	trace_logger_log0
	movl	$2, %r9d
	movl	%r9d, %edi
	movl	$32, %r9d
	movl	%r9d, %esi
	movl	$1, %r9d
	movl	%r9d, %edx
	xorl	%r9d, %r9d
	movl	%r9d, %eax
	movabsq	$.L.str.15, %r8
	movabsq	$.L.str.5, %rcx
	movq	%rcx, -568(%rbp)        # 8-byte Spill
	movq	%rax, %rcx
	movq	%rax, %r9
	movq	-568(%rbp), %rax        # 8-byte Reload
	movq	%rax, (%rsp)
	callq	trace_logger_log_int
	movl	$1, %r10d
	movl	%r10d, %eax
	movl	$32, %r10d
	movl	%r10d, %esi
	movabsq	$.L.str.91, %r8
	xorl	%r10d, %r10d
	movl	%r10d, %r9d
	movabsq	$.L.str.5, %rcx
	movl	-492(%rbp), %r10d       # 4-byte Reload
	movl	%r10d, %ebx
	movl	%ebx, %edx
	movq	%rax, %rdi
	movq	%rcx, -576(%rbp)        # 8-byte Spill
	movq	%rax, %rcx
	movq	-576(%rbp), %rax        # 8-byte Reload
	movq	%rax, (%rsp)
	callq	trace_logger_log_int
	movl	$19134, %r10d           # imm = 0x4ABE
	movl	%r10d, %edi
	movl	$32, %r10d
	movl	%r10d, %esi
	movl	$1, %r10d
	movl	%r10d, %ecx
	movabsq	$.L.str.96, %r8
	xorl	%r10d, %r10d
	movl	%r10d, %r9d
	movabsq	$.L.str.5, %rax
	movl	-492(%rbp), %r10d       # 4-byte Reload
	addl	$1, %r10d
	.loc	1 85 65 is_stmt 0       # ss_sort.c:85:65
	movl	%r10d, %ebx
	movl	%ebx, %edx
	movq	%rax, (%rsp)
	movl	%r10d, -580(%rbp)       # 4-byte Spill
	callq	trace_logger_log_int
	movl	$85, %r10d
	movl	%r10d, %edi
	movabsq	$.L.str.85, %rsi
	movabsq	$.L.str.35, %rdx
	movabsq	$.L.str.97, %rcx
	movl	$31, %r10d
	movl	%r10d, %r8d
	xorl	%r9d, %r9d
	movl	$1, %r10d
	movl	$1, (%rsp)
	movl	%r10d, -584(%rbp)       # 4-byte Spill
	callq	trace_logger_log0
	movl	$2, %r9d
	movl	%r9d, %edi
	movl	$64, %r9d
	movl	%r9d, %esi
	movl	$1, %r9d
	movl	%r9d, %ecx
	movabsq	$.L.str.39, %r8
	xorl	%r9d, %r9d
                                        # kill: def %r9 killed %r9d
	movabsq	$.L.str.5, %rax
	movq	-472(%rbp), %rdx        # 8-byte Reload
	movq	%rax, (%rsp)
	callq	trace_logger_log_ptr
	movl	$1, %r10d
	movl	%r10d, %eax
	movl	$32, %r10d
	movl	%r10d, %esi
	movabsq	$.L.str.96, %r8
	xorl	%r10d, %r10d
	movl	%r10d, %r9d
	movabsq	$.L.str.5, %rcx
	movl	-580(%rbp), %r10d       # 4-byte Reload
	movl	%r10d, %ebx
	movl	%ebx, %edx
	movq	%rax, %rdi
	movq	%rcx, -592(%rbp)        # 8-byte Spill
	movq	%rax, %rcx
	movq	-592(%rbp), %rax        # 8-byte Reload
	movq	%rax, (%rsp)
	callq	trace_logger_log_int
	movl	$81, %r10d
	movl	%r10d, %edi
	movabsq	$.L.str.85, %rsi
	movabsq	$.L.str.35, %rdx
	movabsq	$.L.str.14, %rcx
	movl	$11, %r10d
	movl	%r10d, %r8d
	xorl	%r9d, %r9d
	movl	$1, %r10d
	movq	-48(%rbp), %rax         # 8-byte Reload
	movq	-448(%rbp), %r11        # 8-byte Reload
	movl	-580(%rbp), %ebx        # 4-byte Reload
	movl	%ebx, (%rax,%r11,4)
.Ltmp70:
	.loc	1 81 47 is_stmt 1       # ss_sort.c:81:47
	movl	$1, (%rsp)
	movl	%r10d, -596(%rbp)       # 4-byte Spill
	callq	trace_logger_log0
	movl	$2, %r9d
	movl	%r9d, %edi
	movl	$64, %r9d
	movl	%r9d, %esi
	movl	$1, %r9d
	movl	%r9d, %edx
	xorl	%r9d, %r9d
	movl	%r9d, %eax
	movabsq	$.L.str.15, %r8
	movabsq	$.L.str.5, %rcx
	movq	%rcx, -608(%rbp)        # 8-byte Spill
	movq	%rax, %rcx
	movq	%rax, %r9
	movq	-608(%rbp), %rax        # 8-byte Reload
	movq	%rax, (%rsp)
	callq	trace_logger_log_int
	movl	$1, %r10d
	movl	%r10d, %eax
	movl	$64, %r10d
	movl	%r10d, %esi
	movabsq	$.L.str.13, %r8
	xorl	%r10d, %r10d
	movl	%r10d, %r9d
	movabsq	$.L.str.5, %rcx
	movq	%rax, %rdi
	movq	-248(%rbp), %rdx        # 8-byte Reload
	movq	%rcx, -616(%rbp)        # 8-byte Spill
	movq	%rax, %rcx
	movq	-616(%rbp), %rax        # 8-byte Reload
	movq	%rax, (%rsp)
	callq	trace_logger_log_int
	movl	$19134, %r10d           # imm = 0x4ABE
	movl	%r10d, %edi
	movl	$64, %r10d
	movl	%r10d, %esi
	movl	$1, %r10d
	movl	%r10d, %ecx
	movabsq	$.L.str.14, %r8
	xorl	%r10d, %r10d
	movl	%r10d, %r9d
	movabsq	$.L.str.5, %rax
	movq	-248(%rbp), %rdx        # 8-byte Reload
	addq	$1, %rdx
	.loc	1 81 36 is_stmt 0       # ss_sort.c:81:36
	movq	%rdx, -624(%rbp)        # 8-byte Spill
	movq	%rax, (%rsp)
	callq	trace_logger_log_int
	movl	$81, %r10d
	movl	%r10d, %edi
	movabsq	$.L.str.85, %rsi
	movabsq	$.L.str.35, %rdx
	movabsq	$.L.str.22, %rcx
	movl	$51, %r10d
	movl	%r10d, %r8d
	xorl	%r9d, %r9d
	movl	$1, %r10d
	movl	$1, (%rsp)
	movl	%r10d, -628(%rbp)       # 4-byte Spill
	callq	trace_logger_log0
	movl	$2, %r9d
	movl	%r9d, %edi
	movl	$64, %r9d
	movl	%r9d, %esi
	movl	$4, %r9d
	movl	%r9d, %edx
	xorl	%r9d, %r9d
	movl	%r9d, %eax
	movabsq	$.L.str.15, %r8
	movabsq	$.L.str.5, %rcx
	movq	%rcx, -640(%rbp)        # 8-byte Spill
	movq	%rax, %rcx
	movq	%rax, %r9
	movq	-640(%rbp), %rax        # 8-byte Reload
	movq	%rax, (%rsp)
	callq	trace_logger_log_int
	movl	$1, %r10d
	movl	%r10d, %eax
	movl	$64, %r10d
	movl	%r10d, %esi
	movabsq	$.L.str.14, %r8
	xorl	%r10d, %r10d
	movl	%r10d, %r9d
	movabsq	$.L.str.5, %rcx
	movq	%rax, %rdi
	movq	-624(%rbp), %rdx        # 8-byte Reload
	movq	%rcx, -648(%rbp)        # 8-byte Spill
	movq	%rax, %rcx
	movq	-648(%rbp), %rax        # 8-byte Reload
	movq	%rax, (%rsp)
	callq	trace_logger_log_int
	movl	$19134, %r10d           # imm = 0x4ABE
	movl	%r10d, %edi
	movl	$1, %r10d
	movl	%r10d, %eax
	movabsq	$.L.str.22, %r8
	xorl	%r10d, %r10d
	movl	%r10d, %r9d
	movabsq	$.L.str.5, %rcx
	movq	-624(%rbp), %rdx        # 8-byte Reload
	cmpq	$4, %rdx
	sete	%r15b
.Ltmp71:
	.loc	1 81 12                 # ss_sort.c:81:12
	movb	%r15b, %r12b
	andb	$1, %r12b
	movzbl	%r12b, %r10d
	movl	%r10d, %edx
	movq	%rax, %rsi
	movq	%rcx, -656(%rbp)        # 8-byte Spill
	movq	%rax, %rcx
	movq	-656(%rbp), %rax        # 8-byte Reload
	movq	%rax, (%rsp)
	movb	%r15b, -657(%rbp)       # 1-byte Spill
	callq	trace_logger_log_int
	movl	$81, %r10d
	movl	%r10d, %edi
	movabsq	$.L.str.85, %rsi
	movabsq	$.L.str.35, %rdx
	movabsq	$.L.str.98, %rcx
	movl	$2, %r10d
	movl	%r10d, %r8d
	xorl	%r9d, %r9d
	movl	$1, %r10d
	movl	$1, (%rsp)
	movl	%r10d, -664(%rbp)       # 4-byte Spill
	callq	trace_logger_log0
	movl	$3, %r9d
	movl	%r9d, %edi
	xorl	%r9d, %r9d
	movl	%r9d, %eax
	movl	$1, %r9d
	movl	%r9d, %ecx
	movabsq	$.L.str.73, %r8
	movabsq	$.L.str.5, %rdx
	movq	%rax, %rsi
	movq	%rdx, -672(%rbp)        # 8-byte Spill
	movq	%rax, %rdx
	movq	%rax, %r9
	movq	-672(%rbp), %rax        # 8-byte Reload
	movq	%rax, (%rsp)
	callq	trace_logger_log_int
	movl	$2, %r10d
	movl	%r10d, %edi
	xorl	%r10d, %r10d
	movl	%r10d, %eax
	movl	$1, %r10d
	movl	%r10d, %ecx
	movabsq	$.L.str.35, %r8
	movabsq	$.L.str.5, %rdx
	movq	%rax, %rsi
	movq	%rdx, -680(%rbp)        # 8-byte Spill
	movq	%rax, %rdx
	movq	%rax, %r9
	movq	-680(%rbp), %rax        # 8-byte Reload
	movq	%rax, (%rsp)
	callq	trace_logger_log_int
	movl	$1, %r10d
	movl	%r10d, %eax
	movabsq	$.L.str.22, %r8
	xorl	%r10d, %r10d
	movl	%r10d, %r9d
	movabsq	$.L.str.5, %rcx
	movb	-657(%rbp), %r15b       # 1-byte Reload
	andb	$1, %r15b
	movzbl	%r15b, %r10d
	movl	%r10d, %edx
	movq	%rax, %rdi
	movq	%rax, %rsi
	movq	%rcx, -688(%rbp)        # 8-byte Spill
	movq	%rax, %rcx
	movq	-688(%rbp), %rax        # 8-byte Reload
	movq	%rax, (%rsp)
	callq	trace_logger_log_int
	movb	-657(%rbp), %r15b       # 1-byte Reload
	testb	$1, %r15b
	movq	-624(%rbp), %rax        # 8-byte Reload
	movq	%rax, -240(%rbp)        # 8-byte Spill
	jne	.LBB6_3
	jmp	.LBB6_2
.Ltmp72:
.LBB6_3:                                #   in Loop: Header=BB6_1 Depth=1
	#DEBUG_VALUE: update:maskID <- [DW_OP_constu 248, DW_OP_minus] [%rbp+0]
	#DEBUG_VALUE: update:blockID <- [DW_OP_constu 128, DW_OP_minus] [%rbp+0]
	#DEBUG_VALUE: update:exp <- [DW_OP_constu 60, DW_OP_minus] [%rbp+0]
	#DEBUG_VALUE: update:a <- [DW_OP_constu 56, DW_OP_minus] [%rbp+0]
	#DEBUG_VALUE: update:bucket <- [DW_OP_constu 48, DW_OP_minus] [%rbp+0]
	#DEBUG_VALUE: update:b <- [DW_OP_constu 40, DW_OP_minus] [%rbp+0]
	.loc	1 0 12                  # ss_sort.c:0:12
	movl	$79, %eax
	movl	%eax, %edi
	movabsq	$.L.str.85, %rsi
	movabsq	$.L.str.73, %rdx
	movabsq	$.L.str.88, %rcx
	movl	$11, %eax
	movl	%eax, %r8d
	xorl	%r9d, %r9d
	movl	$1, %eax
	.loc	1 79 57 is_stmt 1       # ss_sort.c:79:57
	movl	$1, (%rsp)
	movl	%eax, -692(%rbp)        # 4-byte Spill
	callq	trace_logger_log0
	movl	$2, %eax
	movl	%eax, %edi
	movl	$64, %eax
	movl	%eax, %esi
	movl	$1, %eax
	movl	%eax, %edx
	xorl	%eax, %eax
	movl	%eax, %ecx
	movabsq	$.L.str.15, %r8
	movabsq	$.L.str.5, %r10
	movq	%rcx, -704(%rbp)        # 8-byte Spill
	movq	-704(%rbp), %r9         # 8-byte Reload
	movq	%r10, (%rsp)
	callq	trace_logger_log_int
	movl	$1, %eax
	movl	%eax, %ecx
	movl	$64, %eax
	movl	%eax, %esi
	movabsq	$.L.str.87, %r8
	xorl	%eax, %eax
	movl	%eax, %r9d
	movabsq	$.L.str.5, %rdx
	movq	%rcx, %rdi
	movq	-128(%rbp), %r10        # 8-byte Reload
	movq	%rdx, -712(%rbp)        # 8-byte Spill
	movq	%r10, %rdx
	movq	-712(%rbp), %r11        # 8-byte Reload
	movq	%r11, (%rsp)
	callq	trace_logger_log_int
	movl	$19134, %eax            # imm = 0x4ABE
	movl	%eax, %edi
	movl	$64, %eax
	movl	%eax, %esi
	movl	$1, %eax
	movl	%eax, %ecx
	movabsq	$.L.str.88, %r8
	xorl	%eax, %eax
	movl	%eax, %r9d
	movabsq	$.L.str.5, %rdx
	movq	-128(%rbp), %r10        # 8-byte Reload
	addq	$1, %r10
	.loc	1 79 35 is_stmt 0       # ss_sort.c:79:35
	movq	%rdx, -720(%rbp)        # 8-byte Spill
	movq	%r10, %rdx
	movq	-720(%rbp), %r11        # 8-byte Reload
	movq	%r11, (%rsp)
	movq	%r10, -728(%rbp)        # 8-byte Spill
	callq	trace_logger_log_int
	movl	$79, %eax
	movl	%eax, %edi
	movabsq	$.L.str.85, %rsi
	movabsq	$.L.str.73, %rdx
	movabsq	$.L.str.99, %rcx
	movl	$51, %eax
	movl	%eax, %r8d
	xorl	%r9d, %r9d
	movl	$1, %eax
	movl	$1, (%rsp)
	movl	%eax, -732(%rbp)        # 4-byte Spill
	callq	trace_logger_log0
	movl	$2, %eax
	movl	%eax, %edi
	movl	$64, %eax
	movl	%eax, %esi
	movl	$512, %eax              # imm = 0x200
	movl	%eax, %edx
	xorl	%eax, %eax
	movl	%eax, %ecx
	movabsq	$.L.str.15, %r8
	movabsq	$.L.str.5, %r10
	movq	%rcx, -744(%rbp)        # 8-byte Spill
	movq	-744(%rbp), %r9         # 8-byte Reload
	movq	%r10, (%rsp)
	callq	trace_logger_log_int
	movl	$1, %eax
	movl	%eax, %ecx
	movl	$64, %eax
	movl	%eax, %esi
	movabsq	$.L.str.88, %r8
	xorl	%eax, %eax
	movl	%eax, %r9d
	movabsq	$.L.str.5, %rdx
	movq	%rcx, %rdi
	movq	-728(%rbp), %r10        # 8-byte Reload
	movq	%rdx, -752(%rbp)        # 8-byte Spill
	movq	%r10, %rdx
	movq	-752(%rbp), %r11        # 8-byte Reload
	movq	%r11, (%rsp)
	callq	trace_logger_log_int
	movl	$19134, %eax            # imm = 0x4ABE
	movl	%eax, %edi
	movl	$1, %eax
	movl	%eax, %ecx
	movabsq	$.L.str.99, %r8
	xorl	%eax, %eax
	movl	%eax, %r9d
	movabsq	$.L.str.5, %rdx
	movq	-728(%rbp), %rsi        # 8-byte Reload
	cmpq	$512, %rsi              # imm = 0x200
	sete	%bl
.Ltmp73:
	.loc	1 79 9                  # ss_sort.c:79:9
	movb	%bl, %r14b
	andb	$1, %r14b
	movzbl	%r14b, %eax
	movl	%eax, %r10d
	movq	%rcx, %rsi
	movq	%rdx, -760(%rbp)        # 8-byte Spill
	movq	%r10, %rdx
	movq	-760(%rbp), %r10        # 8-byte Reload
	movq	%r10, (%rsp)
	movb	%bl, -761(%rbp)         # 1-byte Spill
	callq	trace_logger_log_int
	movl	$79, %eax
	movl	%eax, %edi
	movabsq	$.L.str.85, %rsi
	movabsq	$.L.str.73, %rdx
	movabsq	$.L.str.82, %rcx
	movl	$2, %eax
	movl	%eax, %r8d
	xorl	%r9d, %r9d
	movl	$1, %eax
	movl	$1, (%rsp)
	movl	%eax, -768(%rbp)        # 4-byte Spill
	callq	trace_logger_log0
	movl	$3, %eax
	movl	%eax, %edi
	xorl	%eax, %eax
	movl	%eax, %ecx
	movl	$1, %eax
	movl	%eax, %edx
	movabsq	$.L.str.83, %r8
	movabsq	$.L.str.5, %rsi
	movq	%rsi, -776(%rbp)        # 8-byte Spill
	movq	%rcx, %rsi
	movq	%rdx, -784(%rbp)        # 8-byte Spill
	movq	%rcx, %rdx
	movq	-784(%rbp), %r10        # 8-byte Reload
	movq	%rcx, -792(%rbp)        # 8-byte Spill
	movq	%r10, %rcx
	movq	-792(%rbp), %r9         # 8-byte Reload
	movq	-776(%rbp), %r11        # 8-byte Reload
	movq	%r11, (%rsp)
	callq	trace_logger_log_int
	movl	$2, %eax
	movl	%eax, %edi
	xorl	%eax, %eax
	movl	%eax, %ecx
	movl	$1, %eax
	movl	%eax, %edx
	movabsq	$.L.str.12, %r8
	movabsq	$.L.str.5, %rsi
	movq	%rsi, -800(%rbp)        # 8-byte Spill
	movq	%rcx, %rsi
	movq	%rdx, -808(%rbp)        # 8-byte Spill
	movq	%rcx, %rdx
	movq	-808(%rbp), %r9         # 8-byte Reload
	movq	%rcx, -816(%rbp)        # 8-byte Spill
	movq	%r9, %rcx
	movq	-816(%rbp), %r9         # 8-byte Reload
	movq	-800(%rbp), %r10        # 8-byte Reload
	movq	%r10, (%rsp)
	callq	trace_logger_log_int
	movl	$1, %eax
	movl	%eax, %ecx
	movabsq	$.L.str.99, %r8
	xorl	%eax, %eax
	movl	%eax, %r9d
	movabsq	$.L.str.5, %rdx
	movb	-761(%rbp), %bl         # 1-byte Reload
	andb	$1, %bl
	movzbl	%bl, %eax
	movl	%eax, %esi
	movq	%rcx, %rdi
	movq	%rsi, -824(%rbp)        # 8-byte Spill
	movq	%rcx, %rsi
	movq	-824(%rbp), %r10        # 8-byte Reload
	movq	%rdx, -832(%rbp)        # 8-byte Spill
	movq	%r10, %rdx
	movq	-832(%rbp), %r11        # 8-byte Reload
	movq	%r11, (%rsp)
	callq	trace_logger_log_int
	movb	-761(%rbp), %bl         # 1-byte Reload
	testb	$1, %bl
	movq	-728(%rbp), %rcx        # 8-byte Reload
	movq	%rcx, -120(%rbp)        # 8-byte Spill
	jne	.LBB6_4
	jmp	.LBB6_1
.Ltmp74:
.LBB6_4:
	#DEBUG_VALUE: update:maskID <- [DW_OP_constu 248, DW_OP_minus] [%rbp+0]
	#DEBUG_VALUE: update:blockID <- [DW_OP_constu 128, DW_OP_minus] [%rbp+0]
	#DEBUG_VALUE: update:exp <- [DW_OP_constu 60, DW_OP_minus] [%rbp+0]
	#DEBUG_VALUE: update:a <- [DW_OP_constu 56, DW_OP_minus] [%rbp+0]
	#DEBUG_VALUE: update:bucket <- [DW_OP_constu 48, DW_OP_minus] [%rbp+0]
	#DEBUG_VALUE: update:b <- [DW_OP_constu 40, DW_OP_minus] [%rbp+0]
	.loc	1 0 9                   # ss_sort.c:0:9
	movl	$88, %eax
	movl	%eax, %edi
	movabsq	$.L.str.85, %rsi
	movabsq	$.L.str.83, %rdx
	movabsq	$.L.str.84, %rcx
	movl	$1, %eax
	movl	%eax, %r8d
	xorl	%r9d, %r9d
	movl	$1, %eax
	.loc	1 88 1 is_stmt 1        # ss_sort.c:88:1
	movl	$1, (%rsp)
	movl	%eax, -836(%rbp)        # 4-byte Spill
	callq	trace_logger_log0
	movabsq	$.L.str.85, %rdi
	movl	$1, %eax
	movl	%eax, %esi
	xorl	%edx, %edx
	movl	$1, %ecx
	callq	trace_logger_update_status
	addq	$816, %rsp              # imm = 0x330
	popq	%rbx
	popq	%r12
	popq	%r14
	popq	%r15
	popq	%rbp
	retq
.Ltmp75:
.Lfunc_end6:
	.size	update, .Lfunc_end6-update
	.cfi_endproc
                                        # -- End function
	.globl	ss_sort                 # -- Begin function ss_sort
	.p2align	4, 0x90
	.type	ss_sort,@function
ss_sort:                                # @ss_sort
.Lfunc_begin7:
	.loc	1 90 0                  # ss_sort.c:90:0
	.cfi_startproc
# %bb.0:
	pushq	%rbp
	.cfi_def_cfa_offset 16
	.cfi_offset %rbp, -16
	movq	%rsp, %rbp
	.cfi_def_cfa_register %rbp
	subq	$112, %rsp
	movabsq	$.L.str.100, %rax
	xorl	%r8d, %r8d
	movl	%r8d, %r9d
	movl	$1, %r8d
.Ltmp76:
	.loc	1 90 18 prologue_end    # ss_sort.c:90:18
	movq	%rdi, -8(%rbp)          # 8-byte Spill
	movq	%rax, %rdi
	movq	%rsi, -16(%rbp)         # 8-byte Spill
	movq	%r9, %rsi
	movq	%rdx, -24(%rbp)         # 8-byte Spill
	movl	%r8d, %edx
	movq	%rcx, -32(%rbp)         # 8-byte Spill
	movl	%r8d, %ecx
	callq	trace_logger_update_status
	movabsq	$.L.str.100, %rdi
	movl	$4, %ecx
	movl	%ecx, %esi
	callq	trace_logger_log_entry
	movl	$1, %ecx
	movl	%ecx, %eax
	movl	$64, %ecx
	movl	%ecx, %esi
	movabsq	$.L.str.17, %r8
	xorl	%ecx, %ecx
	movl	%ecx, %r9d
	movabsq	$.L.str.5, %rdi
	movq	%rdi, -40(%rbp)         # 8-byte Spill
	movq	%rax, %rdi
	movq	-8(%rbp), %rdx          # 8-byte Reload
	movq	%rax, %rcx
	movq	-40(%rbp), %rax         # 8-byte Reload
	movq	%rax, (%rsp)
	callq	trace_logger_log_ptr
	movl	$2, %r10d
	movl	%r10d, %edi
	movl	$64, %r10d
	movl	%r10d, %esi
	movl	$1, %r10d
	movl	%r10d, %ecx
	movabsq	$.L.str.94, %r8
	xorl	%r10d, %r10d
	movl	%r10d, %r9d
	movabsq	$.L.str.5, %rax
	movq	-16(%rbp), %rdx         # 8-byte Reload
	movq	%rax, (%rsp)
	callq	trace_logger_log_ptr
	movl	$3, %r10d
	movl	%r10d, %edi
	movl	$64, %r10d
	movl	%r10d, %esi
	movl	$1, %r10d
	movl	%r10d, %ecx
	movabsq	$.L.str.31, %r8
	xorl	%r10d, %r10d
	movl	%r10d, %r9d
	movabsq	$.L.str.5, %rax
	movq	-24(%rbp), %rdx         # 8-byte Reload
	movq	%rax, (%rsp)
	callq	trace_logger_log_ptr
	movl	$4, %r10d
	movl	%r10d, %edi
	movl	$64, %r10d
	movl	%r10d, %esi
	movl	$1, %r10d
	movl	%r10d, %ecx
	movabsq	$.L.str.48, %r8
	xorl	%r10d, %r10d
	movl	%r10d, %r9d
	movabsq	$.L.str.5, %rax
	movq	-32(%rbp), %rdx         # 8-byte Reload
	movq	%rax, (%rsp)
	callq	trace_logger_log_ptr
	movl	$103, %r10d
	movl	%r10d, %edi
	movabsq	$.L.str.100, %rsi
	movabsq	$.L.str.2, %rdx
	movabsq	$.L.str.101, %rcx
	movl	$54, %r10d
	movl	%r10d, %r8d
	movl	$1, %r9d
	#DEBUG_VALUE: ss_sort:a <- [DW_OP_constu 8, DW_OP_minus] [%rbp+0]
	#DEBUG_VALUE: ss_sort:b <- [DW_OP_constu 16, DW_OP_minus] [%rbp+0]
	#DEBUG_VALUE: ss_sort:bucket <- [DW_OP_constu 24, DW_OP_minus] [%rbp+0]
	#DEBUG_VALUE: ss_sort:sum <- [DW_OP_constu 32, DW_OP_minus] [%rbp+0]
.Ltmp77:
	#DEBUG_VALUE: ss_sort:exp <- 0
	#DEBUG_VALUE: ss_sort:flag <- 0
	#DEBUG_VALUE: ss_sort:exp <- 0
	#DEBUG_VALUE: ss_sort:exp <- 0
	#DEBUG_VALUE: ss_sort:flag <- 0
	.loc	1 103 5                 # ss_sort.c:103:5
	movl	$1, (%rsp)
	callq	trace_logger_log0
	movl	$2, %r9d
	movl	%r9d, %edi
	movl	$64, %r9d
	movl	%r9d, %esi
	movabsq	$init, %rdx
	movl	$1, %r9d
	movl	%r9d, %ecx
	movabsq	$.L.str.65, %r8
	xorl	%r9d, %r9d
                                        # kill: def %r9 killed %r9d
	movabsq	$.L.str.5, %rax
	movq	%rax, (%rsp)
	callq	trace_logger_log_ptr
	movl	$1, %r10d
	movl	%r10d, %eax
	movl	$64, %r10d
	movl	%r10d, %esi
	movabsq	$.L.str.31, %r8
	xorl	%r10d, %r10d
	movl	%r10d, %r9d
	movabsq	$.L.str.5, %rcx
	movq	%rax, %rdi
	movq	-24(%rbp), %rdx         # 8-byte Reload
	movq	%rcx, -48(%rbp)         # 8-byte Spill
	movq	%rax, %rcx
	movq	-48(%rbp), %rax         # 8-byte Reload
	movq	%rax, (%rsp)
	callq	trace_logger_log_ptr
	movq	-24(%rbp), %rdi         # 8-byte Reload
	callq	init
	movl	$105, %r10d
	movl	%r10d, %edi
	movabsq	$.L.str.100, %rsi
	movabsq	$.L.str.2, %rdx
	movabsq	$.L.str.102, %rcx
	movl	$54, %r10d
	movl	%r10d, %r8d
	movl	$1, %r9d
.Ltmp78:
	.loc	1 105 7                 # ss_sort.c:105:7
	movl	$1, (%rsp)
	callq	trace_logger_log0
	movl	$4, %r9d
	movl	%r9d, %edi
	movl	$64, %r9d
	movl	%r9d, %esi
	movabsq	$hist, %rdx
	movl	$1, %r9d
	movl	%r9d, %ecx
	movabsq	$.L.str.69, %r8
	xorl	%r9d, %r9d
                                        # kill: def %r9 killed %r9d
	movabsq	$.L.str.5, %rax
	movq	%rax, (%rsp)
	callq	trace_logger_log_ptr
	movl	$1, %r10d
	movl	%r10d, %eax
	movl	$64, %r10d
	movl	%r10d, %esi
	movabsq	$.L.str.31, %r8
	xorl	%r10d, %r10d
	movl	%r10d, %r9d
	movabsq	$.L.str.5, %rcx
	movq	%rax, %rdi
	movq	-24(%rbp), %rdx         # 8-byte Reload
	movq	%rcx, -56(%rbp)         # 8-byte Spill
	movq	%rax, %rcx
	movq	-56(%rbp), %rax         # 8-byte Reload
	movq	%rax, (%rsp)
	callq	trace_logger_log_ptr
	movl	$2, %r10d
	movl	%r10d, %edi
	movl	$64, %r10d
	movl	%r10d, %esi
	movl	$1, %r10d
	movl	%r10d, %ecx
	movabsq	$.L.str.17, %r8
	xorl	%r10d, %r10d
	movl	%r10d, %r9d
	movabsq	$.L.str.5, %rax
	movq	-8(%rbp), %rdx          # 8-byte Reload
	movq	%rax, (%rsp)
	callq	trace_logger_log_ptr
	movl	$3, %r10d
	movl	%r10d, %edi
	movl	$32, %r10d
	movl	%r10d, %esi
	xorl	%r10d, %r10d
	movl	%r10d, %eax
	movl	$1, %r10d
	movl	%r10d, %ecx
	movabsq	$.L.str.75, %r8
	movabsq	$.L.str.5, %rdx
	movq	%rdx, -64(%rbp)         # 8-byte Spill
	movq	%rax, %rdx
	movq	%rax, %r9
	movq	-64(%rbp), %rax         # 8-byte Reload
	movq	%rax, (%rsp)
	callq	trace_logger_log_int
	xorl	%edx, %edx
	movq	-24(%rbp), %rdi         # 8-byte Reload
	movq	-8(%rbp), %rsi          # 8-byte Reload
	callq	hist
	movl	$111, %edx
	movl	%edx, %edi
	movabsq	$.L.str.100, %rsi
	movabsq	$.L.str.2, %rdx
	movabsq	$.L.str.103, %rcx
	movl	$54, %r10d
	movl	%r10d, %r8d
	movl	$1, %r9d
.Ltmp79:
	.loc	1 111 5                 # ss_sort.c:111:5
	movl	$1, (%rsp)
	callq	trace_logger_log0
	movl	$2, %r9d
	movl	%r9d, %edi
	movl	$64, %r9d
	movl	%r9d, %esi
	movabsq	$local_scan, %rdx
	movl	$1, %r9d
	movl	%r9d, %ecx
	movabsq	$.L.str.25, %r8
	xorl	%r9d, %r9d
                                        # kill: def %r9 killed %r9d
	movabsq	$.L.str.5, %rax
	movq	%rax, (%rsp)
	callq	trace_logger_log_ptr
	movl	$1, %r10d
	movl	%r10d, %eax
	movl	$64, %r10d
	movl	%r10d, %esi
	movabsq	$.L.str.31, %r8
	xorl	%r10d, %r10d
	movl	%r10d, %r9d
	movabsq	$.L.str.5, %rcx
	movq	%rax, %rdi
	movq	-24(%rbp), %rdx         # 8-byte Reload
	movq	%rcx, -72(%rbp)         # 8-byte Spill
	movq	%rax, %rcx
	movq	-72(%rbp), %rax         # 8-byte Reload
	movq	%rax, (%rsp)
	callq	trace_logger_log_ptr
	movq	-24(%rbp), %rdi         # 8-byte Reload
	callq	local_scan
	movl	$112, %r10d
	movl	%r10d, %edi
	movabsq	$.L.str.100, %rsi
	movabsq	$.L.str.2, %rdx
	movabsq	$.L.str.104, %rcx
	movl	$54, %r10d
	movl	%r10d, %r8d
	movl	$1, %r9d
	.loc	1 112 5                 # ss_sort.c:112:5
	movl	$1, (%rsp)
	callq	trace_logger_log0
	movl	$3, %r9d
	movl	%r9d, %edi
	movl	$64, %r9d
	movl	%r9d, %esi
	movabsq	$sum_scan, %rdx
	movl	$1, %r9d
	movl	%r9d, %ecx
	movabsq	$.L.str.47, %r8
	xorl	%r9d, %r9d
                                        # kill: def %r9 killed %r9d
	movabsq	$.L.str.5, %rax
	movq	%rax, (%rsp)
	callq	trace_logger_log_ptr
	movl	$1, %r10d
	movl	%r10d, %eax
	movl	$64, %r10d
	movl	%r10d, %esi
	movabsq	$.L.str.48, %r8
	xorl	%r10d, %r10d
	movl	%r10d, %r9d
	movabsq	$.L.str.5, %rcx
	movq	%rax, %rdi
	movq	-32(%rbp), %rdx         # 8-byte Reload
	movq	%rcx, -80(%rbp)         # 8-byte Spill
	movq	%rax, %rcx
	movq	-80(%rbp), %rax         # 8-byte Reload
	movq	%rax, (%rsp)
	callq	trace_logger_log_ptr
	movl	$2, %r10d
	movl	%r10d, %edi
	movl	$64, %r10d
	movl	%r10d, %esi
	movl	$1, %r10d
	movl	%r10d, %ecx
	movabsq	$.L.str.31, %r8
	xorl	%r10d, %r10d
	movl	%r10d, %r9d
	movabsq	$.L.str.5, %rax
	movq	-24(%rbp), %rdx         # 8-byte Reload
	movq	%rax, (%rsp)
	callq	trace_logger_log_ptr
	movq	-32(%rbp), %rdi         # 8-byte Reload
	movq	-24(%rbp), %rsi         # 8-byte Reload
	callq	sum_scan
	movl	$113, %r10d
	movl	%r10d, %edi
	movabsq	$.L.str.100, %rsi
	movabsq	$.L.str.2, %rdx
	movabsq	$.L.str.105, %rcx
	movl	$54, %r10d
	movl	%r10d, %r8d
	movl	$1, %r9d
	.loc	1 113 5                 # ss_sort.c:113:5
	movl	$1, (%rsp)
	callq	trace_logger_log0
	movl	$3, %r9d
	movl	%r9d, %edi
	movl	$64, %r9d
	movl	%r9d, %esi
	movabsq	$last_step_scan, %rdx
	movl	$1, %r9d
	movl	%r9d, %ecx
	movabsq	$.L.str.56, %r8
	xorl	%r9d, %r9d
                                        # kill: def %r9 killed %r9d
	movabsq	$.L.str.5, %rax
	movq	%rax, (%rsp)
	callq	trace_logger_log_ptr
	movl	$1, %r10d
	movl	%r10d, %eax
	movl	$64, %r10d
	movl	%r10d, %esi
	movabsq	$.L.str.31, %r8
	xorl	%r10d, %r10d
	movl	%r10d, %r9d
	movabsq	$.L.str.5, %rcx
	movq	%rax, %rdi
	movq	-24(%rbp), %rdx         # 8-byte Reload
	movq	%rcx, -88(%rbp)         # 8-byte Spill
	movq	%rax, %rcx
	movq	-88(%rbp), %rax         # 8-byte Reload
	movq	%rax, (%rsp)
	callq	trace_logger_log_ptr
	movl	$2, %r10d
	movl	%r10d, %edi
	movl	$64, %r10d
	movl	%r10d, %esi
	movl	$1, %r10d
	movl	%r10d, %ecx
	movabsq	$.L.str.48, %r8
	xorl	%r10d, %r10d
	movl	%r10d, %r9d
	movabsq	$.L.str.5, %rax
	movq	-32(%rbp), %rdx         # 8-byte Reload
	movq	%rax, (%rsp)
	callq	trace_logger_log_ptr
	movq	-24(%rbp), %rdi         # 8-byte Reload
	movq	-32(%rbp), %rsi         # 8-byte Reload
	callq	last_step_scan
	movl	$118, %r10d
	movl	%r10d, %edi
	movabsq	$.L.str.100, %rsi
	movabsq	$.L.str.2, %rdx
	movabsq	$.L.str.106, %rcx
	movl	$54, %r10d
	movl	%r10d, %r8d
	movl	$1, %r9d
.Ltmp80:
	.loc	1 118 7                 # ss_sort.c:118:7
	movl	$1, (%rsp)
	callq	trace_logger_log0
	movl	$5, %r9d
	movl	%r9d, %edi
	movl	$64, %r9d
	movl	%r9d, %esi
	movabsq	$update, %rdx
	movl	$1, %r9d
	movl	%r9d, %ecx
	movabsq	$.L.str.85, %r8
	xorl	%r9d, %r9d
                                        # kill: def %r9 killed %r9d
	movabsq	$.L.str.5, %rax
	movq	%rax, (%rsp)
	callq	trace_logger_log_ptr
	movl	$1, %r10d
	movl	%r10d, %eax
	movl	$64, %r10d
	movl	%r10d, %esi
	movabsq	$.L.str.94, %r8
	xorl	%r10d, %r10d
	movl	%r10d, %r9d
	movabsq	$.L.str.5, %rcx
	movq	%rax, %rdi
	movq	-16(%rbp), %rdx         # 8-byte Reload
	movq	%rcx, -96(%rbp)         # 8-byte Spill
	movq	%rax, %rcx
	movq	-96(%rbp), %rax         # 8-byte Reload
	movq	%rax, (%rsp)
	callq	trace_logger_log_ptr
	movl	$2, %r10d
	movl	%r10d, %edi
	movl	$64, %r10d
	movl	%r10d, %esi
	movl	$1, %r10d
	movl	%r10d, %ecx
	movabsq	$.L.str.31, %r8
	xorl	%r10d, %r10d
	movl	%r10d, %r9d
	movabsq	$.L.str.5, %rax
	movq	-24(%rbp), %rdx         # 8-byte Reload
	movq	%rax, (%rsp)
	callq	trace_logger_log_ptr
	movl	$3, %r10d
	movl	%r10d, %edi
	movl	$64, %r10d
	movl	%r10d, %esi
	movl	$1, %r10d
	movl	%r10d, %ecx
	movabsq	$.L.str.17, %r8
	xorl	%r10d, %r10d
	movl	%r10d, %r9d
	movabsq	$.L.str.5, %rax
	movq	-8(%rbp), %rdx          # 8-byte Reload
	movq	%rax, (%rsp)
	callq	trace_logger_log_ptr
	movl	$4, %r10d
	movl	%r10d, %edi
	movl	$32, %r10d
	movl	%r10d, %esi
	xorl	%r10d, %r10d
	movl	%r10d, %eax
	movl	$1, %r10d
	movl	%r10d, %ecx
	movabsq	$.L.str.75, %r8
	movabsq	$.L.str.5, %rdx
	movq	%rdx, -104(%rbp)        # 8-byte Spill
	movq	%rax, %rdx
	movq	%rax, %r9
	movq	-104(%rbp), %rax        # 8-byte Reload
	movq	%rax, (%rsp)
	callq	trace_logger_log_int
	xorl	%ecx, %ecx
	movq	-16(%rbp), %rdi         # 8-byte Reload
	movq	-24(%rbp), %rsi         # 8-byte Reload
	movq	-8(%rbp), %rdx          # 8-byte Reload
	callq	update
	movl	$131, %ecx
	movl	%ecx, %edi
	movabsq	$.L.str.100, %rsi
	movabsq	$.L.str.2, %rdx
	movabsq	$.L.str.107, %rcx
	movl	$1, %r10d
	movl	%r10d, %r8d
	movl	$1, %r9d
.Ltmp81:
	#DEBUG_VALUE: ss_sort:flag <- 1
	#DEBUG_VALUE: ss_sort:exp <- 2
	.loc	1 131 1                 # ss_sort.c:131:1
	movl	$1, (%rsp)
	callq	trace_logger_log0
	movabsq	$.L.str.100, %rdi
	movl	$1, %r9d
	movl	%r9d, %esi
	movl	$1, %r9d
	movl	%r9d, %edx
	movl	%r9d, %ecx
	callq	trace_logger_update_status
	addq	$112, %rsp
	popq	%rbp
	retq
.Ltmp82:
.Lfunc_end7:
	.size	ss_sort, .Lfunc_end7-ss_sort
	.cfi_endproc
                                        # -- End function
	.section	.rodata.cst8,"aM",@progbits,8
	.p2align	3               # -- Begin function main
.LCPI8_0:
	.quad	4643176031446892544     # double 255
.LCPI8_1:
	.quad	4746794007244308480     # double 2147483647
	.text
	.globl	main
	.p2align	4, 0x90
	.type	main,@function
main:                                   # @main
.Lfunc_begin8:
	.loc	1 134 0                 # ss_sort.c:134:0
	.cfi_startproc
# %bb.0:
	pushq	%rbp
	.cfi_def_cfa_offset 16
	.cfi_offset %rbp, -16
	movq	%rsp, %rbp
	.cfi_def_cfa_register %rbp
.Ltmp83:
	.loc	1 138 19 prologue_end   # ss_sort.c:138:19
	pushq	%r15
	pushq	%r14
	pushq	%rbx
	subq	$856, %rsp              # imm = 0x358
	.cfi_offset %rbx, -40
	.cfi_offset %r14, -32
	.cfi_offset %r15, -24
	callq	trace_logger_init
	movabsq	$.L.str.129, %rdi
	movl	$210, %eax
	movl	%eax, %esi
	callq	trace_logger_register_labelmap
	movl	$138, %eax
	movl	%eax, %edi
	movabsq	$.L.str.108, %rsi
	movabsq	$.L.str.2, %rdx
	movabsq	$.L.str.19, %rcx
	movl	$54, %eax
	movl	%eax, %r8d
	xorl	%r9d, %r9d
	movl	$1, %eax
	movl	$1, (%rsp)
	movl	%eax, -28(%rbp)         # 4-byte Spill
	callq	trace_logger_log0
	movl	$2, %eax
	movl	%eax, %edi
	movl	$64, %eax
	movl	%eax, %esi
	movabsq	$malloc, %rdx
	movl	$1, %eax
	movl	%eax, %ecx
	movabsq	$.L.str.109, %r8
	xorl	%eax, %eax
	movl	%eax, %r9d
	movabsq	$.L.str.5, %r10
	movq	%r10, (%rsp)
	callq	trace_logger_log_ptr
	movl	$1, %eax
	movl	%eax, %edi
	movl	$64, %eax
	movl	%eax, %esi
	movl	$8192, %eax             # imm = 0x2000
	movl	%eax, %edx
	xorl	%eax, %eax
	movl	%eax, %ecx
	movabsq	$.L.str.15, %r8
	movabsq	$.L.str.5, %r9
	movq	%rcx, -40(%rbp)         # 8-byte Spill
	movq	-40(%rbp), %r10         # 8-byte Reload
	movq	%r9, -48(%rbp)          # 8-byte Spill
	movq	%r10, %r9
	movq	-48(%rbp), %r11         # 8-byte Reload
	movq	%r11, (%rsp)
	callq	trace_logger_log_int
	movl	$8192, %eax             # imm = 0x2000
	movl	%eax, %edi
	callq	malloc
	movl	$19134, %ebx            # imm = 0x4ABE
	movl	%ebx, %edi
	movl	$64, %ebx
	movl	%ebx, %esi
	movl	$1, %ebx
	movl	%ebx, %ecx
	movabsq	$.L.str.19, %r8
	xorl	%ebx, %ebx
	movl	%ebx, %r9d
	movabsq	$.L.str.5, %rdx
	.loc	1 137 8                 # ss_sort.c:137:8
	movq	%rdx, -56(%rbp)         # 8-byte Spill
	movq	%rax, %rdx
	movq	-56(%rbp), %r10         # 8-byte Reload
	movq	%r10, (%rsp)
	movq	%rax, -64(%rbp)         # 8-byte Spill
	callq	trace_logger_log_ptr
	movl	$141, %ebx
	movl	%ebx, %edi
	movabsq	$.L.str.108, %rsi
	movabsq	$.L.str.2, %rdx
	movabsq	$.L.str.110, %rcx
	movl	$54, %ebx
	movl	%ebx, %r8d
	xorl	%r9d, %r9d
	movl	$1, %ebx
	.loc	1 141 14                # ss_sort.c:141:14
	movl	$1, (%rsp)
	movl	%ebx, -68(%rbp)         # 4-byte Spill
	callq	trace_logger_log0
	movl	$2, %r9d
	movl	%r9d, %edi
	movl	$64, %r9d
	movl	%r9d, %esi
	movabsq	$malloc, %rdx
	movl	$1, %r9d
	movl	%r9d, %ecx
	movabsq	$.L.str.109, %r8
	xorl	%r9d, %r9d
                                        # kill: def %r9 killed %r9d
	movabsq	$.L.str.5, %rax
	movq	%rax, (%rsp)
	callq	trace_logger_log_ptr
	movl	$1, %ebx
	movl	%ebx, %edi
	movl	$64, %ebx
	movl	%ebx, %esi
	movl	$8192, %ebx             # imm = 0x2000
	movl	%ebx, %edx
	xorl	%ebx, %ebx
	movl	%ebx, %eax
	movabsq	$.L.str.15, %r8
	movabsq	$.L.str.5, %rcx
	movq	%rcx, -80(%rbp)         # 8-byte Spill
	movq	%rax, %rcx
	movq	%rax, %r9
	movq	-80(%rbp), %rax         # 8-byte Reload
	movq	%rax, (%rsp)
	callq	trace_logger_log_int
	movl	$8192, %ebx             # imm = 0x2000
	movl	%ebx, %edi
	callq	malloc
	movl	$19134, %ebx            # imm = 0x4ABE
	movl	%ebx, %edi
	movl	$64, %ebx
	movl	%ebx, %esi
	movl	$1, %ebx
	movl	%ebx, %ecx
	movabsq	$.L.str.110, %r8
	xorl	%ebx, %ebx
	movl	%ebx, %r9d
	movabsq	$.L.str.5, %rdx
	.loc	1 139 8                 # ss_sort.c:139:8
	movq	%rdx, -88(%rbp)         # 8-byte Spill
	movq	%rax, %rdx
	movq	-88(%rbp), %r10         # 8-byte Reload
	movq	%r10, (%rsp)
	movq	%rax, -96(%rbp)         # 8-byte Spill
	callq	trace_logger_log_ptr
	movl	$142, %ebx
	movl	%ebx, %edi
	movabsq	$.L.str.108, %rsi
	movabsq	$.L.str.2, %rdx
	movabsq	$.L.str.111, %rcx
	movl	$54, %ebx
	movl	%ebx, %r8d
	xorl	%r9d, %r9d
	movl	$1, %ebx
	.loc	1 142 15                # ss_sort.c:142:15
	movl	$1, (%rsp)
	movl	%ebx, -100(%rbp)        # 4-byte Spill
	callq	trace_logger_log0
	movl	$2, %r9d
	movl	%r9d, %edi
	movl	$64, %r9d
	movl	%r9d, %esi
	movabsq	$malloc, %rdx
	movl	$1, %r9d
	movl	%r9d, %ecx
	movabsq	$.L.str.109, %r8
	xorl	%r9d, %r9d
                                        # kill: def %r9 killed %r9d
	movabsq	$.L.str.5, %rax
	movq	%rax, (%rsp)
	callq	trace_logger_log_ptr
	movl	$1, %ebx
	movl	%ebx, %edi
	movl	$64, %ebx
	movl	%ebx, %esi
	movl	$8192, %ebx             # imm = 0x2000
	movl	%ebx, %edx
	xorl	%ebx, %ebx
	movl	%ebx, %eax
	movabsq	$.L.str.15, %r8
	movabsq	$.L.str.5, %rcx
	movq	%rcx, -112(%rbp)        # 8-byte Spill
	movq	%rax, %rcx
	movq	%rax, %r9
	movq	-112(%rbp), %rax        # 8-byte Reload
	movq	%rax, (%rsp)
	callq	trace_logger_log_int
	movl	$8192, %ebx             # imm = 0x2000
	movl	%ebx, %edi
	callq	malloc
	movl	$19134, %ebx            # imm = 0x4ABE
	movl	%ebx, %edi
	movl	$64, %ebx
	movl	%ebx, %esi
	movl	$1, %ebx
	movl	%ebx, %ecx
	movabsq	$.L.str.111, %r8
	xorl	%ebx, %ebx
	movl	%ebx, %r9d
	movabsq	$.L.str.5, %rdx
	.loc	1 142 9 is_stmt 0       # ss_sort.c:142:9
	movq	%rdx, -120(%rbp)        # 8-byte Spill
	movq	%rax, %rdx
	movq	-120(%rbp), %r10        # 8-byte Reload
	movq	%r10, (%rsp)
	movq	%rax, -128(%rbp)        # 8-byte Spill
	callq	trace_logger_log_ptr
	movl	$142, %ebx
	movl	%ebx, %edi
	movabsq	$.L.str.108, %rsi
	movabsq	$.L.str.2, %rdx
	movabsq	$.L.str.112, %rcx
	movl	$47, %ebx
	movl	%ebx, %r8d
	xorl	%r9d, %r9d
	movl	$1, %ebx
	movl	$1, (%rsp)
	movl	%ebx, -132(%rbp)        # 4-byte Spill
	callq	trace_logger_log0
	movl	$1, %r9d
	movl	%r9d, %eax
	movl	$64, %r9d
	movl	%r9d, %esi
	movabsq	$.L.str.111, %r8
	xorl	%r9d, %r9d
                                        # kill: def %r9 killed %r9d
	movabsq	$.L.str.5, %rcx
	movq	%rax, %rdi
	movq	-128(%rbp), %rdx        # 8-byte Reload
	movq	%rcx, -144(%rbp)        # 8-byte Spill
	movq	%rax, %rcx
	movq	-144(%rbp), %rax        # 8-byte Reload
	movq	%rax, (%rsp)
	callq	trace_logger_log_ptr
	movl	$19134, %ebx            # imm = 0x4ABE
	movl	%ebx, %edi
	movl	$64, %ebx
	movl	%ebx, %esi
	movl	$1, %ebx
	movl	%ebx, %ecx
	movabsq	$.L.str.111, %r8
	xorl	%ebx, %ebx
	movl	%ebx, %r9d
	movabsq	$.L.str.5, %rax
	movq	-128(%rbp), %rdx        # 8-byte Reload
	.loc	1 136 7 is_stmt 1       # ss_sort.c:136:7
	movq	%rdx, -152(%rbp)        # 8-byte Spill
	movq	%rax, (%rsp)
	callq	trace_logger_log_ptr
	movl	$143, %ebx
	movl	%ebx, %edi
	movabsq	$.L.str.108, %rsi
	movabsq	$.L.str.2, %rdx
	movabsq	$.L.str.113, %rcx
	movl	$54, %ebx
	movl	%ebx, %r8d
	xorl	%r9d, %r9d
	movl	$1, %ebx
.Ltmp84:
	#DEBUG_VALUE: main:arr <- [DW_OP_constu 152, DW_OP_minus] [%rbp+0]
	.loc	1 143 15                # ss_sort.c:143:15
	movl	$1, (%rsp)
	movl	%ebx, -156(%rbp)        # 4-byte Spill
	callq	trace_logger_log0
	movl	$2, %r9d
	movl	%r9d, %edi
	movl	$64, %r9d
	movl	%r9d, %esi
	movabsq	$malloc, %rdx
	movl	$1, %r9d
	movl	%r9d, %ecx
	movabsq	$.L.str.109, %r8
	xorl	%r9d, %r9d
                                        # kill: def %r9 killed %r9d
	movabsq	$.L.str.5, %rax
	movq	%rax, (%rsp)
	callq	trace_logger_log_ptr
	movl	$1, %ebx
	movl	%ebx, %edi
	movl	$64, %ebx
	movl	%ebx, %esi
	movl	$512, %ebx              # imm = 0x200
	movl	%ebx, %edx
	xorl	%ebx, %ebx
	movl	%ebx, %eax
	movabsq	$.L.str.15, %r8
	movabsq	$.L.str.5, %rcx
	movq	%rcx, -168(%rbp)        # 8-byte Spill
	movq	%rax, %rcx
	movq	%rax, %r9
	movq	-168(%rbp), %rax        # 8-byte Reload
	movq	%rax, (%rsp)
	callq	trace_logger_log_int
	movl	$512, %ebx              # imm = 0x200
	movl	%ebx, %edi
	callq	malloc
	movl	$19134, %ebx            # imm = 0x4ABE
	movl	%ebx, %edi
	movl	$64, %ebx
	movl	%ebx, %esi
	movl	$1, %ebx
	movl	%ebx, %ecx
	movabsq	$.L.str.113, %r8
	xorl	%ebx, %ebx
	movl	%ebx, %r9d
	movabsq	$.L.str.5, %rdx
	.loc	1 140 8                 # ss_sort.c:140:8
	movq	%rdx, -176(%rbp)        # 8-byte Spill
	movq	%rax, %rdx
	movq	-176(%rbp), %r10        # 8-byte Reload
	movq	%r10, (%rsp)
	movq	%rax, -184(%rbp)        # 8-byte Spill
	callq	trace_logger_log_ptr
	movl	$145, %ebx
	movl	%ebx, %edi
	movabsq	$.L.str.108, %rsi
	movabsq	$.L.str.2, %rdx
	movabsq	$.L.str.49, %rcx
	movl	$54, %ebx
	movl	%ebx, %r8d
	xorl	%r9d, %r9d
	movl	$1, %ebx
	.loc	1 145 2                 # ss_sort.c:145:2
	movl	$1, (%rsp)
	movl	%ebx, -188(%rbp)        # 4-byte Spill
	callq	trace_logger_log0
	movl	$2, %r9d
	movl	%r9d, %edi
	movl	$64, %r9d
	movl	%r9d, %esi
	movabsq	$srand, %rdx
	movl	$1, %r9d
	movl	%r9d, %ecx
	movabsq	$.L.str.114, %r8
	xorl	%r9d, %r9d
                                        # kill: def %r9 killed %r9d
	movabsq	$.L.str.5, %rax
	movq	%rax, (%rsp)
	callq	trace_logger_log_ptr
	movl	$1, %ebx
	movl	%ebx, %edi
	movl	$32, %ebx
	movl	%ebx, %esi
	movl	$8650341, %ebx          # imm = 0x83FE65
	movl	%ebx, %edx
	xorl	%ebx, %ebx
	movl	%ebx, %eax
	movabsq	$.L.str.15, %r8
	movabsq	$.L.str.5, %rcx
	movq	%rcx, -200(%rbp)        # 8-byte Spill
	movq	%rax, %rcx
	movq	%rax, %r9
	movq	-200(%rbp), %rax        # 8-byte Reload
	movq	%rax, (%rsp)
	callq	trace_logger_log_int
	movl	$8650341, %edi          # imm = 0x83FE65
	callq	srand
	movl	$149, %edi
                                        # kill: def %rdi killed %edi
	movabsq	$.L.str.108, %rsi
	movabsq	$.L.str.2, %rdx
	movabsq	$.L.str.115, %rcx
	movl	$2, %ebx
	movl	%ebx, %r8d
	xorl	%r9d, %r9d
	movl	$1, %ebx
.Ltmp85:
	#DEBUG_VALUE: main:max <- 2.550000e+02
	#DEBUG_VALUE: main:min <- 0.000000e+00
	#DEBUG_VALUE: main:i <- 0
	.loc	1 149 9                 # ss_sort.c:149:9
	movl	$1, (%rsp)
	movl	%ebx, -204(%rbp)        # 4-byte Spill
	callq	trace_logger_log0
	movl	$1, %r9d
	movl	%r9d, %eax
	xorl	%r9d, %r9d
	movl	%r9d, %ecx
	movabsq	$.L.str.116, %r8
	movabsq	$.L.str.5, %rdx
	movq	%rax, %rdi
	movq	%rcx, %rsi
	movq	%rdx, -216(%rbp)        # 8-byte Spill
	movq	%rcx, %rdx
	movq	%rcx, -224(%rbp)        # 8-byte Spill
	movq	%rax, %rcx
	movq	-224(%rbp), %r9         # 8-byte Reload
	movq	-216(%rbp), %rax        # 8-byte Reload
	movq	%rax, (%rsp)
	callq	trace_logger_log_int
	xorl	%ebx, %ebx
	movl	%ebx, %eax
	movq	%rax, -232(%rbp)        # 8-byte Spill
.Ltmp86:
.LBB8_1:                                # =>This Inner Loop Header: Depth=1
	#DEBUG_VALUE: main:arr <- [DW_OP_constu 152, DW_OP_minus] [%rbp+0]
	.loc	1 0 9 is_stmt 0         # ss_sort.c:0:9
	movq	-232(%rbp), %rax        # 8-byte Reload
	movq	$-1, %rdi
	movabsq	$.L.str.108, %rsi
	movabsq	$.L.str.116, %rdx
	movabsq	$.L.str.13, %rcx
	movl	$53, %r8d
                                        # kill: def %r8 killed %r8d
	xorl	%r9d, %r9d
	movl	$1, %r10d
	.loc	1 135 6 is_stmt 1       # ss_sort.c:135:6
	movl	$1, (%rsp)
	movq	%rax, -240(%rbp)        # 8-byte Spill
	movl	%r10d, -244(%rbp)       # 4-byte Spill
	callq	trace_logger_log0
	movl	$2, %r9d
	movl	%r9d, %edi
	movl	$64, %r9d
	movl	%r9d, %esi
	xorl	%r9d, %r9d
	movl	%r9d, %edx
	movl	$1, %r9d
	movl	%r9d, %eax
	movabsq	$.L.str.14, %r8
	movabsq	$.L.str.116, %rcx
	movq	%rcx, -256(%rbp)        # 8-byte Spill
	movq	%rax, %rcx
	movq	%rax, %r9
	movq	-256(%rbp), %rax        # 8-byte Reload
	movq	%rax, (%rsp)
	callq	trace_logger_log_int
	movl	$1, %r10d
	movl	%r10d, %eax
	movl	$64, %r10d
	movl	%r10d, %esi
	xorl	%r10d, %r10d
	movl	%r10d, %ecx
	movabsq	$.L.str.15, %r8
	movabsq	$.L.str.2, %rdx
	movq	%rax, %rdi
	movq	%rdx, -264(%rbp)        # 8-byte Spill
	movq	%rcx, %rdx
	movq	%rax, %r9
	movq	-264(%rbp), %rax        # 8-byte Reload
	movq	%rax, (%rsp)
	callq	trace_logger_log_int
	movl	$19134, %r10d           # imm = 0x4ABE
	movl	%r10d, %edi
	movl	$64, %r10d
	movl	%r10d, %esi
	movl	$1, %r10d
	movl	%r10d, %ecx
	movabsq	$.L.str.13, %r8
	xorl	%r10d, %r10d
	movl	%r10d, %r9d
	movabsq	$.L.str.2, %rax
	movq	-240(%rbp), %rdx        # 8-byte Reload
	movq	%rax, (%rsp)
	callq	trace_logger_log_int
	movl	$150, %r10d
	movl	%r10d, %edi
	movabsq	$.L.str.108, %rsi
	movabsq	$.L.str.116, %rdx
	movabsq	$.L.str.117, %rcx
	movl	$54, %r10d
	movl	%r10d, %r8d
	xorl	%r9d, %r9d
	movl	$1, %r10d
.Ltmp87:
	#DEBUG_VALUE: main:i <- [DW_OP_constu 240, DW_OP_minus] [%rbp+0]
	.loc	1 150 43                # ss_sort.c:150:43
	movl	$1, (%rsp)
	movl	%r10d, -268(%rbp)       # 4-byte Spill
	callq	trace_logger_log0
	movl	$1, %r9d
	movl	%r9d, %eax
	movl	$64, %r9d
	movl	%r9d, %esi
	movabsq	$rand, %rdx
	movabsq	$.L.str.118, %r8
	xorl	%r9d, %r9d
                                        # kill: def %r9 killed %r9d
	movabsq	$.L.str.5, %rcx
	movq	%rax, %rdi
	movq	%rcx, -280(%rbp)        # 8-byte Spill
	movq	%rax, %rcx
	movq	-280(%rbp), %rax        # 8-byte Reload
	movq	%rax, (%rsp)
	callq	trace_logger_log_ptr
	callq	rand
	movl	$19134, %r10d           # imm = 0x4ABE
	movl	%r10d, %edi
	movl	$32, %r10d
	movl	%r10d, %esi
	movl	$1, %r10d
	movl	%r10d, %ecx
	movabsq	$.L.str.117, %r8
	xorl	%r10d, %r10d
	movl	%r10d, %r9d
	movabsq	$.L.str.5, %rdx
	.loc	1 150 34 is_stmt 0      # ss_sort.c:150:34
	movl	%eax, %r10d
	movl	%r10d, %r11d
	movq	%rdx, -288(%rbp)        # 8-byte Spill
	movq	%r11, %rdx
	movq	-288(%rbp), %r11        # 8-byte Reload
	movq	%r11, (%rsp)
	movl	%eax, -292(%rbp)        # 4-byte Spill
	callq	trace_logger_log_int
	movl	$150, %eax
	movl	%eax, %edi
	movabsq	$.L.str.108, %rsi
	movabsq	$.L.str.116, %rdx
	movabsq	$.L.str.119, %rcx
	movl	$42, %eax
	movl	%eax, %r8d
	xorl	%r9d, %r9d
	movl	$1, %eax
	movl	$1, (%rsp)
	movl	%eax, -296(%rbp)        # 4-byte Spill
	callq	trace_logger_log0
	movl	$1, %eax
	movl	%eax, %ecx
	movl	$32, %eax
	movl	%eax, %esi
	movabsq	$.L.str.117, %r8
	xorl	%eax, %eax
	movl	%eax, %r9d
	movabsq	$.L.str.5, %rdx
	movl	-292(%rbp), %eax        # 4-byte Reload
	movl	%eax, %r10d
	movl	%r10d, %edi
	movq	%rdi, -304(%rbp)        # 8-byte Spill
	movq	%rcx, %rdi
	movq	-304(%rbp), %r11        # 8-byte Reload
	movq	%rdx, -312(%rbp)        # 8-byte Spill
	movq	%r11, %rdx
	movq	-312(%rbp), %rbx        # 8-byte Reload
	movq	%rbx, (%rsp)
	callq	trace_logger_log_int
	movl	$19134, %eax            # imm = 0x4ABE
	movl	%eax, %edi
	movl	$64, %eax
	movl	%eax, %esi
	movl	$1, %eax
	movl	%eax, %edx
	movabsq	$.L.str.119, %rcx
	xorl	%eax, %eax
	movl	%eax, %r8d
	movabsq	$.L.str.5, %r9
	movl	-292(%rbp), %eax        # 4-byte Reload
	cvtsi2sdl	%eax, %xmm0
	.loc	1 150 50                # ss_sort.c:150:50
	movsd	%xmm0, -320(%rbp)       # 8-byte Spill
	callq	trace_logger_log_double
	movl	$150, %eax
	movl	%eax, %edi
	movabsq	$.L.str.108, %rsi
	movabsq	$.L.str.116, %rdx
	movabsq	$.L.str.120, %rcx
	movl	$19, %eax
	movl	%eax, %r8d
	xorl	%r9d, %r9d
	movl	$1, %eax
	movl	$1, (%rsp)
	movl	%eax, -324(%rbp)        # 4-byte Spill
	callq	trace_logger_log0
	movl	$2, %eax
	movl	%eax, %edi
	movl	$64, %eax
	movl	%eax, %esi
	movsd	.LCPI8_1(%rip), %xmm0   # xmm0 = mem[0],zero
	xorl	%eax, %eax
	movl	%eax, %ecx
	movabsq	$.L.str.15, %rdx
	movabsq	$.L.str.5, %r9
	movq	%rdx, -336(%rbp)        # 8-byte Spill
	movq	%rcx, %rdx
	movq	-336(%rbp), %r8         # 8-byte Reload
	movq	%rcx, -344(%rbp)        # 8-byte Spill
	movq	%r8, %rcx
	movq	-344(%rbp), %r8         # 8-byte Reload
	callq	trace_logger_log_double
	movl	$1, %eax
	movl	%eax, %ecx
	movl	$64, %eax
	movl	%eax, %esi
	movabsq	$.L.str.119, %rdx
	xorl	%eax, %eax
	movl	%eax, %r8d
	movabsq	$.L.str.5, %r9
	movq	%rcx, %rdi
	movsd	-320(%rbp), %xmm0       # 8-byte Reload
                                        # xmm0 = mem[0],zero
	movq	%rdx, -352(%rbp)        # 8-byte Spill
	movq	%rcx, %rdx
	movq	-352(%rbp), %rcx        # 8-byte Reload
	callq	trace_logger_log_double
	movl	$19134, %eax            # imm = 0x4ABE
	movl	%eax, %edi
	movl	$64, %eax
	movl	%eax, %esi
	movl	$1, %eax
	movl	%eax, %edx
	movabsq	$.L.str.120, %rcx
	xorl	%eax, %eax
	movl	%eax, %r8d
	movabsq	$.L.str.5, %r9
	movsd	.LCPI8_1(%rip), %xmm0   # xmm0 = mem[0],zero
	movsd	-320(%rbp), %xmm1       # 8-byte Reload
                                        # xmm1 = mem[0],zero
	divsd	%xmm0, %xmm1
	.loc	1 150 64                # ss_sort.c:150:64
	movaps	%xmm1, %xmm0
	movsd	%xmm1, -360(%rbp)       # 8-byte Spill
	callq	trace_logger_log_double
	movl	$150, %eax
	movl	%eax, %edi
	movabsq	$.L.str.108, %rsi
	movabsq	$.L.str.116, %rdx
	movabsq	$.L.str.121, %rcx
	movl	$16, %eax
	movl	%eax, %r8d
	xorl	%r9d, %r9d
	movl	$1, %eax
	movl	$1, (%rsp)
	movl	%eax, -364(%rbp)        # 4-byte Spill
	callq	trace_logger_log0
	movl	$2, %eax
	movl	%eax, %edi
	movl	$64, %eax
	movl	%eax, %esi
	movsd	.LCPI8_0(%rip), %xmm0   # xmm0 = mem[0],zero
	xorl	%eax, %eax
	movl	%eax, %ecx
	movabsq	$.L.str.15, %rdx
	movabsq	$.L.str.5, %r9
	movq	%rdx, -376(%rbp)        # 8-byte Spill
	movq	%rcx, %rdx
	movq	-376(%rbp), %r8         # 8-byte Reload
	movq	%rcx, -384(%rbp)        # 8-byte Spill
	movq	%r8, %rcx
	movq	-384(%rbp), %r8         # 8-byte Reload
	callq	trace_logger_log_double
	movl	$1, %eax
	movl	%eax, %ecx
	movl	$64, %eax
	movl	%eax, %esi
	movabsq	$.L.str.120, %rdx
	xorl	%eax, %eax
	movl	%eax, %r8d
	movabsq	$.L.str.5, %r9
	movq	%rcx, %rdi
	movsd	-360(%rbp), %xmm0       # 8-byte Reload
                                        # xmm0 = mem[0],zero
	movq	%rdx, -392(%rbp)        # 8-byte Spill
	movq	%rcx, %rdx
	movq	-392(%rbp), %rcx        # 8-byte Reload
	callq	trace_logger_log_double
	movl	$19134, %eax            # imm = 0x4ABE
	movl	%eax, %edi
	movl	$64, %eax
	movl	%eax, %esi
	movl	$1, %eax
	movl	%eax, %edx
	movabsq	$.L.str.121, %rcx
	xorl	%eax, %eax
	movl	%eax, %r8d
	movabsq	$.L.str.5, %r9
	movsd	.LCPI8_0(%rip), %xmm0   # xmm0 = mem[0],zero
	movsd	-360(%rbp), %xmm1       # 8-byte Reload
                                        # xmm1 = mem[0],zero
	mulsd	%xmm0, %xmm1
	.loc	1 150 76                # ss_sort.c:150:76
	movaps	%xmm1, %xmm0
	movsd	%xmm1, -400(%rbp)       # 8-byte Spill
	callq	trace_logger_log_double
	movl	$150, %eax
	movl	%eax, %edi
	movabsq	$.L.str.108, %rsi
	movabsq	$.L.str.116, %rdx
	movabsq	$.L.str.50, %rcx
	movl	$12, %eax
	movl	%eax, %r8d
	xorl	%r9d, %r9d
	movl	$1, %eax
	movl	$1, (%rsp)
	movl	%eax, -404(%rbp)        # 4-byte Spill
	callq	trace_logger_log0
	movl	$2, %eax
	movl	%eax, %edi
	movl	$64, %eax
	movl	%eax, %esi
	xorps	%xmm0, %xmm0
	xorl	%eax, %eax
	movl	%eax, %ecx
	movabsq	$.L.str.15, %rdx
	movabsq	$.L.str.5, %r9
	movq	%rdx, -416(%rbp)        # 8-byte Spill
	movq	%rcx, %rdx
	movq	-416(%rbp), %r8         # 8-byte Reload
	movq	%rcx, -424(%rbp)        # 8-byte Spill
	movq	%r8, %rcx
	movq	-424(%rbp), %r8         # 8-byte Reload
	callq	trace_logger_log_double
	movl	$1, %eax
	movl	%eax, %ecx
	movl	$64, %eax
	movl	%eax, %esi
	movabsq	$.L.str.121, %rdx
	xorl	%eax, %eax
	movl	%eax, %r8d
	movabsq	$.L.str.5, %r9
	movq	%rcx, %rdi
	movsd	-400(%rbp), %xmm0       # 8-byte Reload
                                        # xmm0 = mem[0],zero
	movq	%rdx, -432(%rbp)        # 8-byte Spill
	movq	%rcx, %rdx
	movq	-432(%rbp), %rcx        # 8-byte Reload
	callq	trace_logger_log_double
	movl	$19134, %eax            # imm = 0x4ABE
	movl	%eax, %edi
	movl	$64, %eax
	movl	%eax, %esi
	movl	$1, %eax
	movl	%eax, %edx
	movabsq	$.L.str.50, %rcx
	xorl	%eax, %eax
	movl	%eax, %r8d
	movabsq	$.L.str.5, %r9
	xorps	%xmm0, %xmm0
	movsd	-400(%rbp), %xmm1       # 8-byte Reload
                                        # xmm1 = mem[0],zero
	addsd	%xmm0, %xmm1
	.loc	1 150 26                # ss_sort.c:150:26
	movaps	%xmm1, %xmm0
	movsd	%xmm1, -440(%rbp)       # 8-byte Spill
	callq	trace_logger_log_double
	movl	$150, %eax
	movl	%eax, %edi
	movabsq	$.L.str.108, %rsi
	movabsq	$.L.str.116, %rdx
	movabsq	$.L.str.122, %rcx
	movl	$40, %eax
	movl	%eax, %r8d
	xorl	%r9d, %r9d
	movl	$1, %eax
	movl	$1, (%rsp)
	movl	%eax, -444(%rbp)        # 4-byte Spill
	callq	trace_logger_log0
	movl	$1, %eax
	movl	%eax, %ecx
	movl	$64, %eax
	movl	%eax, %esi
	movabsq	$.L.str.50, %rdx
	xorl	%eax, %eax
	movl	%eax, %r8d
	movabsq	$.L.str.5, %r9
	movq	%rcx, %rdi
	movsd	-440(%rbp), %xmm0       # 8-byte Reload
                                        # xmm0 = mem[0],zero
	movq	%rdx, -456(%rbp)        # 8-byte Spill
	movq	%rcx, %rdx
	movq	-456(%rbp), %rcx        # 8-byte Reload
	callq	trace_logger_log_double
	movl	$19134, %eax            # imm = 0x4ABE
	movl	%eax, %edi
	movl	$32, %eax
	movl	%eax, %esi
	movl	$1, %eax
	movl	%eax, %ecx
	movabsq	$.L.str.122, %r8
	xorl	%eax, %eax
	movl	%eax, %r9d
	movabsq	$.L.str.5, %rdx
	movsd	-440(%rbp), %xmm0       # 8-byte Reload
                                        # xmm0 = mem[0],zero
	cvttsd2si	%xmm0, %eax
	.loc	1 150 17                # ss_sort.c:150:17
	movl	%eax, %r10d
	movl	%r10d, %r11d
	movq	%rdx, -464(%rbp)        # 8-byte Spill
	movq	%r11, %rdx
	movq	-464(%rbp), %r11        # 8-byte Reload
	movq	%r11, (%rsp)
	movl	%eax, -468(%rbp)        # 4-byte Spill
	callq	trace_logger_log_int
	movl	$150, %eax
	movl	%eax, %edi
	movabsq	$.L.str.108, %rsi
	movabsq	$.L.str.116, %rdx
	movabsq	$.L.str.16, %rcx
	movl	$32, %eax
	movl	%eax, %r8d
	xorl	%r9d, %r9d
	movl	$1, %eax
	movl	$1, (%rsp)
	movl	%eax, -472(%rbp)        # 4-byte Spill
	callq	trace_logger_log0
	movl	$2, %eax
	movl	%eax, %edi
	movl	$64, %eax
	movl	%eax, %esi
	movl	$1, %eax
	movl	%eax, %ecx
	movabsq	$.L.str.13, %r8
	xorl	%eax, %eax
	movl	%eax, %r9d
	movabsq	$.L.str.5, %rdx
	movq	-240(%rbp), %r11        # 8-byte Reload
	movq	%rdx, -480(%rbp)        # 8-byte Spill
	movq	%r11, %rdx
	movq	-480(%rbp), %rbx        # 8-byte Reload
	movq	%rbx, (%rsp)
	callq	trace_logger_log_int
	movl	$1, %eax
	movl	%eax, %ecx
	movl	$64, %eax
	movl	%eax, %esi
	movabsq	$.L.str.111, %r8
	xorl	%eax, %eax
	movl	%eax, %r9d
	movabsq	$.L.str.5, %rdx
	movq	%rcx, %rdi
	movq	-152(%rbp), %r11        # 8-byte Reload
	movq	%rdx, -488(%rbp)        # 8-byte Spill
	movq	%r11, %rdx
	movq	-488(%rbp), %rbx        # 8-byte Reload
	movq	%rbx, (%rsp)
	callq	trace_logger_log_ptr
	movl	$19134, %eax            # imm = 0x4ABE
	movl	%eax, %edi
	movl	$64, %eax
	movl	%eax, %esi
	movl	$1, %eax
	movl	%eax, %ecx
	movabsq	$.L.str.16, %r8
	xorl	%eax, %eax
	movl	%eax, %r9d
	movabsq	$.L.str.5, %rdx
	movq	-240(%rbp), %r11        # 8-byte Reload
	shlq	$2, %r11
	movq	-152(%rbp), %rbx        # 8-byte Reload
	addq	%r11, %rbx
	.loc	1 150 24                # ss_sort.c:150:24
	movq	%rdx, -496(%rbp)        # 8-byte Spill
	movq	%rbx, %rdx
	movq	-496(%rbp), %r11        # 8-byte Reload
	movq	%r11, (%rsp)
	movq	%rbx, -504(%rbp)        # 8-byte Spill
	callq	trace_logger_log_ptr
	movl	$150, %eax
	movl	%eax, %edi
	movabsq	$.L.str.108, %rsi
	movabsq	$.L.str.116, %rdx
	movabsq	$.L.str.123, %rcx
	movl	$31, %eax
	movl	%eax, %r8d
	xorl	%r9d, %r9d
	movl	$1, %eax
	movl	$1, (%rsp)
	movl	%eax, -508(%rbp)        # 4-byte Spill
	callq	trace_logger_log0
	movl	$2, %eax
	movl	%eax, %edi
	movl	$64, %eax
	movl	%eax, %esi
	movl	$1, %eax
	movl	%eax, %ecx
	movabsq	$.L.str.16, %r8
	xorl	%eax, %eax
	movl	%eax, %r9d
	movabsq	$.L.str.5, %rdx
	movq	-504(%rbp), %r11        # 8-byte Reload
	movq	%rdx, -520(%rbp)        # 8-byte Spill
	movq	%r11, %rdx
	movq	-520(%rbp), %rbx        # 8-byte Reload
	movq	%rbx, (%rsp)
	callq	trace_logger_log_ptr
	movl	$1, %eax
	movl	%eax, %ecx
	movl	$32, %eax
	movl	%eax, %esi
	movabsq	$.L.str.122, %r8
	xorl	%eax, %eax
	movl	%eax, %r9d
	movabsq	$.L.str.5, %rdx
	movl	-468(%rbp), %eax        # 4-byte Reload
	movl	%eax, %r10d
	movl	%r10d, %edi
	movq	%rdi, -528(%rbp)        # 8-byte Spill
	movq	%rcx, %rdi
	movq	-528(%rbp), %r11        # 8-byte Reload
	movq	%rdx, -536(%rbp)        # 8-byte Spill
	movq	%r11, %rdx
	movq	-536(%rbp), %rbx        # 8-byte Reload
	movq	%rbx, (%rsp)
	callq	trace_logger_log_int
	movl	$149, %eax
	movl	%eax, %edi
	movabsq	$.L.str.108, %rsi
	movabsq	$.L.str.116, %rdx
	movabsq	$.L.str.14, %rcx
	movl	$11, %eax
	movl	%eax, %r8d
	xorl	%r9d, %r9d
	movl	$1, %eax
	movq	-152(%rbp), %r11        # 8-byte Reload
	movq	-240(%rbp), %rbx        # 8-byte Reload
	movl	-468(%rbp), %r10d       # 4-byte Reload
	movl	%r10d, (%r11,%rbx,4)
.Ltmp88:
	.loc	1 149 24 is_stmt 1      # ss_sort.c:149:24
	movl	$1, (%rsp)
	movl	%eax, -540(%rbp)        # 4-byte Spill
	callq	trace_logger_log0
	movl	$2, %eax
	movl	%eax, %edi
	movl	$64, %eax
	movl	%eax, %esi
	movl	$1, %eax
	movl	%eax, %edx
	xorl	%eax, %eax
	movl	%eax, %ecx
	movabsq	$.L.str.15, %r8
	movabsq	$.L.str.5, %r11
	movq	%rcx, -552(%rbp)        # 8-byte Spill
	movq	-552(%rbp), %r9         # 8-byte Reload
	movq	%r11, (%rsp)
	callq	trace_logger_log_int
	movl	$1, %eax
	movl	%eax, %ecx
	movl	$64, %eax
	movl	%eax, %esi
	movabsq	$.L.str.13, %r8
	xorl	%eax, %eax
	movl	%eax, %r9d
	movabsq	$.L.str.5, %rdx
	movq	%rcx, %rdi
	movq	-240(%rbp), %r11        # 8-byte Reload
	movq	%rdx, -560(%rbp)        # 8-byte Spill
	movq	%r11, %rdx
	movq	-560(%rbp), %rbx        # 8-byte Reload
	movq	%rbx, (%rsp)
	callq	trace_logger_log_int
	movl	$19134, %eax            # imm = 0x4ABE
	movl	%eax, %edi
	movl	$64, %eax
	movl	%eax, %esi
	movl	$1, %eax
	movl	%eax, %ecx
	movabsq	$.L.str.14, %r8
	xorl	%eax, %eax
	movl	%eax, %r9d
	movabsq	$.L.str.5, %rdx
	movq	-240(%rbp), %r11        # 8-byte Reload
	addq	$1, %r11
	.loc	1 149 19 is_stmt 0      # ss_sort.c:149:19
	movq	%rdx, -568(%rbp)        # 8-byte Spill
	movq	%r11, %rdx
	movq	-568(%rbp), %rbx        # 8-byte Reload
	movq	%rbx, (%rsp)
	movq	%r11, -576(%rbp)        # 8-byte Spill
	callq	trace_logger_log_int
	movl	$149, %eax
	movl	%eax, %edi
	movabsq	$.L.str.108, %rsi
	movabsq	$.L.str.116, %rdx
	movabsq	$.L.str.22, %rcx
	movl	$51, %eax
	movl	%eax, %r8d
	xorl	%r9d, %r9d
	movl	$1, %eax
	movl	$1, (%rsp)
	movl	%eax, -580(%rbp)        # 4-byte Spill
	callq	trace_logger_log0
	movl	$2, %eax
	movl	%eax, %edi
	movl	$64, %eax
	movl	%eax, %esi
	movl	$2048, %eax             # imm = 0x800
	movl	%eax, %edx
	xorl	%eax, %eax
	movl	%eax, %ecx
	movabsq	$.L.str.15, %r8
	movabsq	$.L.str.5, %r11
	movq	%rcx, -592(%rbp)        # 8-byte Spill
	movq	-592(%rbp), %r9         # 8-byte Reload
	movq	%r11, (%rsp)
	callq	trace_logger_log_int
	movl	$1, %eax
	movl	%eax, %ecx
	movl	$64, %eax
	movl	%eax, %esi
	movabsq	$.L.str.14, %r8
	xorl	%eax, %eax
	movl	%eax, %r9d
	movabsq	$.L.str.5, %rdx
	movq	%rcx, %rdi
	movq	-576(%rbp), %r11        # 8-byte Reload
	movq	%rdx, -600(%rbp)        # 8-byte Spill
	movq	%r11, %rdx
	movq	-600(%rbp), %rbx        # 8-byte Reload
	movq	%rbx, (%rsp)
	callq	trace_logger_log_int
	movl	$19134, %eax            # imm = 0x4ABE
	movl	%eax, %edi
	movl	$1, %eax
	movl	%eax, %ecx
	movabsq	$.L.str.22, %r8
	xorl	%eax, %eax
	movl	%eax, %r9d
	movabsq	$.L.str.5, %rdx
	movq	-576(%rbp), %rsi        # 8-byte Reload
	cmpq	$2048, %rsi             # imm = 0x800
	sete	%r14b
.Ltmp89:
	.loc	1 149 9                 # ss_sort.c:149:9
	movb	%r14b, %r15b
	andb	$1, %r15b
	movzbl	%r15b, %eax
	movl	%eax, %r11d
	movq	%rcx, %rsi
	movq	%rdx, -608(%rbp)        # 8-byte Spill
	movq	%r11, %rdx
	movq	-608(%rbp), %r11        # 8-byte Reload
	movq	%r11, (%rsp)
	movb	%r14b, -609(%rbp)       # 1-byte Spill
	callq	trace_logger_log_int
	movl	$149, %eax
	movl	%eax, %edi
	movabsq	$.L.str.108, %rsi
	movabsq	$.L.str.116, %rdx
	movabsq	$.L.str.124, %rcx
	movl	$2, %eax
	movl	%eax, %r8d
	xorl	%r9d, %r9d
	movl	$1, %eax
	movl	$1, (%rsp)
	movl	%eax, -616(%rbp)        # 4-byte Spill
	callq	trace_logger_log0
	movl	$3, %eax
	movl	%eax, %edi
	xorl	%eax, %eax
	movl	%eax, %ecx
	movl	$1, %eax
	movl	%eax, %edx
	movabsq	$.L.str.125, %r8
	movabsq	$.L.str.5, %rsi
	movq	%rsi, -624(%rbp)        # 8-byte Spill
	movq	%rcx, %rsi
	movq	%rdx, -632(%rbp)        # 8-byte Spill
	movq	%rcx, %rdx
	movq	-632(%rbp), %r11        # 8-byte Reload
	movq	%rcx, -640(%rbp)        # 8-byte Spill
	movq	%r11, %rcx
	movq	-640(%rbp), %r9         # 8-byte Reload
	movq	-624(%rbp), %rbx        # 8-byte Reload
	movq	%rbx, (%rsp)
	callq	trace_logger_log_int
	movl	$2, %eax
	movl	%eax, %edi
	xorl	%eax, %eax
	movl	%eax, %ecx
	movl	$1, %eax
	movl	%eax, %edx
	movabsq	$.L.str.116, %r8
	movabsq	$.L.str.5, %rsi
	movq	%rsi, -648(%rbp)        # 8-byte Spill
	movq	%rcx, %rsi
	movq	%rdx, -656(%rbp)        # 8-byte Spill
	movq	%rcx, %rdx
	movq	-656(%rbp), %r9         # 8-byte Reload
	movq	%rcx, -664(%rbp)        # 8-byte Spill
	movq	%r9, %rcx
	movq	-664(%rbp), %r9         # 8-byte Reload
	movq	-648(%rbp), %r11        # 8-byte Reload
	movq	%r11, (%rsp)
	callq	trace_logger_log_int
	movl	$1, %eax
	movl	%eax, %ecx
	movabsq	$.L.str.22, %r8
	xorl	%eax, %eax
	movl	%eax, %r9d
	movabsq	$.L.str.5, %rdx
	movb	-609(%rbp), %r14b       # 1-byte Reload
	andb	$1, %r14b
	movzbl	%r14b, %eax
	movl	%eax, %esi
	movq	%rcx, %rdi
	movq	%rsi, -672(%rbp)        # 8-byte Spill
	movq	%rcx, %rsi
	movq	-672(%rbp), %r11        # 8-byte Reload
	movq	%rdx, -680(%rbp)        # 8-byte Spill
	movq	%r11, %rdx
	movq	-680(%rbp), %rbx        # 8-byte Reload
	movq	%rbx, (%rsp)
	callq	trace_logger_log_int
	movb	-609(%rbp), %r14b       # 1-byte Reload
	testb	$1, %r14b
	movq	-576(%rbp), %rcx        # 8-byte Reload
	movq	%rcx, -232(%rbp)        # 8-byte Spill
	jne	.LBB8_2
	jmp	.LBB8_1
.Ltmp90:
.LBB8_2:
	#DEBUG_VALUE: main:i <- [DW_OP_constu 240, DW_OP_minus] [%rbp+0]
	#DEBUG_VALUE: main:arr <- [DW_OP_constu 152, DW_OP_minus] [%rbp+0]
	.loc	1 0 9                   # ss_sort.c:0:9
	movl	$138, %eax
	movl	%eax, %edi
	movabsq	$.L.str.108, %rsi
	movabsq	$.L.str.125, %rdx
	movabsq	$.L.str.52, %rcx
	movl	$47, %eax
	movl	%eax, %r8d
	xorl	%r9d, %r9d
	movl	$1, %eax
	.loc	1 138 12 is_stmt 1      # ss_sort.c:138:12
	movl	$1, (%rsp)
	movl	%eax, -684(%rbp)        # 4-byte Spill
	callq	trace_logger_log0
	movl	$1, %eax
	movl	%eax, %ecx
	movl	$64, %eax
	movl	%eax, %esi
	movabsq	$.L.str.19, %r8
	xorl	%eax, %eax
	movl	%eax, %r9d
	movabsq	$.L.str.5, %rdx
	movq	%rcx, %rdi
	movq	-64(%rbp), %r10         # 8-byte Reload
	movq	%rdx, -696(%rbp)        # 8-byte Spill
	movq	%r10, %rdx
	movq	-696(%rbp), %r11        # 8-byte Reload
	movq	%r11, (%rsp)
	callq	trace_logger_log_ptr
	movl	$19134, %eax            # imm = 0x4ABE
	movl	%eax, %edi
	movl	$64, %eax
	movl	%eax, %esi
	movl	$1, %eax
	movl	%eax, %ecx
	movabsq	$.L.str.19, %r8
	xorl	%eax, %eax
	movl	%eax, %r9d
	movabsq	$.L.str.5, %rdx
	movq	-64(%rbp), %r10         # 8-byte Reload
	.loc	1 141 7                 # ss_sort.c:141:7
	movq	%rdx, -704(%rbp)        # 8-byte Spill
	movq	%r10, %rdx
	movq	-704(%rbp), %r11        # 8-byte Reload
	movq	%r11, (%rsp)
	movq	%r10, -712(%rbp)        # 8-byte Spill
	callq	trace_logger_log_ptr
	movl	$141, %eax
	movl	%eax, %edi
	movabsq	$.L.str.108, %rsi
	movabsq	$.L.str.125, %rdx
	movabsq	$.L.str.38, %rcx
	movl	$47, %eax
	movl	%eax, %r8d
	xorl	%r9d, %r9d
	movl	$1, %eax
	movl	$1, (%rsp)
	movl	%eax, -716(%rbp)        # 4-byte Spill
	callq	trace_logger_log0
	movl	$1, %eax
	movl	%eax, %ecx
	movl	$64, %eax
	movl	%eax, %esi
	movabsq	$.L.str.110, %r8
	xorl	%eax, %eax
	movl	%eax, %r9d
	movabsq	$.L.str.5, %rdx
	movq	%rcx, %rdi
	movq	-96(%rbp), %r10         # 8-byte Reload
	movq	%rdx, -728(%rbp)        # 8-byte Spill
	movq	%r10, %rdx
	movq	-728(%rbp), %r11        # 8-byte Reload
	movq	%r11, (%rsp)
	callq	trace_logger_log_ptr
	movl	$19134, %eax            # imm = 0x4ABE
	movl	%eax, %edi
	movl	$64, %eax
	movl	%eax, %esi
	movl	$1, %eax
	movl	%eax, %ecx
	movabsq	$.L.str.110, %r8
	xorl	%eax, %eax
	movl	%eax, %r9d
	movabsq	$.L.str.5, %rdx
	movq	-96(%rbp), %r10         # 8-byte Reload
	.loc	1 143 9                 # ss_sort.c:143:9
	movq	%rdx, -736(%rbp)        # 8-byte Spill
	movq	%r10, %rdx
	movq	-736(%rbp), %r11        # 8-byte Reload
	movq	%r11, (%rsp)
	movq	%r10, -744(%rbp)        # 8-byte Spill
	callq	trace_logger_log_ptr
	movl	$143, %eax
	movl	%eax, %edi
	movabsq	$.L.str.108, %rsi
	movabsq	$.L.str.125, %rdx
	movabsq	$.L.str.40, %rcx
	movl	$47, %eax
	movl	%eax, %r8d
	xorl	%r9d, %r9d
	movl	$1, %eax
	movl	$1, (%rsp)
	movl	%eax, -748(%rbp)        # 4-byte Spill
	callq	trace_logger_log0
	movl	$1, %eax
	movl	%eax, %ecx
	movl	$64, %eax
	movl	%eax, %esi
	movabsq	$.L.str.113, %r8
	xorl	%eax, %eax
	movl	%eax, %r9d
	movabsq	$.L.str.5, %rdx
	movq	%rcx, %rdi
	movq	-184(%rbp), %r10        # 8-byte Reload
	movq	%rdx, -760(%rbp)        # 8-byte Spill
	movq	%r10, %rdx
	movq	-760(%rbp), %r11        # 8-byte Reload
	movq	%r11, (%rsp)
	callq	trace_logger_log_ptr
	movl	$19134, %eax            # imm = 0x4ABE
	movl	%eax, %edi
	movl	$64, %eax
	movl	%eax, %esi
	movl	$1, %eax
	movl	%eax, %ecx
	movabsq	$.L.str.113, %r8
	xorl	%eax, %eax
	movl	%eax, %r9d
	movabsq	$.L.str.5, %rdx
	movq	-184(%rbp), %r10        # 8-byte Reload
	.loc	1 159 2                 # ss_sort.c:159:2
	movq	%rdx, -768(%rbp)        # 8-byte Spill
	movq	%r10, %rdx
	movq	-768(%rbp), %r11        # 8-byte Reload
	movq	%r11, (%rsp)
	movq	%r10, -776(%rbp)        # 8-byte Spill
	callq	trace_logger_log_ptr
	movl	$159, %eax
	movl	%eax, %edi
	movabsq	$.L.str.108, %rsi
	movabsq	$.L.str.125, %rdx
	movabsq	$.L.str.126, %rcx
	movl	$54, %eax
	movl	%eax, %r8d
	xorl	%r9d, %r9d
	movl	$1, %eax
	movl	$1, (%rsp)
	movl	%eax, -780(%rbp)        # 4-byte Spill
	callq	trace_logger_log0
	movl	$5, %eax
	movl	%eax, %edi
	movl	$64, %eax
	movl	%eax, %esi
	movabsq	$ss_sort, %rdx
	movl	$1, %eax
	movl	%eax, %ecx
	movabsq	$.L.str.100, %r8
	xorl	%eax, %eax
	movl	%eax, %r9d
	movabsq	$.L.str.5, %r10
	movq	%r10, (%rsp)
	callq	trace_logger_log_ptr
	movl	$1, %eax
	movl	%eax, %ecx
	movl	$64, %eax
	movl	%eax, %esi
	movabsq	$.L.str.111, %r8
	xorl	%eax, %eax
	movl	%eax, %r9d
	movabsq	$.L.str.5, %rdx
	movq	%rcx, %rdi
	movq	-152(%rbp), %r10        # 8-byte Reload
	movq	%rdx, -792(%rbp)        # 8-byte Spill
	movq	%r10, %rdx
	movq	-792(%rbp), %r11        # 8-byte Reload
	movq	%r11, (%rsp)
	callq	trace_logger_log_ptr
	movl	$2, %eax
	movl	%eax, %edi
	movl	$64, %eax
	movl	%eax, %esi
	movl	$1, %eax
	movl	%eax, %ecx
	movabsq	$.L.str.110, %r8
	xorl	%eax, %eax
	movl	%eax, %r9d
	movabsq	$.L.str.5, %rdx
	movq	-744(%rbp), %r10        # 8-byte Reload
	movq	%rdx, -800(%rbp)        # 8-byte Spill
	movq	%r10, %rdx
	movq	-800(%rbp), %r11        # 8-byte Reload
	movq	%r11, (%rsp)
	callq	trace_logger_log_ptr
	movl	$3, %eax
	movl	%eax, %edi
	movl	$64, %eax
	movl	%eax, %esi
	movl	$1, %eax
	movl	%eax, %ecx
	movabsq	$.L.str.19, %r8
	xorl	%eax, %eax
	movl	%eax, %r9d
	movabsq	$.L.str.5, %rdx
	movq	-712(%rbp), %r10        # 8-byte Reload
	movq	%rdx, -808(%rbp)        # 8-byte Spill
	movq	%r10, %rdx
	movq	-808(%rbp), %r11        # 8-byte Reload
	movq	%r11, (%rsp)
	callq	trace_logger_log_ptr
	movl	$4, %eax
	movl	%eax, %edi
	movl	$64, %eax
	movl	%eax, %esi
	movl	$1, %eax
	movl	%eax, %ecx
	movabsq	$.L.str.113, %r8
	xorl	%eax, %eax
	movl	%eax, %r9d
	movabsq	$.L.str.5, %rdx
	movq	-776(%rbp), %r10        # 8-byte Reload
	movq	%rdx, -816(%rbp)        # 8-byte Spill
	movq	%r10, %rdx
	movq	-816(%rbp), %r11        # 8-byte Reload
	movq	%r11, (%rsp)
	callq	trace_logger_log_ptr
	movq	-152(%rbp), %rdi        # 8-byte Reload
	movq	-744(%rbp), %rsi        # 8-byte Reload
	movq	-712(%rbp), %rdx        # 8-byte Reload
	movq	-776(%rbp), %rcx        # 8-byte Reload
	callq	ss_sort
	movl	$165, %eax
	movl	%eax, %edi
	movabsq	$.L.str.108, %rsi
	movabsq	$.L.str.125, %rdx
	movabsq	$.L.str.127, %rcx
	movl	$54, %eax
	movl	%eax, %r8d
	xorl	%r9d, %r9d
	movl	$1, %eax
	.loc	1 165 2                 # ss_sort.c:165:2
	movl	$1, (%rsp)
	movl	%eax, -820(%rbp)        # 4-byte Spill
	callq	trace_logger_log0
	movl	$3, %eax
	movl	%eax, %edi
	movl	$64, %eax
	movl	%eax, %esi
	movabsq	$print, %rdx
	movl	$1, %eax
	movl	%eax, %ecx
	movabsq	$.L.str.1, %r8
	xorl	%eax, %eax
	movl	%eax, %r9d
	movabsq	$.L.str.5, %r10
	movq	%r10, (%rsp)
	callq	trace_logger_log_ptr
	movl	$1, %eax
	movl	%eax, %ecx
	movl	$64, %eax
	movl	%eax, %esi
	movabsq	$.L.str.111, %r8
	xorl	%eax, %eax
	movl	%eax, %r9d
	movabsq	$.L.str.5, %rdx
	movq	%rcx, %rdi
	movq	-152(%rbp), %r10        # 8-byte Reload
	movq	%rdx, -832(%rbp)        # 8-byte Spill
	movq	%r10, %rdx
	movq	-832(%rbp), %r11        # 8-byte Reload
	movq	%r11, (%rsp)
	callq	trace_logger_log_ptr
	movl	$2, %eax
	movl	%eax, %edi
	movl	$32, %eax
	movl	%eax, %esi
	movl	$1, %eax
	movl	%eax, %edx
	xorl	%eax, %eax
	movl	%eax, %ecx
	movabsq	$.L.str.15, %r8
	movabsq	$.L.str.5, %r9
	movq	%rcx, -840(%rbp)        # 8-byte Spill
	movq	-840(%rbp), %r10        # 8-byte Reload
	movq	%r9, -848(%rbp)         # 8-byte Spill
	movq	%r10, %r9
	movq	-848(%rbp), %r11        # 8-byte Reload
	movq	%r11, (%rsp)
	callq	trace_logger_log_int
	movl	$1, %esi
	movq	-152(%rbp), %rdi        # 8-byte Reload
	callq	print
	movl	$168, %eax
	movl	%eax, %edi
	movabsq	$.L.str.108, %rsi
	movabsq	$.L.str.125, %rdx
	movabsq	$.L.str.128, %rcx
	movl	$1, %eax
	movl	%eax, %r8d
	xorl	%r9d, %r9d
	movl	$1, %eax
	.loc	1 168 2                 # ss_sort.c:168:2
	movl	$1, (%rsp)
	movl	%eax, -852(%rbp)        # 4-byte Spill
	callq	trace_logger_log0
	movl	$1, %eax
	movl	%eax, %ecx
	movl	$32, %eax
	movl	%eax, %esi
	xorl	%eax, %eax
	movl	%eax, %edx
	movabsq	$.L.str.4, %r8
	movabsq	$.L.str.5, %rdi
	movq	%rdi, -864(%rbp)        # 8-byte Spill
	movq	%rcx, %rdi
	movq	%rdx, -872(%rbp)        # 8-byte Spill
	movq	-872(%rbp), %r9         # 8-byte Reload
	movq	-864(%rbp), %r10        # 8-byte Reload
	movq	%r10, (%rsp)
	callq	trace_logger_log_int
	movabsq	$.L.str.108, %rdi
	movl	$1, %eax
	movl	%eax, %esi
	xorl	%edx, %edx
	movl	$1, %ecx
	callq	trace_logger_update_status
	xorl	%eax, %eax
	addq	$856, %rsp              # imm = 0x358
	popq	%rbx
	popq	%r14
	popq	%r15
	popq	%rbp
	retq
.Ltmp91:
.Lfunc_end8:
	.size	main, .Lfunc_end8-main
	.cfi_endproc
                                        # -- End function
	.section	.text.startup,"ax",@progbits
	.p2align	4, 0x90         # -- Begin function _GLOBAL__sub_I_trace_logger.cpp
	.type	_GLOBAL__sub_I_trace_logger.cpp,@function
_GLOBAL__sub_I_trace_logger.cpp:        # @_GLOBAL__sub_I_trace_logger.cpp
.Lfunc_begin9:
	.cfi_startproc
# %bb.0:
	pushq	%rbp
	.cfi_def_cfa_offset 16
	.cfi_offset %rbp, -16
	movq	%rsp, %rbp
	.cfi_def_cfa_register %rbp
	callq	__cxx_global_var_init
	popq	%rbp
	jmp	__cxx_global_var_init.1 # TAILCALL
.Lfunc_end9:
	.size	_GLOBAL__sub_I_trace_logger.cpp, .Lfunc_end9-_GLOBAL__sub_I_trace_logger.cpp
	.cfi_endproc
                                        # -- End function
	.p2align	4, 0x90         # -- Begin function __cxx_global_var_init
	.type	__cxx_global_var_init,@function
__cxx_global_var_init:                  # @__cxx_global_var_init
.Lfunc_begin10:
	.cfi_startproc
# %bb.0:
	pushq	%rbp
	.cfi_def_cfa_offset 16
	.cfi_offset %rbp, -16
	movq	%rsp, %rbp
	.cfi_def_cfa_register %rbp
	movl	$_Z8gz_filesB5cxx11, %eax
	movl	%eax, %edi
	callq	_ZNSt3mapINSt7__cxx1112basic_stringIcSt11char_traitsIcESaIcEEEP8gzFile_sSt4lessIS5_ESaISt4pairIKS5_S7_EEEC2Ev
	movl	$__dtor__Z8gz_filesB5cxx11, %eax
	movl	%eax, %edi
	popq	%rbp
	jmp	atexit                  # TAILCALL
.Lfunc_end10:
	.size	__cxx_global_var_init, .Lfunc_end10-__cxx_global_var_init
	.cfi_endproc
                                        # -- End function
	.p2align	4, 0x90         # -- Begin function __cxx_global_var_init.1
	.type	__cxx_global_var_init.1,@function
__cxx_global_var_init.1:                # @__cxx_global_var_init.1
.Lfunc_begin11:
	.cfi_startproc
# %bb.0:
	pushq	%rbp
	.cfi_def_cfa_offset 16
	.cfi_offset %rbp, -16
	movq	%rsp, %rbp
	.cfi_def_cfa_register %rbp
	movl	$_Z12labelmap_strB5cxx11, %eax
	movl	%eax, %edi
	callq	_ZNSt7__cxx1112basic_stringIcSt11char_traitsIcESaIcEEC2Ev
	movl	$__dtor__Z12labelmap_strB5cxx11, %eax
	movl	%eax, %edi
	popq	%rbp
	jmp	atexit                  # TAILCALL
.Lfunc_end11:
	.size	__cxx_global_var_init.1, .Lfunc_end11-__cxx_global_var_init.1
	.cfi_endproc
                                        # -- End function
	.p2align	4, 0x90         # -- Begin function __dtor__Z12labelmap_strB5cxx11
	.type	__dtor__Z12labelmap_strB5cxx11,@function
__dtor__Z12labelmap_strB5cxx11:         # @__dtor__Z12labelmap_strB5cxx11
.Lfunc_begin12:
	.cfi_startproc
# %bb.0:
	pushq	%rbp
	.cfi_def_cfa_offset 16
	.cfi_offset %rbp, -16
	movq	%rsp, %rbp
	.cfi_def_cfa_register %rbp
	movl	$_Z12labelmap_strB5cxx11, %eax
	movl	%eax, %edi
	popq	%rbp
	jmp	_ZNSt7__cxx1112basic_stringIcSt11char_traitsIcESaIcEED2Ev # TAILCALL
.Lfunc_end12:
	.size	__dtor__Z12labelmap_strB5cxx11, .Lfunc_end12-__dtor__Z12labelmap_strB5cxx11
	.cfi_endproc
                                        # -- End function
	.section	.text._ZNSt3mapINSt7__cxx1112basic_stringIcSt11char_traitsIcESaIcEEEP8gzFile_sSt4lessIS5_ESaISt4pairIKS5_S7_EEEC2Ev,"axG",@progbits,_ZNSt3mapINSt7__cxx1112basic_stringIcSt11char_traitsIcESaIcEEEP8gzFile_sSt4lessIS5_ESaISt4pairIKS5_S7_EEEC2Ev,comdat
	.weak	_ZNSt3mapINSt7__cxx1112basic_stringIcSt11char_traitsIcESaIcEEEP8gzFile_sSt4lessIS5_ESaISt4pairIKS5_S7_EEEC2Ev # -- Begin function _ZNSt3mapINSt7__cxx1112basic_stringIcSt11char_traitsIcESaIcEEEP8gzFile_sSt4lessIS5_ESaISt4pairIKS5_S7_EEEC2Ev
	.p2align	4, 0x90
	.type	_ZNSt3mapINSt7__cxx1112basic_stringIcSt11char_traitsIcESaIcEEEP8gzFile_sSt4lessIS5_ESaISt4pairIKS5_S7_EEEC2Ev,@function
_ZNSt3mapINSt7__cxx1112basic_stringIcSt11char_traitsIcESaIcEEEP8gzFile_sSt4lessIS5_ESaISt4pairIKS5_S7_EEEC2Ev: # @_ZNSt3mapINSt7__cxx1112basic_stringIcSt11char_traitsIcESaIcEEEP8gzFile_sSt4lessIS5_ESaISt4pairIKS5_S7_EEEC2Ev
.Lfunc_begin13:
	.cfi_startproc
# %bb.0:
	pushq	%rbp
	.cfi_def_cfa_offset 16
	.cfi_offset %rbp, -16
	movq	%rsp, %rbp
	.cfi_def_cfa_register %rbp
	popq	%rbp
	jmp	_ZNSt8_Rb_treeINSt7__cxx1112basic_stringIcSt11char_traitsIcESaIcEEESt4pairIKS5_P8gzFile_sESt10_Select1stISA_ESt4lessIS5_ESaISA_EEC2Ev # TAILCALL
.Lfunc_end13:
	.size	_ZNSt3mapINSt7__cxx1112basic_stringIcSt11char_traitsIcESaIcEEEP8gzFile_sSt4lessIS5_ESaISt4pairIKS5_S7_EEEC2Ev, .Lfunc_end13-_ZNSt3mapINSt7__cxx1112basic_stringIcSt11char_traitsIcESaIcEEEP8gzFile_sSt4lessIS5_ESaISt4pairIKS5_S7_EEEC2Ev
	.cfi_endproc
                                        # -- End function
	.section	.text.startup,"ax",@progbits
	.p2align	4, 0x90         # -- Begin function __dtor__Z8gz_filesB5cxx11
	.type	__dtor__Z8gz_filesB5cxx11,@function
__dtor__Z8gz_filesB5cxx11:              # @__dtor__Z8gz_filesB5cxx11
.Lfunc_begin14:
	.cfi_startproc
# %bb.0:
	pushq	%rbp
	.cfi_def_cfa_offset 16
	.cfi_offset %rbp, -16
	movq	%rsp, %rbp
	.cfi_def_cfa_register %rbp
	movl	$_Z8gz_filesB5cxx11, %eax
	movl	%eax, %edi
	popq	%rbp
	jmp	_ZNSt3mapINSt7__cxx1112basic_stringIcSt11char_traitsIcESaIcEEEP8gzFile_sSt4lessIS5_ESaISt4pairIKS5_S7_EEED2Ev # TAILCALL
.Lfunc_end14:
	.size	__dtor__Z8gz_filesB5cxx11, .Lfunc_end14-__dtor__Z8gz_filesB5cxx11
	.cfi_endproc
                                        # -- End function
	.section	.text._ZNSt3mapINSt7__cxx1112basic_stringIcSt11char_traitsIcESaIcEEEP8gzFile_sSt4lessIS5_ESaISt4pairIKS5_S7_EEED2Ev,"axG",@progbits,_ZNSt3mapINSt7__cxx1112basic_stringIcSt11char_traitsIcESaIcEEEP8gzFile_sSt4lessIS5_ESaISt4pairIKS5_S7_EEED2Ev,comdat
	.weak	_ZNSt3mapINSt7__cxx1112basic_stringIcSt11char_traitsIcESaIcEEEP8gzFile_sSt4lessIS5_ESaISt4pairIKS5_S7_EEED2Ev # -- Begin function _ZNSt3mapINSt7__cxx1112basic_stringIcSt11char_traitsIcESaIcEEEP8gzFile_sSt4lessIS5_ESaISt4pairIKS5_S7_EEED2Ev
	.p2align	4, 0x90
	.type	_ZNSt3mapINSt7__cxx1112basic_stringIcSt11char_traitsIcESaIcEEEP8gzFile_sSt4lessIS5_ESaISt4pairIKS5_S7_EEED2Ev,@function
_ZNSt3mapINSt7__cxx1112basic_stringIcSt11char_traitsIcESaIcEEEP8gzFile_sSt4lessIS5_ESaISt4pairIKS5_S7_EEED2Ev: # @_ZNSt3mapINSt7__cxx1112basic_stringIcSt11char_traitsIcESaIcEEEP8gzFile_sSt4lessIS5_ESaISt4pairIKS5_S7_EEED2Ev
.Lfunc_begin15:
	.cfi_startproc
# %bb.0:
	pushq	%rbp
	.cfi_def_cfa_offset 16
	.cfi_offset %rbp, -16
	movq	%rsp, %rbp
	.cfi_def_cfa_register %rbp
	popq	%rbp
	jmp	_ZNSt8_Rb_treeINSt7__cxx1112basic_stringIcSt11char_traitsIcESaIcEEESt4pairIKS5_P8gzFile_sESt10_Select1stISA_ESt4lessIS5_ESaISA_EED2Ev # TAILCALL
.Lfunc_end15:
