	.text
	.file	"llvm-link"
	.globl	md                      # -- Begin function md
	.p2align	4, 0x90
	.type	md,@function
md:                                     # @md
.Lfunc_begin0:
	.file	1 "md.c"
	.loc	1 9 0                   # md.c:9:0
	.cfi_startproc
# %bb.0:
	pushq	%rbp
	.cfi_def_cfa_offset 16
	.cfi_offset %rbp, -16
	movq	%rsp, %rbp
	.cfi_def_cfa_register %rbp
	pushq	%r15
	pushq	%r14
	pushq	%r13
	pushq	%r12
	pushq	%rbx
	subq	$1976, %rsp             # imm = 0x7B8
	.cfi_offset %rbx, -56
	.cfi_offset %r12, -48
	.cfi_offset %r13, -40
	.cfi_offset %r14, -32
	.cfi_offset %r15, -24
	movq	16(%rbp), %rax
	movabsq	$.L.str.2, %r10
	xorl	%r11d, %r11d
	movl	%r11d, %ebx
	movl	$1, %r11d
.Ltmp0:
	.loc	1 7 14 prologue_end     # md.c:7:14
	movq	%rdi, -48(%rbp)         # 8-byte Spill
	movq	%r10, %rdi
	movq	%rsi, -56(%rbp)         # 8-byte Spill
	movq	%rbx, %rsi
	movq	%rdx, -64(%rbp)         # 8-byte Spill
	movl	%r11d, %edx
	movq	%rcx, -72(%rbp)         # 8-byte Spill
	movl	%r11d, %ecx
	movq	%rax, -80(%rbp)         # 8-byte Spill
	movq	%r9, -88(%rbp)          # 8-byte Spill
	movq	%r8, -96(%rbp)          # 8-byte Spill
	callq	trace_logger_update_status
	movabsq	$.L.str.2, %rdi
	movl	$7, %ecx
	movl	%ecx, %esi
	callq	trace_logger_log_entry
	movl	$1, %ecx
	movl	%ecx, %eax
	movl	$64, %ecx
	movl	%ecx, %esi
	movabsq	$.L.str.63, %r8
	xorl	%ecx, %ecx
	movl	%ecx, %r9d
	movabsq	$.L.str.6, %rdi
	movq	%rdi, -104(%rbp)        # 8-byte Spill
	movq	%rax, %rdi
	movq	-48(%rbp), %rdx         # 8-byte Reload
	movq	%rax, %rcx
	movq	-104(%rbp), %rax        # 8-byte Reload
	movq	%rax, (%rsp)
	callq	trace_logger_log_ptr
	movl	$2, %r11d
	movl	%r11d, %edi
	movl	$64, %r11d
	movl	%r11d, %esi
	movl	$1, %r11d
	movl	%r11d, %ecx
	movabsq	$.L.str.66, %r8
	xorl	%r11d, %r11d
	movl	%r11d, %r9d
	movabsq	$.L.str.6, %rax
	movq	-56(%rbp), %rdx         # 8-byte Reload
	movq	%rax, (%rsp)
	callq	trace_logger_log_ptr
	movl	$3, %r11d
	movl	%r11d, %edi
	movl	$64, %r11d
	movl	%r11d, %esi
	movl	$1, %r11d
	movl	%r11d, %ecx
	movabsq	$.L.str.69, %r8
	xorl	%r11d, %r11d
	movl	%r11d, %r9d
	movabsq	$.L.str.6, %rax
	movq	-64(%rbp), %rdx         # 8-byte Reload
	movq	%rax, (%rsp)
	callq	trace_logger_log_ptr
	movl	$4, %r11d
	movl	%r11d, %edi
	movl	$64, %r11d
	movl	%r11d, %esi
	movl	$1, %r11d
	movl	%r11d, %ecx
	movabsq	$.L.str.12, %r8
	xorl	%r11d, %r11d
	movl	%r11d, %r9d
	movabsq	$.L.str.6, %rax
	movq	-72(%rbp), %rdx         # 8-byte Reload
	movq	%rax, (%rsp)
	callq	trace_logger_log_ptr
	movl	$5, %r11d
	movl	%r11d, %edi
	movl	$64, %r11d
	movl	%r11d, %esi
	movl	$1, %r11d
	movl	%r11d, %ecx
	movabsq	$.L.str.15, %r8
	xorl	%r11d, %r11d
	movl	%r11d, %r9d
	movabsq	$.L.str.6, %rax
	movq	-96(%rbp), %rdx         # 8-byte Reload
	movq	%rax, (%rsp)
	callq	trace_logger_log_ptr
	movl	$6, %r11d
	movl	%r11d, %edi
	movl	$64, %r11d
	movl	%r11d, %esi
	movl	$1, %r11d
	movl	%r11d, %ecx
	movabsq	$.L.str.18, %r8
	xorl	%r11d, %r11d
	movl	%r11d, %r9d
	movabsq	$.L.str.6, %rax
	movq	-88(%rbp), %rdx         # 8-byte Reload
	movq	%rax, (%rsp)
	callq	trace_logger_log_ptr
	movl	$7, %r11d
	movl	%r11d, %edi
	movl	$64, %r11d
	movl	%r11d, %esi
	movl	$1, %r11d
	movl	%r11d, %ecx
	movabsq	$.L.str.34, %r8
	xorl	%r11d, %r11d
	movl	%r11d, %r9d
	movabsq	$.L.str.6, %rax
	movq	-80(%rbp), %rdx         # 8-byte Reload
	movq	%rax, (%rsp)
	callq	trace_logger_log_ptr
	movl	$21, %r11d
	movl	%r11d, %edi
	movabsq	$.L.str.2, %rsi
	movabsq	$.L.str.3, %rdx
	movabsq	$.L.str.4, %rcx
	movl	$2, %r11d
	movl	%r11d, %r8d
	movl	$1, %r9d
	#DEBUG_VALUE: md:d_force_x <- [DW_OP_constu 48, DW_OP_minus] [%rbp+0]
	#DEBUG_VALUE: md:d_force_y <- [DW_OP_constu 56, DW_OP_minus] [%rbp+0]
	#DEBUG_VALUE: md:d_force_z <- [DW_OP_constu 64, DW_OP_minus] [%rbp+0]
	#DEBUG_VALUE: md:position_x <- [DW_OP_constu 72, DW_OP_minus] [%rbp+0]
	#DEBUG_VALUE: md:position_y <- [DW_OP_constu 96, DW_OP_minus] [%rbp+0]
	#DEBUG_VALUE: md:position_z <- [DW_OP_constu 88, DW_OP_minus] [%rbp+0]
	#DEBUG_VALUE: md:NL <- [DW_OP_constu 80, DW_OP_minus] [%rbp+0]
.Ltmp1:
	#DEBUG_VALUE: md:i <- 0
	.loc	1 21 11                 # md.c:21:11
	movl	$1, (%rsp)
	callq	trace_logger_log0
	movl	$1, %r9d
	movl	%r9d, %eax
	xorl	%r9d, %r9d
	movl	%r9d, %ecx
	movabsq	$.L.str.5, %r8
	movabsq	$.L.str.6, %rdx
	movq	%rax, %rdi
	movq	%rcx, %rsi
	movq	%rdx, -112(%rbp)        # 8-byte Spill
	movq	%rcx, %rdx
	movq	%rcx, -120(%rbp)        # 8-byte Spill
	movq	%rax, %rcx
	movq	-120(%rbp), %r9         # 8-byte Reload
	movq	-112(%rbp), %rax        # 8-byte Reload
	movq	%rax, (%rsp)
	callq	trace_logger_log_int
	xorl	%r11d, %r11d
	movl	%r11d, %eax
	movq	%rax, -128(%rbp)        # 8-byte Spill
.Ltmp2:
.LBB0_1:                                # =>This Loop Header: Depth=1
                                        #     Child Loop BB0_2 Depth 2
	#DEBUG_VALUE: md:NL <- [DW_OP_constu 80, DW_OP_minus] [%rbp+0]
	#DEBUG_VALUE: md:position_z <- [DW_OP_constu 88, DW_OP_minus] [%rbp+0]
	#DEBUG_VALUE: md:position_y <- [DW_OP_constu 96, DW_OP_minus] [%rbp+0]
	#DEBUG_VALUE: md:position_x <- [DW_OP_constu 72, DW_OP_minus] [%rbp+0]
	#DEBUG_VALUE: md:d_force_z <- [DW_OP_constu 64, DW_OP_minus] [%rbp+0]
	#DEBUG_VALUE: md:d_force_y <- [DW_OP_constu 56, DW_OP_minus] [%rbp+0]
	#DEBUG_VALUE: md:d_force_x <- [DW_OP_constu 48, DW_OP_minus] [%rbp+0]
	.loc	1 0 11 is_stmt 0        # md.c:0:11
	movq	-128(%rbp), %rax        # 8-byte Reload
	movq	$-1, %rdi
	movabsq	$.L.str.2, %rsi
	movabsq	$.L.str.5, %rdx
	movabsq	$.L.str.7, %rcx
	movl	$53, %r8d
                                        # kill: def %r8 killed %r8d
	movl	$1, %r9d
	.loc	1 19 6 is_stmt 1        # md.c:19:6
	movl	$1, (%rsp)
	movq	%rax, -136(%rbp)        # 8-byte Spill
	callq	trace_logger_log0
	movl	$2, %r9d
	movl	%r9d, %edi
	movl	$64, %r9d
	movl	%r9d, %esi
	xorl	%r9d, %r9d
	movl	%r9d, %edx
	movl	$1, %r9d
	movl	%r9d, %eax
	movabsq	$.L.str.8, %r8
	movabsq	$.L.str.9, %rcx
	movq	%rcx, -144(%rbp)        # 8-byte Spill
	movq	%rax, %rcx
	movq	%rax, %r9
	movq	-144(%rbp), %rax        # 8-byte Reload
	movq	%rax, (%rsp)
	callq	trace_logger_log_int
	movl	$1, %r10d
	movl	%r10d, %eax
	movl	$64, %r10d
	movl	%r10d, %esi
	xorl	%r10d, %r10d
	movl	%r10d, %ecx
	movabsq	$.L.str.10, %r8
	movabsq	$.L.str.3, %rdx
	movq	%rax, %rdi
	movq	%rdx, -152(%rbp)        # 8-byte Spill
	movq	%rcx, %rdx
	movq	%rax, %r9
	movq	-152(%rbp), %rax        # 8-byte Reload
	movq	%rax, (%rsp)
	callq	trace_logger_log_int
	movl	$19134, %r10d           # imm = 0x4ABE
	movl	%r10d, %edi
	movl	$64, %r10d
	movl	%r10d, %esi
	movl	$1, %r10d
	movl	%r10d, %ecx
	movabsq	$.L.str.7, %r8
	xorl	%r10d, %r10d
	movl	%r10d, %r9d
	movabsq	$.L.str.3, %rax
	movq	-136(%rbp), %rdx        # 8-byte Reload
	movq	%rax, (%rsp)
	callq	trace_logger_log_int
	movl	$23, %r10d
	movl	%r10d, %edi
	movabsq	$.L.str.2, %rsi
	movabsq	$.L.str.5, %rdx
	movabsq	$.L.str.11, %rcx
	movl	$32, %r10d
	movl	%r10d, %r8d
	movl	$1, %r9d
.Ltmp3:
	#DEBUG_VALUE: md:i <- [DW_OP_constu 136, DW_OP_minus] [%rbp+0]
	.loc	1 23 16                 # md.c:23:16
	movl	$1, (%rsp)
	callq	trace_logger_log0
	movl	$2, %r9d
	movl	%r9d, %edi
	movl	$64, %r9d
	movl	%r9d, %esi
	movl	$1, %r9d
	movl	%r9d, %ecx
	movabsq	$.L.str.7, %r8
	xorl	%r9d, %r9d
                                        # kill: def %r9 killed %r9d
	movabsq	$.L.str.6, %rax
	movq	-136(%rbp), %rdx        # 8-byte Reload
	movq	%rax, (%rsp)
	callq	trace_logger_log_int
	movl	$1, %r10d
	movl	%r10d, %eax
	movl	$64, %r10d
	movl	%r10d, %esi
	movabsq	$.L.str.12, %r8
	xorl	%r10d, %r10d
	movl	%r10d, %r9d
	movabsq	$.L.str.6, %rcx
	movq	%rax, %rdi
	movq	-72(%rbp), %rdx         # 8-byte Reload
	movq	%rcx, -160(%rbp)        # 8-byte Spill
	movq	%rax, %rcx
	movq	-160(%rbp), %rax        # 8-byte Reload
	movq	%rax, (%rsp)
	callq	trace_logger_log_ptr
	movl	$19134, %r10d           # imm = 0x4ABE
	movl	%r10d, %edi
	movl	$64, %r10d
	movl	%r10d, %esi
	movl	$1, %r10d
	movl	%r10d, %ecx
	movabsq	$.L.str.11, %r8
	xorl	%r10d, %r10d
	movl	%r10d, %r9d
	movabsq	$.L.str.6, %rax
	movq	-136(%rbp), %rdx        # 8-byte Reload
	shlq	$2, %rdx
	movq	-72(%rbp), %r11         # 8-byte Reload
	addq	%rdx, %r11
	movq	%r11, %rdx
	movq	%rax, (%rsp)
	movq	%r11, -168(%rbp)        # 8-byte Spill
	callq	trace_logger_log_ptr
	movl	$23, %r10d
	movl	%r10d, %edi
	movabsq	$.L.str.2, %rsi
	movabsq	$.L.str.5, %rdx
	movabsq	$.L.str.13, %rcx
	movl	$30, %r10d
	movl	%r10d, %r8d
	movl	$1, %r9d
	movl	$1, (%rsp)
	callq	trace_logger_log0
	movl	$1, %r9d
	movl	%r9d, %eax
	movl	$64, %r9d
	movl	%r9d, %esi
	movabsq	$.L.str.11, %r8
	xorl	%r9d, %r9d
                                        # kill: def %r9 killed %r9d
	movabsq	$.L.str.6, %rcx
	movq	%rax, %rdi
	movq	-168(%rbp), %rdx        # 8-byte Reload
	movq	%rcx, -176(%rbp)        # 8-byte Spill
	movq	%rax, %rcx
	movq	-176(%rbp), %rax        # 8-byte Reload
	movq	%rax, (%rsp)
	callq	trace_logger_log_ptr
	movl	$19134, %r10d           # imm = 0x4ABE
	movl	%r10d, %edi
	movl	$32, %r10d
	movl	%r10d, %esi
	movl	$1, %r10d
	movl	%r10d, %ecx
	movabsq	$.L.str.13, %r8
	xorl	%r10d, %r10d
	movl	%r10d, %r9d
	movabsq	$.L.str.6, %rax
	movq	-72(%rbp), %rdx         # 8-byte Reload
	movq	-136(%rbp), %r11        # 8-byte Reload
	movl	(%rdx,%r11,4), %r10d
	.loc	1 23 10 is_stmt 0       # md.c:23:10
	movl	%r10d, %ebx
	movl	%ebx, %edx
	movq	%rax, (%rsp)
	movl	%r10d, -180(%rbp)       # 4-byte Spill
	callq	trace_logger_log_int
	movl	$24, %r10d
	movl	%r10d, %edi
	movabsq	$.L.str.2, %rsi
	movabsq	$.L.str.5, %rdx
	movabsq	$.L.str.14, %rcx
	movl	$32, %r10d
	movl	%r10d, %r8d
	movl	$1, %r9d
.Ltmp4:
	#DEBUG_VALUE: i_x <- [DW_OP_constu 180, DW_OP_minus] [%rbp+0]
	.loc	1 24 16 is_stmt 1       # md.c:24:16
	movl	$1, (%rsp)
	callq	trace_logger_log0
	movl	$2, %r9d
	movl	%r9d, %edi
	movl	$64, %r9d
	movl	%r9d, %esi
	movl	$1, %r9d
	movl	%r9d, %ecx
	movabsq	$.L.str.7, %r8
	xorl	%r9d, %r9d
                                        # kill: def %r9 killed %r9d
	movabsq	$.L.str.6, %rax
	movq	-136(%rbp), %rdx        # 8-byte Reload
	movq	%rax, (%rsp)
	callq	trace_logger_log_int
	movl	$1, %r10d
	movl	%r10d, %eax
	movl	$64, %r10d
	movl	%r10d, %esi
	movabsq	$.L.str.15, %r8
	xorl	%r10d, %r10d
	movl	%r10d, %r9d
	movabsq	$.L.str.6, %rcx
	movq	%rax, %rdi
	movq	-96(%rbp), %rdx         # 8-byte Reload
	movq	%rcx, -192(%rbp)        # 8-byte Spill
	movq	%rax, %rcx
	movq	-192(%rbp), %rax        # 8-byte Reload
	movq	%rax, (%rsp)
	callq	trace_logger_log_ptr
	movl	$19134, %r10d           # imm = 0x4ABE
	movl	%r10d, %edi
	movl	$64, %r10d
	movl	%r10d, %esi
	movl	$1, %r10d
	movl	%r10d, %ecx
	movabsq	$.L.str.14, %r8
	xorl	%r10d, %r10d
	movl	%r10d, %r9d
	movabsq	$.L.str.6, %rax
	movq	-136(%rbp), %rdx        # 8-byte Reload
	shlq	$2, %rdx
	movq	-96(%rbp), %r11         # 8-byte Reload
	addq	%rdx, %r11
	movq	%r11, %rdx
	movq	%rax, (%rsp)
	movq	%r11, -200(%rbp)        # 8-byte Spill
	callq	trace_logger_log_ptr
	movl	$24, %r10d
	movl	%r10d, %edi
	movabsq	$.L.str.2, %rsi
	movabsq	$.L.str.5, %rdx
	movabsq	$.L.str.16, %rcx
	movl	$30, %r10d
	movl	%r10d, %r8d
	movl	$1, %r9d
	movl	$1, (%rsp)
	callq	trace_logger_log0
	movl	$1, %r9d
	movl	%r9d, %eax
	movl	$64, %r9d
	movl	%r9d, %esi
	movabsq	$.L.str.14, %r8
	xorl	%r9d, %r9d
                                        # kill: def %r9 killed %r9d
	movabsq	$.L.str.6, %rcx
	movq	%rax, %rdi
	movq	-200(%rbp), %rdx        # 8-byte Reload
	movq	%rcx, -208(%rbp)        # 8-byte Spill
	movq	%rax, %rcx
	movq	-208(%rbp), %rax        # 8-byte Reload
	movq	%rax, (%rsp)
	callq	trace_logger_log_ptr
	movl	$19134, %r10d           # imm = 0x4ABE
	movl	%r10d, %edi
	movl	$32, %r10d
	movl	%r10d, %esi
	movl	$1, %r10d
	movl	%r10d, %ecx
	movabsq	$.L.str.16, %r8
	xorl	%r10d, %r10d
	movl	%r10d, %r9d
	movabsq	$.L.str.6, %rax
	movq	-96(%rbp), %rdx         # 8-byte Reload
	movq	-136(%rbp), %r11        # 8-byte Reload
	movl	(%rdx,%r11,4), %r10d
	.loc	1 24 10 is_stmt 0       # md.c:24:10
	movl	%r10d, %ebx
	movl	%ebx, %edx
	movq	%rax, (%rsp)
	movl	%r10d, -212(%rbp)       # 4-byte Spill
	callq	trace_logger_log_int
	movl	$25, %r10d
	movl	%r10d, %edi
	movabsq	$.L.str.2, %rsi
	movabsq	$.L.str.5, %rdx
	movabsq	$.L.str.17, %rcx
	movl	$32, %r10d
	movl	%r10d, %r8d
	movl	$1, %r9d
.Ltmp5:
	#DEBUG_VALUE: i_y <- [DW_OP_constu 212, DW_OP_minus] [%rbp+0]
	.loc	1 25 16 is_stmt 1       # md.c:25:16
	movl	$1, (%rsp)
	callq	trace_logger_log0
	movl	$2, %r9d
	movl	%r9d, %edi
	movl	$64, %r9d
	movl	%r9d, %esi
	movl	$1, %r9d
	movl	%r9d, %ecx
	movabsq	$.L.str.7, %r8
	xorl	%r9d, %r9d
                                        # kill: def %r9 killed %r9d
	movabsq	$.L.str.6, %rax
	movq	-136(%rbp), %rdx        # 8-byte Reload
	movq	%rax, (%rsp)
	callq	trace_logger_log_int
	movl	$1, %r10d
	movl	%r10d, %eax
	movl	$64, %r10d
	movl	%r10d, %esi
	movabsq	$.L.str.18, %r8
	xorl	%r10d, %r10d
	movl	%r10d, %r9d
	movabsq	$.L.str.6, %rcx
	movq	%rax, %rdi
	movq	-88(%rbp), %rdx         # 8-byte Reload
	movq	%rcx, -224(%rbp)        # 8-byte Spill
	movq	%rax, %rcx
	movq	-224(%rbp), %rax        # 8-byte Reload
	movq	%rax, (%rsp)
	callq	trace_logger_log_ptr
	movl	$19134, %r10d           # imm = 0x4ABE
	movl	%r10d, %edi
	movl	$64, %r10d
	movl	%r10d, %esi
	movl	$1, %r10d
	movl	%r10d, %ecx
	movabsq	$.L.str.17, %r8
	xorl	%r10d, %r10d
	movl	%r10d, %r9d
	movabsq	$.L.str.6, %rax
	movq	-136(%rbp), %rdx        # 8-byte Reload
	shlq	$2, %rdx
	movq	-88(%rbp), %r11         # 8-byte Reload
	addq	%rdx, %r11
	movq	%r11, %rdx
	movq	%rax, (%rsp)
	movq	%r11, -232(%rbp)        # 8-byte Spill
	callq	trace_logger_log_ptr
	movl	$25, %r10d
	movl	%r10d, %edi
	movabsq	$.L.str.2, %rsi
	movabsq	$.L.str.5, %rdx
	movabsq	$.L.str.19, %rcx
	movl	$30, %r10d
	movl	%r10d, %r8d
	movl	$1, %r9d
	movl	$1, (%rsp)
	callq	trace_logger_log0
	movl	$1, %r9d
	movl	%r9d, %eax
	movl	$64, %r9d
	movl	%r9d, %esi
	movabsq	$.L.str.17, %r8
	xorl	%r9d, %r9d
                                        # kill: def %r9 killed %r9d
	movabsq	$.L.str.6, %rcx
	movq	%rax, %rdi
	movq	-232(%rbp), %rdx        # 8-byte Reload
	movq	%rcx, -240(%rbp)        # 8-byte Spill
	movq	%rax, %rcx
	movq	-240(%rbp), %rax        # 8-byte Reload
	movq	%rax, (%rsp)
	callq	trace_logger_log_ptr
	movl	$19134, %r10d           # imm = 0x4ABE
	movl	%r10d, %edi
	movl	$32, %r10d
	movl	%r10d, %esi
	movl	$1, %r10d
	movl	%r10d, %ecx
	movabsq	$.L.str.19, %r8
	xorl	%r10d, %r10d
	movl	%r10d, %r9d
	movabsq	$.L.str.6, %rax
	movq	-88(%rbp), %rdx         # 8-byte Reload
	movq	-136(%rbp), %r11        # 8-byte Reload
	movl	(%rdx,%r11,4), %r10d
	.loc	1 25 10 is_stmt 0       # md.c:25:10
	movl	%r10d, %ebx
	movl	%ebx, %edx
	movq	%rax, (%rsp)
	movl	%r10d, -244(%rbp)       # 4-byte Spill
	callq	trace_logger_log_int
	movq	$-1, %rdi
	movabsq	$.L.str.2, %rsi
	movabsq	$.L.str.5, %rdx
	movabsq	$.L.str.20, %rcx
	movl	$23, %r10d
	movl	%r10d, %r8d
	movl	$1, %r9d
.Ltmp6:
	#DEBUG_VALUE: i_z <- [DW_OP_constu 244, DW_OP_minus] [%rbp+0]
	#DEBUG_VALUE: fx <- 0
	#DEBUG_VALUE: fy <- 0
	#DEBUG_VALUE: fz <- 0
	#DEBUG_VALUE: md:j <- 0
	.loc	1 0 10                  # md.c:0:10
	movl	$1, (%rsp)
	callq	trace_logger_log0
	movl	$2, %r9d
	movl	%r9d, %edi
	movl	$64, %r9d
	movl	%r9d, %esi
	movl	$5, %r9d
	movl	%r9d, %edx
	xorl	%r9d, %r9d
	movl	%r9d, %eax
	movabsq	$.L.str.10, %r8
	movabsq	$.L.str.6, %rcx
	movq	%rcx, -256(%rbp)        # 8-byte Spill
	movq	%rax, %rcx
	movq	%rax, %r9
	movq	-256(%rbp), %rax        # 8-byte Reload
	movq	%rax, (%rsp)
	callq	trace_logger_log_int
	movl	$1, %r10d
	movl	%r10d, %eax
	movl	$64, %r10d
	movl	%r10d, %esi
	movabsq	$.L.str.7, %r8
	xorl	%r10d, %r10d
	movl	%r10d, %r9d
	movabsq	$.L.str.6, %rcx
	movq	%rax, %rdi
	movq	-136(%rbp), %rdx        # 8-byte Reload
	movq	%rcx, -264(%rbp)        # 8-byte Spill
	movq	%rax, %rcx
	movq	-264(%rbp), %rax        # 8-byte Reload
	movq	%rax, (%rsp)
	callq	trace_logger_log_int
	movl	$19134, %r10d           # imm = 0x4ABE
	movl	%r10d, %edi
	movl	$64, %r10d
	movl	%r10d, %esi
	movl	$1, %r10d
	movl	%r10d, %ecx
	movabsq	$.L.str.20, %r8
	xorl	%r10d, %r10d
	movl	%r10d, %r9d
	movabsq	$.L.str.6, %rax
	movq	-136(%rbp), %rdx        # 8-byte Reload
	shlq	$5, %rdx
.Ltmp7:
	.loc	1 29 14 is_stmt 1       # md.c:29:14
	movq	%rdx, -272(%rbp)        # 8-byte Spill
	movq	%rax, (%rsp)
	callq	trace_logger_log_int
	movl	$29, %r10d
	movl	%r10d, %edi
	movabsq	$.L.str.2, %rsi
	movabsq	$.L.str.5, %rdx
	movabsq	$.L.str.21, %rcx
	movl	$2, %r10d
	movl	%r10d, %r8d
	movl	$1, %r9d
	movl	$1, (%rsp)
	callq	trace_logger_log0
	movl	$1, %r9d
	movl	%r9d, %eax
	xorl	%r9d, %r9d
	movl	%r9d, %ecx
	movabsq	$.L.str.22, %r8
	movabsq	$.L.str.6, %rdx
	movq	%rax, %rdi
	movq	%rcx, %rsi
	movq	%rdx, -280(%rbp)        # 8-byte Spill
	movq	%rcx, %rdx
	movq	%rcx, -288(%rbp)        # 8-byte Spill
	movq	%rax, %rcx
	movq	-288(%rbp), %r9         # 8-byte Reload
	movq	-280(%rbp), %rax        # 8-byte Reload
	movq	%rax, (%rsp)
	callq	trace_logger_log_int
	xorl	%r10d, %r10d
	movl	%r10d, %eax
	xorl	%r10d, %r10d
	movl	%r10d, %ebx
	movl	%r10d, %r14d
	movl	%r14d, -292(%rbp)       # 4-byte Spill
	movq	%rax, -304(%rbp)        # 8-byte Spill
	movl	%ebx, -308(%rbp)        # 4-byte Spill
	movl	%r10d, -312(%rbp)       # 4-byte Spill
.Ltmp8:
.LBB0_2:                                #   Parent Loop BB0_1 Depth=1
                                        # =>  This Inner Loop Header: Depth=2
	#DEBUG_VALUE: i_z <- [DW_OP_constu 244, DW_OP_minus] [%rbp+0]
	#DEBUG_VALUE: i_y <- [DW_OP_constu 212, DW_OP_minus] [%rbp+0]
	#DEBUG_VALUE: i_x <- [DW_OP_constu 180, DW_OP_minus] [%rbp+0]
	#DEBUG_VALUE: md:i <- [DW_OP_constu 136, DW_OP_minus] [%rbp+0]
	#DEBUG_VALUE: md:NL <- [DW_OP_constu 80, DW_OP_minus] [%rbp+0]
	#DEBUG_VALUE: md:position_z <- [DW_OP_constu 88, DW_OP_minus] [%rbp+0]
	#DEBUG_VALUE: md:position_y <- [DW_OP_constu 96, DW_OP_minus] [%rbp+0]
	#DEBUG_VALUE: md:position_x <- [DW_OP_constu 72, DW_OP_minus] [%rbp+0]
	#DEBUG_VALUE: md:d_force_z <- [DW_OP_constu 64, DW_OP_minus] [%rbp+0]
	#DEBUG_VALUE: md:d_force_y <- [DW_OP_constu 56, DW_OP_minus] [%rbp+0]
	#DEBUG_VALUE: md:d_force_x <- [DW_OP_constu 48, DW_OP_minus] [%rbp+0]
	.loc	1 0 14 is_stmt 0        # md.c:0:14
	movl	-312(%rbp), %eax        # 4-byte Reload
	movl	-292(%rbp), %ecx        # 4-byte Reload
	movl	-308(%rbp), %edx        # 4-byte Reload
	movq	-304(%rbp), %rsi        # 8-byte Reload
	movq	$-1, %rdi
	movabsq	$.L.str.2, %r8
	movabsq	$.L.str.22, %r9
	movabsq	$.L.str.23, %r10
	movl	$53, %r11d
	movl	%r11d, %ebx
	movl	$1, %r11d
	.loc	1 28 10 is_stmt 1       # md.c:28:10
	movq	%rsi, -320(%rbp)        # 8-byte Spill
	movq	%r8, %rsi
	movl	%edx, -324(%rbp)        # 4-byte Spill
	movq	%r9, %rdx
	movl	%ecx, -328(%rbp)        # 4-byte Spill
	movq	%r10, %rcx
	movq	%rbx, %r8
	movl	%r11d, %r9d
	movl	$1, (%rsp)
	movl	%eax, -332(%rbp)        # 4-byte Spill
	callq	trace_logger_log0
	movl	$2, %eax
	movl	%eax, %edi
	movl	$64, %eax
	movl	%eax, %esi
	xorl	%eax, %eax
	movl	%eax, %edx
	movl	$1, %eax
	movl	%eax, %ecx
	movabsq	$.L.str.24, %r8
	movabsq	$.L.str.22, %r10
	movq	%rcx, -344(%rbp)        # 8-byte Spill
	movq	-344(%rbp), %r9         # 8-byte Reload
	movq	%r10, (%rsp)
	callq	trace_logger_log_int
	movl	$1, %eax
	movl	%eax, %ecx
	movl	$64, %eax
	movl	%eax, %esi
	xorl	%eax, %eax
	movl	%eax, %edx
	movabsq	$.L.str.10, %r8
	movabsq	$.L.str.5, %rdi
	movq	%rdi, -352(%rbp)        # 8-byte Spill
	movq	%rcx, %rdi
	movq	%rdx, -360(%rbp)        # 8-byte Spill
	movq	-360(%rbp), %r9         # 8-byte Reload
	movq	%rcx, -368(%rbp)        # 8-byte Spill
	movq	%r9, %rcx
	movq	-368(%rbp), %r9         # 8-byte Reload
	movq	-352(%rbp), %r10        # 8-byte Reload
	movq	%r10, (%rsp)
	callq	trace_logger_log_int
	movl	$19134, %eax            # imm = 0x4ABE
	movl	%eax, %edi
	movl	$64, %eax
	movl	%eax, %esi
	movl	$1, %eax
	movl	%eax, %ecx
	movabsq	$.L.str.23, %r8
	xorl	%eax, %eax
	movl	%eax, %r9d
	movabsq	$.L.str.5, %rdx
	movq	-320(%rbp), %r10        # 8-byte Reload
	movq	%rdx, -376(%rbp)        # 8-byte Spill
	movq	%r10, %rdx
	movq	-376(%rbp), %rbx        # 8-byte Reload
	movq	%rbx, (%rsp)
	callq	trace_logger_log_int
	movq	$-1, %rdi
	movabsq	$.L.str.2, %rsi
	movabsq	$.L.str.22, %rdx
	movabsq	$.L.str.25, %rcx
	movl	$53, %eax
	movl	%eax, %r8d
	movl	$1, %r9d
	movl	$1, (%rsp)
	callq	trace_logger_log0
	movl	$2, %eax
	movl	%eax, %edi
	movl	$32, %eax
	movl	%eax, %esi
	xorl	%eax, %eax
	movl	%eax, %edx
	movl	$1, %eax
	movl	%eax, %ecx
	movabsq	$.L.str.26, %r8
	movabsq	$.L.str.22, %r10
	movq	%rcx, -384(%rbp)        # 8-byte Spill
	movq	-384(%rbp), %r9         # 8-byte Reload
	movq	%r10, (%rsp)
	callq	trace_logger_log_int
	movl	$1, %eax
	movl	%eax, %ecx
	movl	$32, %eax
	movl	%eax, %esi
	xorl	%eax, %eax
	movl	%eax, %edx
	movabsq	$.L.str.27, %r8
	movabsq	$.L.str.5, %rdi
	movq	%rdi, -392(%rbp)        # 8-byte Spill
	movq	%rcx, %rdi
	movq	%rcx, -400(%rbp)        # 8-byte Spill
	movq	-400(%rbp), %r9         # 8-byte Reload
	movq	-392(%rbp), %r10        # 8-byte Reload
	movq	%r10, (%rsp)
	callq	trace_logger_log_int
	movl	$19134, %eax            # imm = 0x4ABE
	movl	%eax, %edi
	movl	$32, %eax
	movl	%eax, %esi
	movl	$1, %eax
	movl	%eax, %ecx
	movabsq	$.L.str.25, %r8
	xorl	%eax, %eax
	movl	%eax, %r9d
	movabsq	$.L.str.5, %rdx
	movl	-324(%rbp), %eax        # 4-byte Reload
	movl	%eax, %r11d
	movl	%r11d, %r10d
	movq	%rdx, -408(%rbp)        # 8-byte Spill
	movq	%r10, %rdx
	movq	-408(%rbp), %r10        # 8-byte Reload
	movq	%r10, (%rsp)
	callq	trace_logger_log_int
	movq	$-1, %rdi
	movabsq	$.L.str.2, %rsi
	movabsq	$.L.str.22, %rdx
	movabsq	$.L.str.28, %rcx
	movl	$53, %eax
	movl	%eax, %r8d
	movl	$1, %r9d
	movl	$1, (%rsp)
	callq	trace_logger_log0
	movl	$2, %eax
	movl	%eax, %edi
	movl	$32, %eax
	movl	%eax, %esi
	xorl	%eax, %eax
	movl	%eax, %edx
	movl	$1, %eax
	movl	%eax, %ecx
	movabsq	$.L.str.29, %r8
	movabsq	$.L.str.22, %r10
	movq	%rcx, -416(%rbp)        # 8-byte Spill
	movq	-416(%rbp), %r9         # 8-byte Reload
	movq	%r10, (%rsp)
	callq	trace_logger_log_int
	movl	$1, %eax
	movl	%eax, %ecx
	movl	$32, %eax
	movl	%eax, %esi
	xorl	%eax, %eax
	movl	%eax, %edx
	movabsq	$.L.str.27, %r8
	movabsq	$.L.str.5, %rdi
	movq	%rdi, -424(%rbp)        # 8-byte Spill
	movq	%rcx, %rdi
	movq	%rcx, -432(%rbp)        # 8-byte Spill
	movq	-432(%rbp), %r9         # 8-byte Reload
	movq	-424(%rbp), %r10        # 8-byte Reload
	movq	%r10, (%rsp)
	callq	trace_logger_log_int
	movl	$19134, %eax            # imm = 0x4ABE
	movl	%eax, %edi
	movl	$32, %eax
	movl	%eax, %esi
	movl	$1, %eax
	movl	%eax, %ecx
	movabsq	$.L.str.28, %r8
	xorl	%eax, %eax
	movl	%eax, %r9d
	movabsq	$.L.str.5, %rdx
	movl	-328(%rbp), %eax        # 4-byte Reload
	movl	%eax, %r11d
	movl	%r11d, %r10d
	movq	%rdx, -440(%rbp)        # 8-byte Spill
	movq	%r10, %rdx
	movq	-440(%rbp), %r10        # 8-byte Reload
	movq	%r10, (%rsp)
	callq	trace_logger_log_int
	movq	$-1, %rdi
	movabsq	$.L.str.2, %rsi
	movabsq	$.L.str.22, %rdx
	movabsq	$.L.str.30, %rcx
	movl	$53, %eax
	movl	%eax, %r8d
	movl	$1, %r9d
	movl	$1, (%rsp)
	callq	trace_logger_log0
	movl	$2, %eax
	movl	%eax, %edi
	movl	$32, %eax
	movl	%eax, %esi
	xorl	%eax, %eax
	movl	%eax, %edx
	movl	$1, %eax
	movl	%eax, %ecx
	movabsq	$.L.str.31, %r8
	movabsq	$.L.str.22, %r10
	movq	%rcx, -448(%rbp)        # 8-byte Spill
	movq	-448(%rbp), %r9         # 8-byte Reload
	movq	%r10, (%rsp)
	callq	trace_logger_log_int
	movl	$1, %eax
	movl	%eax, %ecx
	movl	$32, %eax
	movl	%eax, %esi
	xorl	%eax, %eax
	movl	%eax, %edx
	movabsq	$.L.str.27, %r8
	movabsq	$.L.str.5, %rdi
	movq	%rdi, -456(%rbp)        # 8-byte Spill
	movq	%rcx, %rdi
	movq	%rcx, -464(%rbp)        # 8-byte Spill
	movq	-464(%rbp), %r9         # 8-byte Reload
	movq	-456(%rbp), %r10        # 8-byte Reload
	movq	%r10, (%rsp)
	callq	trace_logger_log_int
	movl	$19134, %eax            # imm = 0x4ABE
	movl	%eax, %edi
	movl	$32, %eax
	movl	%eax, %esi
	movl	$1, %eax
	movl	%eax, %ecx
	movabsq	$.L.str.30, %r8
	xorl	%eax, %eax
	movl	%eax, %r9d
	movabsq	$.L.str.5, %rdx
	movl	-332(%rbp), %eax        # 4-byte Reload
	movl	%eax, %r11d
	movl	%r11d, %r10d
	movq	%rdx, -472(%rbp)        # 8-byte Spill
	movq	%r10, %rdx
	movq	-472(%rbp), %r10        # 8-byte Reload
	movq	%r10, (%rsp)
	callq	trace_logger_log_int
	movl	$31, %eax
	movl	%eax, %edi
	movabsq	$.L.str.2, %rsi
	movabsq	$.L.str.22, %rdx
	movabsq	$.L.str.32, %rcx
	movl	$11, %eax
	movl	%eax, %r8d
	movl	$1, %r9d
.Ltmp9:
	#DEBUG_VALUE: fz <- [DW_OP_constu 332, DW_OP_minus] [%rbp+0]
	#DEBUG_VALUE: fy <- [DW_OP_constu 328, DW_OP_minus] [%rbp+0]
	#DEBUG_VALUE: fx <- [DW_OP_constu 324, DW_OP_minus] [%rbp+0]
	#DEBUG_VALUE: md:j <- [DW_OP_constu 320, DW_OP_minus] [%rbp+0]
	.loc	1 31 22                 # md.c:31:22
	movl	$1, (%rsp)
	callq	trace_logger_log0
	movl	$2, %eax
	movl	%eax, %edi
	movl	$64, %eax
	movl	%eax, %esi
	movl	$1, %eax
	movl	%eax, %ecx
	movabsq	$.L.str.20, %r8
	xorl	%eax, %eax
	movl	%eax, %r9d
	movabsq	$.L.str.6, %rdx
	movq	-272(%rbp), %r10        # 8-byte Reload
	movq	%rdx, -480(%rbp)        # 8-byte Spill
	movq	%r10, %rdx
	movq	-480(%rbp), %rbx        # 8-byte Reload
	movq	%rbx, (%rsp)
	callq	trace_logger_log_int
	movl	$1, %eax
	movl	%eax, %ecx
	movl	$64, %eax
	movl	%eax, %esi
	movabsq	$.L.str.23, %r8
	xorl	%eax, %eax
	movl	%eax, %r9d
	movabsq	$.L.str.6, %rdx
	movq	%rcx, %rdi
	movq	-320(%rbp), %r10        # 8-byte Reload
	movq	%rdx, -488(%rbp)        # 8-byte Spill
	movq	%r10, %rdx
	movq	-488(%rbp), %rbx        # 8-byte Reload
	movq	%rbx, (%rsp)
	callq	trace_logger_log_int
	movl	$19134, %eax            # imm = 0x4ABE
	movl	%eax, %edi
	movl	$64, %eax
	movl	%eax, %esi
	movl	$1, %eax
	movl	%eax, %ecx
	movabsq	$.L.str.32, %r8
	xorl	%eax, %eax
	movl	%eax, %r9d
	movabsq	$.L.str.6, %rdx
	movq	-320(%rbp), %r10        # 8-byte Reload
	movq	-272(%rbp), %rbx        # 8-byte Reload
	addq	%rbx, %r10
	.loc	1 31 14 is_stmt 0       # md.c:31:14
	movq	%rdx, -496(%rbp)        # 8-byte Spill
	movq	%r10, %rdx
	movq	-496(%rbp), %r14        # 8-byte Reload
	movq	%r14, (%rsp)
	movq	%r10, -504(%rbp)        # 8-byte Spill
	callq	trace_logger_log_int
	movl	$31, %eax
	movl	%eax, %edi
	movabsq	$.L.str.2, %rsi
	movabsq	$.L.str.22, %rdx
	movabsq	$.L.str.33, %rcx
	movl	$32, %eax
	movl	%eax, %r8d
	movl	$1, %r9d
	movl	$1, (%rsp)
	callq	trace_logger_log0
	movl	$2, %eax
	movl	%eax, %edi
	movl	$64, %eax
	movl	%eax, %esi
	movl	$1, %eax
	movl	%eax, %ecx
	movabsq	$.L.str.32, %r8
	xorl	%eax, %eax
	movl	%eax, %r9d
	movabsq	$.L.str.6, %rdx
	movq	-504(%rbp), %r10        # 8-byte Reload
	movq	%rdx, -512(%rbp)        # 8-byte Spill
	movq	%r10, %rdx
	movq	-512(%rbp), %rbx        # 8-byte Reload
	movq	%rbx, (%rsp)
	callq	trace_logger_log_int
	movl	$1, %eax
	movl	%eax, %ecx
	movl	$64, %eax
	movl	%eax, %esi
	movabsq	$.L.str.34, %r8
	xorl	%eax, %eax
	movl	%eax, %r9d
	movabsq	$.L.str.6, %rdx
	movq	%rcx, %rdi
	movq	-80(%rbp), %r10         # 8-byte Reload
	movq	%rdx, -520(%rbp)        # 8-byte Spill
	movq	%r10, %rdx
	movq	-520(%rbp), %rbx        # 8-byte Reload
	movq	%rbx, (%rsp)
	callq	trace_logger_log_ptr
	movl	$19134, %eax            # imm = 0x4ABE
	movl	%eax, %edi
	movl	$64, %eax
	movl	%eax, %esi
	movl	$1, %eax
	movl	%eax, %ecx
	movabsq	$.L.str.33, %r8
	xorl	%eax, %eax
	movl	%eax, %r9d
	movabsq	$.L.str.6, %rdx
	movq	-504(%rbp), %r10        # 8-byte Reload
	shlq	$2, %r10
	movq	-80(%rbp), %rbx         # 8-byte Reload
	addq	%r10, %rbx
	movq	%rdx, -528(%rbp)        # 8-byte Spill
	movq	%rbx, %rdx
	movq	-528(%rbp), %r10        # 8-byte Reload
	movq	%r10, (%rsp)
	movq	%rbx, -536(%rbp)        # 8-byte Spill
	callq	trace_logger_log_ptr
	movl	$31, %eax
	movl	%eax, %edi
	movabsq	$.L.str.2, %rsi
	movabsq	$.L.str.22, %rdx
	movabsq	$.L.str.35, %rcx
	movl	$30, %eax
	movl	%eax, %r8d
	movl	$1, %r9d
	movl	$1, (%rsp)
	callq	trace_logger_log0
	movl	$1, %eax
	movl	%eax, %ecx
	movl	$64, %eax
	movl	%eax, %esi
	movabsq	$.L.str.33, %r8
	xorl	%eax, %eax
	movl	%eax, %r9d
	movabsq	$.L.str.6, %rdx
	movq	%rcx, %rdi
	movq	-536(%rbp), %r10        # 8-byte Reload
	movq	%rdx, -544(%rbp)        # 8-byte Spill
	movq	%r10, %rdx
	movq	-544(%rbp), %rbx        # 8-byte Reload
	movq	%rbx, (%rsp)
	callq	trace_logger_log_ptr
	movl	$19134, %eax            # imm = 0x4ABE
	movl	%eax, %edi
	movl	$32, %eax
	movl	%eax, %esi
	movl	$1, %eax
	movl	%eax, %ecx
	movabsq	$.L.str.35, %r8
	xorl	%eax, %eax
	movl	%eax, %r9d
	movabsq	$.L.str.6, %rdx
	movq	-80(%rbp), %r10         # 8-byte Reload
	movq	-504(%rbp), %rbx        # 8-byte Reload
	movl	(%r10,%rbx,4), %eax
.Ltmp10:
	.loc	1 19 12 is_stmt 1       # md.c:19:12
	movl	%eax, %r11d
	movl	%r11d, %r14d
	movq	%rdx, -552(%rbp)        # 8-byte Spill
	movq	%r14, %rdx
	movq	-552(%rbp), %r14        # 8-byte Reload
	movq	%r14, (%rsp)
	movl	%eax, -556(%rbp)        # 4-byte Spill
	callq	trace_logger_log_int
	movl	$32, %eax
	movl	%eax, %edi
	movabsq	$.L.str.2, %rsi
	movabsq	$.L.str.22, %rdx
	movabsq	$.L.str.36, %rcx
	movl	$38, %eax
	movl	%eax, %r8d
	movl	$1, %r9d
.Ltmp11:
	#DEBUG_VALUE: md:jidx <- [DW_OP_constu 556, DW_OP_minus] [%rbp+0]
	.loc	1 32 18                 # md.c:32:18
	movl	$1, (%rsp)
	callq	trace_logger_log0
	movl	$1, %eax
	movl	%eax, %ecx
	movl	$32, %eax
	movl	%eax, %esi
	movabsq	$.L.str.35, %r8
	xorl	%eax, %eax
	movl	%eax, %r9d
	movabsq	$.L.str.6, %rdx
	movl	-556(%rbp), %eax        # 4-byte Reload
	movl	%eax, %r11d
	movl	%r11d, %edi
	movq	%rdi, -568(%rbp)        # 8-byte Spill
	movq	%rcx, %rdi
	movq	-568(%rbp), %r10        # 8-byte Reload
	movq	%rdx, -576(%rbp)        # 8-byte Spill
	movq	%r10, %rdx
	movq	-576(%rbp), %rbx        # 8-byte Reload
	movq	%rbx, (%rsp)
	callq	trace_logger_log_int
	movl	$19134, %eax            # imm = 0x4ABE
	movl	%eax, %edi
	movl	$64, %eax
	movl	%eax, %esi
	movl	$1, %eax
	movl	%eax, %ecx
	movabsq	$.L.str.36, %r8
	xorl	%eax, %eax
	movl	%eax, %r9d
	movabsq	$.L.str.6, %rdx
	movl	-556(%rbp), %eax        # 4-byte Reload
	movslq	%eax, %r10
	movq	%rdx, -584(%rbp)        # 8-byte Spill
	movq	%r10, %rdx
	movq	-584(%rbp), %rbx        # 8-byte Reload
	movq	%rbx, (%rsp)
	movq	%r10, -592(%rbp)        # 8-byte Spill
	callq	trace_logger_log_int
	movl	$32, %eax
	movl	%eax, %ecx
	movabsq	$.L.str.2, %rsi
	movabsq	$.L.str.22, %rdx
	movabsq	$.L.str.37, %rdi
	movl	$1, %r9d
	movq	%rdi, -600(%rbp)        # 8-byte Spill
	movq	%rcx, %rdi
	movq	-600(%rbp), %r8         # 8-byte Reload
	movq	%rcx, -608(%rbp)        # 8-byte Spill
	movq	%r8, %rcx
	movq	-608(%rbp), %r8         # 8-byte Reload
	movl	$1, (%rsp)
	callq	trace_logger_log0
	movl	$2, %eax
	movl	%eax, %edi
	movl	$64, %eax
	movl	%eax, %esi
	movl	$1, %eax
	movl	%eax, %ecx
	movabsq	$.L.str.36, %r8
	xorl	%eax, %eax
	movl	%eax, %r9d
	movabsq	$.L.str.6, %rdx
	movq	-592(%rbp), %r10        # 8-byte Reload
	movq	%rdx, -616(%rbp)        # 8-byte Spill
	movq	%r10, %rdx
	movq	-616(%rbp), %rbx        # 8-byte Reload
	movq	%rbx, (%rsp)
	callq	trace_logger_log_int
	movl	$1, %eax
	movl	%eax, %ecx
	movl	$64, %eax
	movl	%eax, %esi
	movabsq	$.L.str.12, %r8
	xorl	%eax, %eax
	movl	%eax, %r9d
	movabsq	$.L.str.6, %rdx
	movq	%rcx, %rdi
	movq	-72(%rbp), %r10         # 8-byte Reload
	movq	%rdx, -624(%rbp)        # 8-byte Spill
	movq	%r10, %rdx
	movq	-624(%rbp), %rbx        # 8-byte Reload
	movq	%rbx, (%rsp)
	callq	trace_logger_log_ptr
	movl	$19134, %eax            # imm = 0x4ABE
	movl	%eax, %edi
	movl	$64, %eax
	movl	%eax, %esi
	movl	$1, %eax
	movl	%eax, %ecx
	movabsq	$.L.str.37, %r8
	xorl	%eax, %eax
	movl	%eax, %r9d
	movabsq	$.L.str.6, %rdx
	movq	-592(%rbp), %r10        # 8-byte Reload
	shlq	$2, %r10
	movq	-72(%rbp), %rbx         # 8-byte Reload
	addq	%r10, %rbx
	movq	%rdx, -632(%rbp)        # 8-byte Spill
	movq	%rbx, %rdx
	movq	-632(%rbp), %r10        # 8-byte Reload
	movq	%r10, (%rsp)
	movq	%rbx, -640(%rbp)        # 8-byte Spill
	callq	trace_logger_log_ptr
	movl	$32, %eax
	movl	%eax, %edi
	movabsq	$.L.str.2, %rsi
	movabsq	$.L.str.22, %rdx
	movabsq	$.L.str.38, %rcx
	movl	$30, %eax
	movl	%eax, %r8d
	movl	$1, %r9d
	movl	$1, (%rsp)
	callq	trace_logger_log0
	movl	$1, %eax
	movl	%eax, %ecx
	movl	$64, %eax
	movl	%eax, %esi
	movabsq	$.L.str.37, %r8
	xorl	%eax, %eax
	movl	%eax, %r9d
	movabsq	$.L.str.6, %rdx
	movq	%rcx, %rdi
	movq	-640(%rbp), %r10        # 8-byte Reload
	movq	%rdx, -648(%rbp)        # 8-byte Spill
	movq	%r10, %rdx
	movq	-648(%rbp), %rbx        # 8-byte Reload
	movq	%rbx, (%rsp)
	callq	trace_logger_log_ptr
	movl	$19134, %eax            # imm = 0x4ABE
	movl	%eax, %edi
	movl	$32, %eax
	movl	%eax, %esi
	movl	$1, %eax
	movl	%eax, %ecx
	movabsq	$.L.str.38, %r8
	xorl	%eax, %eax
	movl	%eax, %r9d
	movabsq	$.L.str.6, %rdx
	movq	-72(%rbp), %r10         # 8-byte Reload
	movq	-592(%rbp), %rbx        # 8-byte Reload
	movl	(%r10,%rbx,4), %eax
	.loc	1 32 12 is_stmt 0       # md.c:32:12
	movl	%eax, %r11d
	movl	%r11d, %r14d
	movq	%rdx, -656(%rbp)        # 8-byte Spill
	movq	%r14, %rdx
	movq	-656(%rbp), %r14        # 8-byte Reload
	movq	%r14, (%rsp)
	movl	%eax, -660(%rbp)        # 4-byte Spill
	callq	trace_logger_log_int
	movl	$33, %eax
	movl	%eax, %edi
	movabsq	$.L.str.2, %rsi
	movabsq	$.L.str.22, %rdx
	movabsq	$.L.str.39, %rcx
	movl	$32, %eax
	movl	%eax, %r8d
	movl	$1, %r9d
.Ltmp12:
	#DEBUG_VALUE: j_x <- [DW_OP_constu 660, DW_OP_minus] [%rbp+0]
	.loc	1 33 18 is_stmt 1       # md.c:33:18
	movl	$1, (%rsp)
	callq	trace_logger_log0
	movl	$2, %eax
	movl	%eax, %edi
	movl	$64, %eax
	movl	%eax, %esi
	movl	$1, %eax
	movl	%eax, %ecx
	movabsq	$.L.str.36, %r8
	xorl	%eax, %eax
	movl	%eax, %r9d
	movabsq	$.L.str.6, %rdx
	movq	-592(%rbp), %r10        # 8-byte Reload
	movq	%rdx, -672(%rbp)        # 8-byte Spill
	movq	%r10, %rdx
	movq	-672(%rbp), %rbx        # 8-byte Reload
	movq	%rbx, (%rsp)
	callq	trace_logger_log_int
	movl	$1, %eax
	movl	%eax, %ecx
	movl	$64, %eax
	movl	%eax, %esi
	movabsq	$.L.str.15, %r8
	xorl	%eax, %eax
	movl	%eax, %r9d
	movabsq	$.L.str.6, %rdx
	movq	%rcx, %rdi
	movq	-96(%rbp), %r10         # 8-byte Reload
	movq	%rdx, -680(%rbp)        # 8-byte Spill
	movq	%r10, %rdx
	movq	-680(%rbp), %rbx        # 8-byte Reload
	movq	%rbx, (%rsp)
	callq	trace_logger_log_ptr
	movl	$19134, %eax            # imm = 0x4ABE
	movl	%eax, %edi
	movl	$64, %eax
	movl	%eax, %esi
	movl	$1, %eax
	movl	%eax, %ecx
	movabsq	$.L.str.39, %r8
	xorl	%eax, %eax
	movl	%eax, %r9d
	movabsq	$.L.str.6, %rdx
	movq	-592(%rbp), %r10        # 8-byte Reload
	shlq	$2, %r10
	movq	-96(%rbp), %rbx         # 8-byte Reload
	addq	%r10, %rbx
	movq	%rdx, -688(%rbp)        # 8-byte Spill
	movq	%rbx, %rdx
	movq	-688(%rbp), %r10        # 8-byte Reload
	movq	%r10, (%rsp)
	movq	%rbx, -696(%rbp)        # 8-byte Spill
	callq	trace_logger_log_ptr
	movl	$33, %eax
	movl	%eax, %edi
	movabsq	$.L.str.2, %rsi
	movabsq	$.L.str.22, %rdx
	movabsq	$.L.str.40, %rcx
	movl	$30, %eax
	movl	%eax, %r8d
	movl	$1, %r9d
	movl	$1, (%rsp)
	callq	trace_logger_log0
	movl	$1, %eax
	movl	%eax, %ecx
	movl	$64, %eax
	movl	%eax, %esi
	movabsq	$.L.str.39, %r8
	xorl	%eax, %eax
	movl	%eax, %r9d
	movabsq	$.L.str.6, %rdx
	movq	%rcx, %rdi
	movq	-696(%rbp), %r10        # 8-byte Reload
	movq	%rdx, -704(%rbp)        # 8-byte Spill
	movq	%r10, %rdx
	movq	-704(%rbp), %rbx        # 8-byte Reload
	movq	%rbx, (%rsp)
	callq	trace_logger_log_ptr
	movl	$19134, %eax            # imm = 0x4ABE
	movl	%eax, %edi
	movl	$32, %eax
	movl	%eax, %esi
	movl	$1, %eax
	movl	%eax, %ecx
	movabsq	$.L.str.40, %r8
	xorl	%eax, %eax
	movl	%eax, %r9d
	movabsq	$.L.str.6, %rdx
	movq	-96(%rbp), %r10         # 8-byte Reload
	movq	-592(%rbp), %rbx        # 8-byte Reload
	movl	(%r10,%rbx,4), %eax
	.loc	1 33 12 is_stmt 0       # md.c:33:12
	movl	%eax, %r11d
	movl	%r11d, %r14d
	movq	%rdx, -712(%rbp)        # 8-byte Spill
	movq	%r14, %rdx
	movq	-712(%rbp), %r14        # 8-byte Reload
	movq	%r14, (%rsp)
	movl	%eax, -716(%rbp)        # 4-byte Spill
	callq	trace_logger_log_int
	movl	$34, %eax
	movl	%eax, %edi
	movabsq	$.L.str.2, %rsi
	movabsq	$.L.str.22, %rdx
	movabsq	$.L.str.41, %rcx
	movl	$32, %eax
	movl	%eax, %r8d
	movl	$1, %r9d
.Ltmp13:
	#DEBUG_VALUE: j_y <- [DW_OP_constu 716, DW_OP_minus] [%rbp+0]
	.loc	1 34 18 is_stmt 1       # md.c:34:18
	movl	$1, (%rsp)
	callq	trace_logger_log0
	movl	$2, %eax
	movl	%eax, %edi
	movl	$64, %eax
	movl	%eax, %esi
	movl	$1, %eax
	movl	%eax, %ecx
	movabsq	$.L.str.36, %r8
	xorl	%eax, %eax
	movl	%eax, %r9d
	movabsq	$.L.str.6, %rdx
	movq	-592(%rbp), %r10        # 8-byte Reload
	movq	%rdx, -728(%rbp)        # 8-byte Spill
	movq	%r10, %rdx
	movq	-728(%rbp), %rbx        # 8-byte Reload
	movq	%rbx, (%rsp)
	callq	trace_logger_log_int
	movl	$1, %eax
	movl	%eax, %ecx
	movl	$64, %eax
	movl	%eax, %esi
	movabsq	$.L.str.18, %r8
	xorl	%eax, %eax
	movl	%eax, %r9d
	movabsq	$.L.str.6, %rdx
	movq	%rcx, %rdi
	movq	-88(%rbp), %r10         # 8-byte Reload
	movq	%rdx, -736(%rbp)        # 8-byte Spill
	movq	%r10, %rdx
	movq	-736(%rbp), %rbx        # 8-byte Reload
	movq	%rbx, (%rsp)
	callq	trace_logger_log_ptr
	movl	$19134, %eax            # imm = 0x4ABE
	movl	%eax, %edi
	movl	$64, %eax
	movl	%eax, %esi
	movl	$1, %eax
	movl	%eax, %ecx
	movabsq	$.L.str.41, %r8
	xorl	%eax, %eax
	movl	%eax, %r9d
	movabsq	$.L.str.6, %rdx
	movq	-592(%rbp), %r10        # 8-byte Reload
	shlq	$2, %r10
	movq	-88(%rbp), %rbx         # 8-byte Reload
	addq	%r10, %rbx
	movq	%rdx, -744(%rbp)        # 8-byte Spill
	movq	%rbx, %rdx
	movq	-744(%rbp), %r10        # 8-byte Reload
	movq	%r10, (%rsp)
	movq	%rbx, -752(%rbp)        # 8-byte Spill
	callq	trace_logger_log_ptr
	movl	$34, %eax
	movl	%eax, %edi
	movabsq	$.L.str.2, %rsi
	movabsq	$.L.str.22, %rdx
	movabsq	$.L.str.42, %rcx
	movl	$30, %eax
	movl	%eax, %r8d
	movl	$1, %r9d
	movl	$1, (%rsp)
	callq	trace_logger_log0
	movl	$1, %eax
	movl	%eax, %ecx
	movl	$64, %eax
	movl	%eax, %esi
	movabsq	$.L.str.41, %r8
	xorl	%eax, %eax
	movl	%eax, %r9d
	movabsq	$.L.str.6, %rdx
	movq	%rcx, %rdi
	movq	-752(%rbp), %r10        # 8-byte Reload
	movq	%rdx, -760(%rbp)        # 8-byte Spill
	movq	%r10, %rdx
	movq	-760(%rbp), %rbx        # 8-byte Reload
	movq	%rbx, (%rsp)
	callq	trace_logger_log_ptr
	movl	$19134, %eax            # imm = 0x4ABE
	movl	%eax, %edi
	movl	$32, %eax
	movl	%eax, %esi
	movl	$1, %eax
	movl	%eax, %ecx
	movabsq	$.L.str.42, %r8
	xorl	%eax, %eax
	movl	%eax, %r9d
	movabsq	$.L.str.6, %rdx
	movq	-88(%rbp), %r10         # 8-byte Reload
	movq	-592(%rbp), %rbx        # 8-byte Reload
	movl	(%r10,%rbx,4), %eax
	.loc	1 34 12 is_stmt 0       # md.c:34:12
	movl	%eax, %r11d
	movl	%r11d, %r14d
	movq	%rdx, -768(%rbp)        # 8-byte Spill
	movq	%r14, %rdx
	movq	-768(%rbp), %r14        # 8-byte Reload
	movq	%r14, (%rsp)
	movl	%eax, -772(%rbp)        # 4-byte Spill
	callq	trace_logger_log_int
	movl	$35, %eax
	movl	%eax, %edi
	movabsq	$.L.str.2, %rsi
	movabsq	$.L.str.22, %rdx
	movabsq	$.L.str.43, %rcx
	movl	$13, %eax
	movl	%eax, %r8d
	movl	$1, %r9d
.Ltmp14:
	#DEBUG_VALUE: j_z <- [DW_OP_constu 772, DW_OP_minus] [%rbp+0]
	.loc	1 35 18 is_stmt 1       # md.c:35:18
	movl	$1, (%rsp)
	callq	trace_logger_log0
	movl	$2, %eax
	movl	%eax, %edi
	movl	$32, %eax
	movl	%eax, %esi
	movl	$1, %eax
	movl	%eax, %ecx
	movabsq	$.L.str.38, %r8
	xorl	%eax, %eax
	movl	%eax, %r9d
	movabsq	$.L.str.6, %rdx
	movl	-660(%rbp), %eax        # 4-byte Reload
	movl	%eax, %r11d
	movl	%r11d, %r10d
	movq	%rdx, -784(%rbp)        # 8-byte Spill
	movq	%r10, %rdx
	movq	-784(%rbp), %r10        # 8-byte Reload
	movq	%r10, (%rsp)
	callq	trace_logger_log_int
	movl	$1, %eax
	movl	%eax, %ecx
	movl	$32, %eax
	movl	%eax, %esi
	movabsq	$.L.str.13, %r8
	xorl	%eax, %eax
	movl	%eax, %r9d
	movabsq	$.L.str.6, %rdx
	movl	-180(%rbp), %eax        # 4-byte Reload
	movl	%eax, %r11d
	movl	%r11d, %edi
	movq	%rdi, -792(%rbp)        # 8-byte Spill
	movq	%rcx, %rdi
	movq	-792(%rbp), %r10        # 8-byte Reload
	movq	%rdx, -800(%rbp)        # 8-byte Spill
	movq	%r10, %rdx
	movq	-800(%rbp), %rbx        # 8-byte Reload
	movq	%rbx, (%rsp)
	callq	trace_logger_log_int
	movl	$19134, %eax            # imm = 0x4ABE
	movl	%eax, %edi
	movl	$32, %eax
	movl	%eax, %esi
	movl	$1, %eax
	movl	%eax, %ecx
	movabsq	$.L.str.43, %r8
	xorl	%eax, %eax
	movl	%eax, %r9d
	movabsq	$.L.str.6, %rdx
	movl	-180(%rbp), %eax        # 4-byte Reload
	movl	-660(%rbp), %r11d       # 4-byte Reload
	subl	%r11d, %eax
.Ltmp15:
	.loc	1 20 7                  # md.c:20:7
	movl	%eax, %r15d
	movl	%r15d, %r10d
	movq	%rdx, -808(%rbp)        # 8-byte Spill
	movq	%r10, %rdx
	movq	-808(%rbp), %r10        # 8-byte Reload
	movq	%r10, (%rsp)
	movl	%eax, -812(%rbp)        # 4-byte Spill
	callq	trace_logger_log_int
	movl	$36, %eax
	movl	%eax, %edi
	movabsq	$.L.str.2, %rsi
	movabsq	$.L.str.22, %rdx
	movabsq	$.L.str.44, %rcx
	movl	$13, %eax
	movl	%eax, %r8d
	movl	$1, %r9d
.Ltmp16:
	#DEBUG_VALUE: md:delx <- [DW_OP_constu 812, DW_OP_minus] [%rbp+0]
	.loc	1 36 18                 # md.c:36:18
	movl	$1, (%rsp)
	callq	trace_logger_log0
	movl	$2, %eax
	movl	%eax, %edi
	movl	$32, %eax
	movl	%eax, %esi
	movl	$1, %eax
	movl	%eax, %ecx
	movabsq	$.L.str.40, %r8
	xorl	%eax, %eax
	movl	%eax, %r9d
	movabsq	$.L.str.6, %rdx
	movl	-716(%rbp), %eax        # 4-byte Reload
	movl	%eax, %r11d
	movl	%r11d, %r10d
	movq	%rdx, -824(%rbp)        # 8-byte Spill
	movq	%r10, %rdx
	movq	-824(%rbp), %r10        # 8-byte Reload
	movq	%r10, (%rsp)
	callq	trace_logger_log_int
	movl	$1, %eax
	movl	%eax, %ecx
	movl	$32, %eax
	movl	%eax, %esi
	movabsq	$.L.str.16, %r8
	xorl	%eax, %eax
	movl	%eax, %r9d
	movabsq	$.L.str.6, %rdx
	movl	-212(%rbp), %eax        # 4-byte Reload
	movl	%eax, %r11d
	movl	%r11d, %edi
	movq	%rdi, -832(%rbp)        # 8-byte Spill
	movq	%rcx, %rdi
	movq	-832(%rbp), %r10        # 8-byte Reload
	movq	%rdx, -840(%rbp)        # 8-byte Spill
	movq	%r10, %rdx
	movq	-840(%rbp), %rbx        # 8-byte Reload
	movq	%rbx, (%rsp)
	callq	trace_logger_log_int
	movl	$19134, %eax            # imm = 0x4ABE
	movl	%eax, %edi
	movl	$32, %eax
	movl	%eax, %esi
	movl	$1, %eax
	movl	%eax, %ecx
	movabsq	$.L.str.44, %r8
	xorl	%eax, %eax
	movl	%eax, %r9d
	movabsq	$.L.str.6, %rdx
	movl	-212(%rbp), %eax        # 4-byte Reload
	movl	-716(%rbp), %r11d       # 4-byte Reload
	subl	%r11d, %eax
.Ltmp17:
	.loc	1 20 13                 # md.c:20:13
	movl	%eax, %r15d
	movl	%r15d, %r10d
	movq	%rdx, -848(%rbp)        # 8-byte Spill
	movq	%r10, %rdx
	movq	-848(%rbp), %r10        # 8-byte Reload
	movq	%r10, (%rsp)
	movl	%eax, -852(%rbp)        # 4-byte Spill
	callq	trace_logger_log_int
	movl	$37, %eax
	movl	%eax, %edi
	movabsq	$.L.str.2, %rsi
	movabsq	$.L.str.22, %rdx
	movabsq	$.L.str.45, %rcx
	movl	$13, %eax
	movl	%eax, %r8d
	movl	$1, %r9d
.Ltmp18:
	#DEBUG_VALUE: md:dely <- [DW_OP_constu 852, DW_OP_minus] [%rbp+0]
	.loc	1 37 18                 # md.c:37:18
	movl	$1, (%rsp)
	callq	trace_logger_log0
	movl	$2, %eax
	movl	%eax, %edi
	movl	$32, %eax
	movl	%eax, %esi
	movl	$1, %eax
	movl	%eax, %ecx
	movabsq	$.L.str.42, %r8
	xorl	%eax, %eax
	movl	%eax, %r9d
	movabsq	$.L.str.6, %rdx
	movl	-772(%rbp), %eax        # 4-byte Reload
	movl	%eax, %r11d
	movl	%r11d, %r10d
	movq	%rdx, -864(%rbp)        # 8-byte Spill
	movq	%r10, %rdx
	movq	-864(%rbp), %r10        # 8-byte Reload
	movq	%r10, (%rsp)
	callq	trace_logger_log_int
	movl	$1, %eax
	movl	%eax, %ecx
	movl	$32, %eax
	movl	%eax, %esi
	movabsq	$.L.str.19, %r8
	xorl	%eax, %eax
	movl	%eax, %r9d
	movabsq	$.L.str.6, %rdx
	movl	-244(%rbp), %eax        # 4-byte Reload
	movl	%eax, %r11d
	movl	%r11d, %edi
	movq	%rdi, -872(%rbp)        # 8-byte Spill
	movq	%rcx, %rdi
	movq	-872(%rbp), %r10        # 8-byte Reload
	movq	%rdx, -880(%rbp)        # 8-byte Spill
	movq	%r10, %rdx
	movq	-880(%rbp), %rbx        # 8-byte Reload
	movq	%rbx, (%rsp)
	callq	trace_logger_log_int
	movl	$19134, %eax            # imm = 0x4ABE
	movl	%eax, %edi
	movl	$32, %eax
	movl	%eax, %esi
	movl	$1, %eax
	movl	%eax, %ecx
	movabsq	$.L.str.45, %r8
	xorl	%eax, %eax
	movl	%eax, %r9d
	movabsq	$.L.str.6, %rdx
	movl	-244(%rbp), %eax        # 4-byte Reload
	movl	-772(%rbp), %r11d       # 4-byte Reload
	subl	%r11d, %eax
.Ltmp19:
	.loc	1 20 19                 # md.c:20:19
	movl	%eax, %r15d
	movl	%r15d, %r10d
	movq	%rdx, -888(%rbp)        # 8-byte Spill
	movq	%r10, %rdx
	movq	-888(%rbp), %r10        # 8-byte Reload
	movq	%r10, (%rsp)
	movl	%eax, -892(%rbp)        # 4-byte Spill
	callq	trace_logger_log_int
	movl	$38, %eax
	movl	%eax, %edi
	movabsq	$.L.str.2, %rsi
	movabsq	$.L.str.22, %rdx
	movabsq	$.L.str.46, %rcx
	movl	$15, %eax
	movl	%eax, %r8d
	movl	$1, %r9d
.Ltmp20:
	#DEBUG_VALUE: md:delz <- [DW_OP_constu 892, DW_OP_minus] [%rbp+0]
	.loc	1 38 24                 # md.c:38:24
	movl	$1, (%rsp)
	callq	trace_logger_log0
	movl	$2, %eax
	movl	%eax, %edi
	movl	$32, %eax
	movl	%eax, %esi
	movl	$1, %eax
	movl	%eax, %ecx
	movabsq	$.L.str.43, %r8
	xorl	%eax, %eax
	movl	%eax, %r9d
	movabsq	$.L.str.6, %rdx
	movl	-812(%rbp), %eax        # 4-byte Reload
	movl	%eax, %r11d
	movl	%r11d, %r10d
	movq	%rdx, -904(%rbp)        # 8-byte Spill
	movq	%r10, %rdx
	movq	-904(%rbp), %r10        # 8-byte Reload
	movq	%r10, (%rsp)
	callq	trace_logger_log_int
	movl	$1, %eax
	movl	%eax, %ecx
	movl	$32, %eax
	movl	%eax, %esi
	movabsq	$.L.str.43, %r8
	xorl	%eax, %eax
	movl	%eax, %r9d
	movabsq	$.L.str.6, %rdx
	movl	-812(%rbp), %eax        # 4-byte Reload
	movl	%eax, %r11d
	movl	%r11d, %edi
	movq	%rdi, -912(%rbp)        # 8-byte Spill
	movq	%rcx, %rdi
	movq	-912(%rbp), %r10        # 8-byte Reload
	movq	%rdx, -920(%rbp)        # 8-byte Spill
	movq	%r10, %rdx
	movq	-920(%rbp), %rbx        # 8-byte Reload
	movq	%rbx, (%rsp)
	callq	trace_logger_log_int
	movl	$19134, %eax            # imm = 0x4ABE
	movl	%eax, %edi
	movl	$32, %eax
	movl	%eax, %esi
	movl	$1, %eax
	movl	%eax, %ecx
	movabsq	$.L.str.46, %r8
	xorl	%eax, %eax
	movl	%eax, %r9d
	movabsq	$.L.str.6, %rdx
	movl	-812(%rbp), %eax        # 4-byte Reload
	imull	%eax, %eax
.Ltmp21:
	.loc	1 20 32                 # md.c:20:32
	movl	%eax, %r11d
	movl	%r11d, %r10d
	movq	%rdx, -928(%rbp)        # 8-byte Spill
	movq	%r10, %rdx
	movq	-928(%rbp), %r10        # 8-byte Reload
	movq	%r10, (%rsp)
	movl	%eax, -932(%rbp)        # 4-byte Spill
	callq	trace_logger_log_int
	movl	$39, %eax
	movl	%eax, %edi
	movabsq	$.L.str.2, %rsi
	movabsq	$.L.str.22, %rdx
	movabsq	$.L.str.47, %rcx
	movl	$15, %eax
	movl	%eax, %r8d
	movl	$1, %r9d
.Ltmp22:
	#DEBUG_VALUE: md:r2invTEMP <- [DW_OP_constu 932, DW_OP_minus] [%rbp+0]
	.loc	1 39 25                 # md.c:39:25
	movl	$1, (%rsp)
	callq	trace_logger_log0
	movl	$2, %eax
	movl	%eax, %edi
	movl	$32, %eax
	movl	%eax, %esi
	movl	$1, %eax
	movl	%eax, %ecx
	movabsq	$.L.str.44, %r8
	xorl	%eax, %eax
	movl	%eax, %r9d
	movabsq	$.L.str.6, %rdx
	movl	-852(%rbp), %eax        # 4-byte Reload
	movl	%eax, %r11d
	movl	%r11d, %r10d
	movq	%rdx, -944(%rbp)        # 8-byte Spill
	movq	%r10, %rdx
	movq	-944(%rbp), %r10        # 8-byte Reload
	movq	%r10, (%rsp)
	callq	trace_logger_log_int
	movl	$1, %eax
	movl	%eax, %ecx
	movl	$32, %eax
	movl	%eax, %esi
	movabsq	$.L.str.44, %r8
	xorl	%eax, %eax
	movl	%eax, %r9d
	movabsq	$.L.str.6, %rdx
	movl	-852(%rbp), %eax        # 4-byte Reload
	movl	%eax, %r11d
	movl	%r11d, %edi
	movq	%rdi, -952(%rbp)        # 8-byte Spill
	movq	%rcx, %rdi
	movq	-952(%rbp), %r10        # 8-byte Reload
	movq	%rdx, -960(%rbp)        # 8-byte Spill
	movq	%r10, %rdx
	movq	-960(%rbp), %rbx        # 8-byte Reload
	movq	%rbx, (%rsp)
	callq	trace_logger_log_int
	movl	$19134, %eax            # imm = 0x4ABE
	movl	%eax, %edi
	movl	$32, %eax
	movl	%eax, %esi
	movl	$1, %eax
	movl	%eax, %ecx
	movabsq	$.L.str.47, %r8
	xorl	%eax, %eax
	movl	%eax, %r9d
	movabsq	$.L.str.6, %rdx
	movl	-852(%rbp), %eax        # 4-byte Reload
	imull	%eax, %eax
.Ltmp23:
	.loc	1 20 43                 # md.c:20:43
	movl	%eax, %r11d
	movl	%r11d, %r10d
	movq	%rdx, -968(%rbp)        # 8-byte Spill
	movq	%r10, %rdx
	movq	-968(%rbp), %r10        # 8-byte Reload
	movq	%r10, (%rsp)
	movl	%eax, -972(%rbp)        # 4-byte Spill
	callq	trace_logger_log_int
	movl	$40, %eax
	movl	%eax, %edi
	movabsq	$.L.str.2, %rsi
	movabsq	$.L.str.22, %rdx
	movabsq	$.L.str.48, %rcx
	movl	$15, %eax
	movl	%eax, %r8d
	movl	$1, %r9d
.Ltmp24:
	#DEBUG_VALUE: md:r2invTEMP2 <- [DW_OP_constu 972, DW_OP_minus] [%rbp+0]
	.loc	1 40 25                 # md.c:40:25
	movl	$1, (%rsp)
	callq	trace_logger_log0
	movl	$2, %eax
	movl	%eax, %edi
	movl	$32, %eax
	movl	%eax, %esi
	movl	$1, %eax
	movl	%eax, %ecx
	movabsq	$.L.str.45, %r8
	xorl	%eax, %eax
	movl	%eax, %r9d
	movabsq	$.L.str.6, %rdx
	movl	-892(%rbp), %eax        # 4-byte Reload
	movl	%eax, %r11d
	movl	%r11d, %r10d
	movq	%rdx, -984(%rbp)        # 8-byte Spill
	movq	%r10, %rdx
	movq	-984(%rbp), %r10        # 8-byte Reload
	movq	%r10, (%rsp)
	callq	trace_logger_log_int
	movl	$1, %eax
	movl	%eax, %ecx
	movl	$32, %eax
	movl	%eax, %esi
	movabsq	$.L.str.45, %r8
	xorl	%eax, %eax
	movl	%eax, %r9d
	movabsq	$.L.str.6, %rdx
	movl	-892(%rbp), %eax        # 4-byte Reload
	movl	%eax, %r11d
	movl	%r11d, %edi
	movq	%rdi, -992(%rbp)        # 8-byte Spill
	movq	%rcx, %rdi
	movq	-992(%rbp), %r10        # 8-byte Reload
	movq	%rdx, -1000(%rbp)       # 8-byte Spill
	movq	%r10, %rdx
	movq	-1000(%rbp), %rbx       # 8-byte Reload
	movq	%rbx, (%rsp)
	callq	trace_logger_log_int
	movl	$19134, %eax            # imm = 0x4ABE
	movl	%eax, %edi
	movl	$32, %eax
	movl	%eax, %esi
	movl	$1, %eax
	movl	%eax, %ecx
	movabsq	$.L.str.48, %r8
	xorl	%eax, %eax
	movl	%eax, %r9d
	movabsq	$.L.str.6, %rdx
	movl	-892(%rbp), %eax        # 4-byte Reload
	imull	%eax, %eax
.Ltmp25:
	.loc	1 20 55                 # md.c:20:55
	movl	%eax, %r11d
	movl	%r11d, %r10d
	movq	%rdx, -1008(%rbp)       # 8-byte Spill
	movq	%r10, %rdx
	movq	-1008(%rbp), %r10       # 8-byte Reload
	movq	%r10, (%rsp)
	movl	%eax, -1012(%rbp)       # 4-byte Spill
	callq	trace_logger_log_int
	movl	$41, %eax
	movl	%eax, %edi
	movabsq	$.L.str.2, %rsi
	movabsq	$.L.str.22, %rdx
	movabsq	$.L.str.49, %rcx
	movl	$11, %eax
	movl	%eax, %r8d
	movl	$1, %r9d
.Ltmp26:
	#DEBUG_VALUE: md:r2invTEMP3 <- [DW_OP_constu 1012, DW_OP_minus] [%rbp+0]
	.loc	1 41 22                 # md.c:41:22
	movl	$1, (%rsp)
	callq	trace_logger_log0
	movl	$2, %eax
	movl	%eax, %edi
	movl	$32, %eax
	movl	%eax, %esi
	movl	$1, %eax
	movl	%eax, %ecx
	movabsq	$.L.str.46, %r8
	xorl	%eax, %eax
	movl	%eax, %r9d
	movabsq	$.L.str.6, %rdx
	movl	-932(%rbp), %eax        # 4-byte Reload
	movl	%eax, %r11d
	movl	%r11d, %r10d
	movq	%rdx, -1024(%rbp)       # 8-byte Spill
	movq	%r10, %rdx
	movq	-1024(%rbp), %r10       # 8-byte Reload
	movq	%r10, (%rsp)
	callq	trace_logger_log_int
	movl	$1, %eax
	movl	%eax, %ecx
	movl	$32, %eax
	movl	%eax, %esi
	movabsq	$.L.str.47, %r8
	xorl	%eax, %eax
	movl	%eax, %r9d
	movabsq	$.L.str.6, %rdx
	movl	-972(%rbp), %eax        # 4-byte Reload
	movl	%eax, %r11d
	movl	%r11d, %edi
	movq	%rdi, -1032(%rbp)       # 8-byte Spill
	movq	%rcx, %rdi
	movq	-1032(%rbp), %r10       # 8-byte Reload
	movq	%rdx, -1040(%rbp)       # 8-byte Spill
	movq	%r10, %rdx
	movq	-1040(%rbp), %rbx       # 8-byte Reload
	movq	%rbx, (%rsp)
	callq	trace_logger_log_int
	movl	$19134, %eax            # imm = 0x4ABE
	movl	%eax, %edi
	movl	$32, %eax
	movl	%eax, %esi
	movl	$1, %eax
	movl	%eax, %ecx
	movabsq	$.L.str.49, %r8
	xorl	%eax, %eax
	movl	%eax, %r9d
	movabsq	$.L.str.6, %rdx
	movl	-972(%rbp), %eax        # 4-byte Reload
	movl	-932(%rbp), %r11d       # 4-byte Reload
	addl	%r11d, %eax
.Ltmp27:
	.loc	1 20 67                 # md.c:20:67
	movl	%eax, %r15d
	movl	%r15d, %r10d
	movq	%rdx, -1048(%rbp)       # 8-byte Spill
	movq	%r10, %rdx
	movq	-1048(%rbp), %r10       # 8-byte Reload
	movq	%r10, (%rsp)
	movl	%eax, -1052(%rbp)       # 4-byte Spill
	callq	trace_logger_log_int
	movl	$42, %eax
	movl	%eax, %edi
	movabsq	$.L.str.2, %rsi
	movabsq	$.L.str.22, %rdx
	movabsq	$.L.str.50, %rcx
	movl	$11, %eax
	movl	%eax, %r8d
	movl	$1, %r9d
.Ltmp28:
	#DEBUG_VALUE: md:t1 <- [DW_OP_constu 1052, DW_OP_minus] [%rbp+0]
	.loc	1 42 15                 # md.c:42:15
	movl	$1, (%rsp)
	callq	trace_logger_log0
	movl	$2, %eax
	movl	%eax, %edi
	movl	$32, %eax
	movl	%eax, %esi
	movl	$1, %eax
	movl	%eax, %ecx
	movabsq	$.L.str.48, %r8
	xorl	%eax, %eax
	movl	%eax, %r9d
	movabsq	$.L.str.6, %rdx
	movl	-1012(%rbp), %eax       # 4-byte Reload
	movl	%eax, %r11d
	movl	%r11d, %r10d
	movq	%rdx, -1064(%rbp)       # 8-byte Spill
	movq	%r10, %rdx
	movq	-1064(%rbp), %r10       # 8-byte Reload
	movq	%r10, (%rsp)
	callq	trace_logger_log_int
	movl	$1, %eax
	movl	%eax, %ecx
	movl	$32, %eax
	movl	%eax, %esi
	movabsq	$.L.str.49, %r8
	xorl	%eax, %eax
	movl	%eax, %r9d
	movabsq	$.L.str.6, %rdx
	movl	-1052(%rbp), %eax       # 4-byte Reload
	movl	%eax, %r11d
	movl	%r11d, %edi
	movq	%rdi, -1072(%rbp)       # 8-byte Spill
	movq	%rcx, %rdi
	movq	-1072(%rbp), %r10       # 8-byte Reload
	movq	%rdx, -1080(%rbp)       # 8-byte Spill
	movq	%r10, %rdx
	movq	-1080(%rbp), %rbx       # 8-byte Reload
	movq	%rbx, (%rsp)
	callq	trace_logger_log_int
	movl	$19134, %eax            # imm = 0x4ABE
	movl	%eax, %edi
	movl	$32, %eax
	movl	%eax, %esi
	movl	$1, %eax
	movl	%eax, %ecx
	movabsq	$.L.str.50, %r8
	xorl	%eax, %eax
	movl	%eax, %r9d
	movabsq	$.L.str.6, %rdx
	movl	-1052(%rbp), %eax       # 4-byte Reload
	movl	-1012(%rbp), %r11d      # 4-byte Reload
	addl	%r11d, %eax
.Ltmp29:
	.loc	1 20 71                 # md.c:20:71
	movl	%eax, %r15d
	movl	%r15d, %r10d
	movq	%rdx, -1088(%rbp)       # 8-byte Spill
	movq	%r10, %rdx
	movq	-1088(%rbp), %r10       # 8-byte Reload
	movq	%r10, (%rsp)
	movl	%eax, -1092(%rbp)       # 4-byte Spill
	callq	trace_logger_log_int
	movl	$44, %eax
	movl	%eax, %edi
	movabsq	$.L.str.2, %rsi
	movabsq	$.L.str.22, %rdx
	movabsq	$.L.str.51, %rcx
	movl	$15, %eax
	movl	%eax, %r8d
	movl	$1, %r9d
.Ltmp30:
	#DEBUG_VALUE: md:t2 <- [DW_OP_constu 1092, DW_OP_minus] [%rbp+0]
	#DEBUG_VALUE: md:r2inv <- [DW_OP_constu 1092, DW_OP_minus] [%rbp+0]
	.loc	1 44 26                 # md.c:44:26
	movl	$1, (%rsp)
	callq	trace_logger_log0
	movl	$2, %eax
	movl	%eax, %edi
	movl	$32, %eax
	movl	%eax, %esi
	movl	$1, %eax
	movl	%eax, %ecx
	movabsq	$.L.str.50, %r8
	xorl	%eax, %eax
	movl	%eax, %r9d
	movabsq	$.L.str.6, %rdx
	movl	-1092(%rbp), %eax       # 4-byte Reload
	movl	%eax, %r11d
	movl	%r11d, %r10d
	movq	%rdx, -1104(%rbp)       # 8-byte Spill
	movq	%r10, %rdx
	movq	-1104(%rbp), %r10       # 8-byte Reload
	movq	%r10, (%rsp)
	callq	trace_logger_log_int
	movl	$1, %eax
	movl	%eax, %ecx
	movl	$32, %eax
	movl	%eax, %esi
	movabsq	$.L.str.50, %r8
	xorl	%eax, %eax
	movl	%eax, %r9d
	movabsq	$.L.str.6, %rdx
	movl	-1092(%rbp), %eax       # 4-byte Reload
	movl	%eax, %r11d
	movl	%r11d, %edi
	movq	%rdi, -1112(%rbp)       # 8-byte Spill
	movq	%rcx, %rdi
	movq	-1112(%rbp), %r10       # 8-byte Reload
	movq	%rdx, -1120(%rbp)       # 8-byte Spill
	movq	%r10, %rdx
	movq	-1120(%rbp), %rbx       # 8-byte Reload
	movq	%rbx, (%rsp)
	callq	trace_logger_log_int
	movl	$19134, %eax            # imm = 0x4ABE
	movl	%eax, %edi
	movl	$32, %eax
	movl	%eax, %esi
	movl	$1, %eax
	movl	%eax, %ecx
	movabsq	$.L.str.51, %r8
	xorl	%eax, %eax
	movl	%eax, %r9d
	movabsq	$.L.str.6, %rdx
	movl	-1092(%rbp), %eax       # 4-byte Reload
	imull	%eax, %eax
	.loc	1 44 34 is_stmt 0       # md.c:44:34
	movl	%eax, %r11d
	movl	%r11d, %r10d
	movq	%rdx, -1128(%rbp)       # 8-byte Spill
	movq	%r10, %rdx
	movq	-1128(%rbp), %r10       # 8-byte Reload
	movq	%r10, (%rsp)
	movl	%eax, -1132(%rbp)       # 4-byte Spill
	callq	trace_logger_log_int
	movl	$44, %eax
	movl	%eax, %edi
	movabsq	$.L.str.2, %rsi
	movabsq	$.L.str.22, %rdx
	movabsq	$.L.str.52, %rcx
	movl	$15, %eax
	movl	%eax, %r8d
	movl	$1, %r9d
	movl	$1, (%rsp)
	callq	trace_logger_log0
	movl	$2, %eax
	movl	%eax, %edi
	movl	$32, %eax
	movl	%eax, %esi
	movl	$1, %eax
	movl	%eax, %ecx
	movabsq	$.L.str.50, %r8
	xorl	%eax, %eax
	movl	%eax, %r9d
	movabsq	$.L.str.6, %rdx
	movl	-1092(%rbp), %eax       # 4-byte Reload
	movl	%eax, %r11d
	movl	%r11d, %r10d
	movq	%rdx, -1144(%rbp)       # 8-byte Spill
	movq	%r10, %rdx
	movq	-1144(%rbp), %r10       # 8-byte Reload
	movq	%r10, (%rsp)
	callq	trace_logger_log_int
	movl	$1, %eax
	movl	%eax, %ecx
	movl	$32, %eax
	movl	%eax, %esi
	movabsq	$.L.str.51, %r8
	xorl	%eax, %eax
	movl	%eax, %r9d
	movabsq	$.L.str.6, %rdx
	movl	-1132(%rbp), %eax       # 4-byte Reload
	movl	%eax, %r11d
	movl	%r11d, %edi
	movq	%rdi, -1152(%rbp)       # 8-byte Spill
	movq	%rcx, %rdi
	movq	-1152(%rbp), %r10       # 8-byte Reload
	movq	%rdx, -1160(%rbp)       # 8-byte Spill
	movq	%r10, %rdx
	movq	-1160(%rbp), %rbx       # 8-byte Reload
	movq	%rbx, (%rsp)
	callq	trace_logger_log_int
	movl	$19134, %eax            # imm = 0x4ABE
	movl	%eax, %edi
	movl	$32, %eax
	movl	%eax, %esi
	movl	$1, %eax
	movl	%eax, %ecx
	movabsq	$.L.str.52, %r8
	xorl	%eax, %eax
	movl	%eax, %r9d
	movabsq	$.L.str.6, %rdx
	movl	-1132(%rbp), %eax       # 4-byte Reload
	movl	-1092(%rbp), %r11d      # 4-byte Reload
	imull	%r11d, %eax
	.loc	1 44 12                 # md.c:44:12
	movl	%eax, %r15d
	movl	%r15d, %r10d
	movq	%rdx, -1168(%rbp)       # 8-byte Spill
	movq	%r10, %rdx
	movq	-1168(%rbp), %r10       # 8-byte Reload
	movq	%r10, (%rsp)
	movl	%eax, -1172(%rbp)       # 4-byte Spill
	callq	trace_logger_log_int
	movl	$45, %eax
	movl	%eax, %edi
	movabsq	$.L.str.2, %rsi
	movabsq	$.L.str.22, %rdx
	movabsq	$.L.str.53, %rcx
	movl	$15, %eax
	movl	%eax, %r8d
	movl	$1, %r9d
.Ltmp31:
	#DEBUG_VALUE: r6inv <- [DW_OP_constu 1172, DW_OP_minus] [%rbp+0]
	.loc	1 45 25 is_stmt 1       # md.c:45:25
	movl	$1, (%rsp)
	callq	trace_logger_log0
	movl	$2, %eax
	movl	%eax, %edi
	movl	$32, %eax
	movl	%eax, %esi
	movl	$1, %eax
	movl	%eax, %ecx
	movabsq	$.L.str.50, %r8
	xorl	%eax, %eax
	movl	%eax, %r9d
	movabsq	$.L.str.6, %rdx
	movl	-1092(%rbp), %eax       # 4-byte Reload
	movl	%eax, %r11d
	movl	%r11d, %r10d
	movq	%rdx, -1184(%rbp)       # 8-byte Spill
	movq	%r10, %rdx
	movq	-1184(%rbp), %r10       # 8-byte Reload
	movq	%r10, (%rsp)
	callq	trace_logger_log_int
	movl	$1, %eax
	movl	%eax, %ecx
	movl	$32, %eax
	movl	%eax, %esi
	movabsq	$.L.str.52, %r8
	xorl	%eax, %eax
	movl	%eax, %r9d
	movabsq	$.L.str.6, %rdx
	movl	-1172(%rbp), %eax       # 4-byte Reload
	movl	%eax, %r11d
	movl	%r11d, %edi
	movq	%rdi, -1192(%rbp)       # 8-byte Spill
	movq	%rcx, %rdi
	movq	-1192(%rbp), %r10       # 8-byte Reload
	movq	%rdx, -1200(%rbp)       # 8-byte Spill
	movq	%r10, %rdx
	movq	-1200(%rbp), %rbx       # 8-byte Reload
	movq	%rbx, (%rsp)
	callq	trace_logger_log_int
	movl	$19134, %eax            # imm = 0x4ABE
	movl	%eax, %edi
	movl	$32, %eax
	movl	%eax, %esi
	movl	$1, %eax
	movl	%eax, %ecx
	movabsq	$.L.str.53, %r8
	xorl	%eax, %eax
	movl	%eax, %r9d
	movabsq	$.L.str.6, %rdx
	movl	-1172(%rbp), %eax       # 4-byte Reload
	movl	-1092(%rbp), %r11d      # 4-byte Reload
	imull	%r11d, %eax
	.loc	1 45 36 is_stmt 0       # md.c:45:36
	movl	%eax, %r15d
	movl	%r15d, %r10d
	movq	%rdx, -1208(%rbp)       # 8-byte Spill
	movq	%r10, %rdx
	movq	-1208(%rbp), %r10       # 8-byte Reload
	movq	%r10, (%rsp)
	movl	%eax, -1212(%rbp)       # 4-byte Spill
	callq	trace_logger_log_int
	movl	$45, %eax
	movl	%eax, %edi
	movabsq	$.L.str.2, %rsi
	movabsq	$.L.str.22, %rdx
	movabsq	$.L.str.54, %rcx
	movl	$15, %eax
	movl	%eax, %r8d
	movl	$1, %r9d
	movl	$1, (%rsp)
	callq	trace_logger_log0
	movl	$2, %eax
	movl	%eax, %edi
	movl	$32, %eax
	movl	%eax, %esi
	movl	$15, %eax
	movl	%eax, %edx
	xorl	%eax, %eax
	movl	%eax, %ecx
	movabsq	$.L.str.10, %r8
	movabsq	$.L.str.6, %r10
	movq	%rcx, -1224(%rbp)       # 8-byte Spill
	movq	-1224(%rbp), %r9        # 8-byte Reload
	movq	%r10, (%rsp)
	callq	trace_logger_log_int
	movl	$1, %eax
	movl	%eax, %ecx
	movl	$32, %eax
	movl	%eax, %esi
	movabsq	$.L.str.52, %r8
	xorl	%eax, %eax
	movl	%eax, %r9d
	movabsq	$.L.str.6, %rdx
	movl	-1172(%rbp), %eax       # 4-byte Reload
	movl	%eax, %r11d
	movl	%r11d, %edi
	movq	%rdi, -1232(%rbp)       # 8-byte Spill
	movq	%rcx, %rdi
	movq	-1232(%rbp), %r10       # 8-byte Reload
	movq	%rdx, -1240(%rbp)       # 8-byte Spill
	movq	%r10, %rdx
	movq	-1240(%rbp), %rbx       # 8-byte Reload
	movq	%rbx, (%rsp)
	callq	trace_logger_log_int
	movl	$19134, %eax            # imm = 0x4ABE
	movl	%eax, %edi
	movl	$32, %eax
	movl	%eax, %esi
	movl	$1, %eax
	movl	%eax, %ecx
	movabsq	$.L.str.54, %r8
	xorl	%eax, %eax
	movl	%eax, %r9d
	movabsq	$.L.str.6, %rdx
	movl	-1172(%rbp), %eax       # 4-byte Reload
	imull	$15, %eax, %r11d
	.loc	1 45 43                 # md.c:45:43
	movl	%r11d, %r15d
	movl	%r15d, %r10d
	movq	%rdx, -1248(%rbp)       # 8-byte Spill
	movq	%r10, %rdx
	movq	-1248(%rbp), %r10       # 8-byte Reload
	movq	%r10, (%rsp)
	movl	%r11d, -1252(%rbp)      # 4-byte Spill
	callq	trace_logger_log_int
	movl	$45, %eax
	movl	%eax, %edi
	movabsq	$.L.str.2, %rsi
	movabsq	$.L.str.22, %rdx
	movabsq	$.L.str.55, %rcx
	movl	$11, %eax
	movl	%eax, %r8d
	movl	$1, %r9d
	movl	$1, (%rsp)
	callq	trace_logger_log0
	movl	$2, %eax
	movl	%eax, %edi
	movl	$32, %eax
	movl	%eax, %esi
	movl	$4294967276, %eax       # imm = 0xFFFFFFEC
	movl	%eax, %edx
	xorl	%eax, %eax
	movl	%eax, %ecx
	movabsq	$.L.str.10, %r8
	movabsq	$.L.str.6, %r10
	movq	%rcx, -1264(%rbp)       # 8-byte Spill
	movq	-1264(%rbp), %r9        # 8-byte Reload
	movq	%r10, (%rsp)
	callq	trace_logger_log_int
	movl	$1, %eax
	movl	%eax, %ecx
	movl	$32, %eax
	movl	%eax, %esi
	movabsq	$.L.str.54, %r8
	xorl	%eax, %eax
	movl	%eax, %r9d
	movabsq	$.L.str.6, %rdx
	movl	-1252(%rbp), %eax       # 4-byte Reload
	movl	%eax, %r11d
	movl	%r11d, %edi
	movq	%rdi, -1272(%rbp)       # 8-byte Spill
	movq	%rcx, %rdi
	movq	-1272(%rbp), %r10       # 8-byte Reload
	movq	%rdx, -1280(%rbp)       # 8-byte Spill
	movq	%r10, %rdx
	movq	-1280(%rbp), %rbx       # 8-byte Reload
	movq	%rbx, (%rsp)
	callq	trace_logger_log_int
	movl	$19134, %eax            # imm = 0x4ABE
	movl	%eax, %edi
	movl	$32, %eax
	movl	%eax, %esi
	movl	$1, %eax
	movl	%eax, %ecx
	movabsq	$.L.str.55, %r8
	xorl	%eax, %eax
	movl	%eax, %r9d
	movabsq	$.L.str.6, %rdx
	movl	-1252(%rbp), %eax       # 4-byte Reload
	addl	$-20, %eax
	.loc	1 45 31                 # md.c:45:31
	movl	%eax, %r11d
	movl	%r11d, %r10d
	movq	%rdx, -1288(%rbp)       # 8-byte Spill
	movq	%r10, %rdx
	movq	-1288(%rbp), %r10       # 8-byte Reload
	movq	%r10, (%rsp)
	movl	%eax, -1292(%rbp)       # 4-byte Spill
	callq	trace_logger_log_int
	movl	$45, %eax
	movl	%eax, %edi
	movabsq	$.L.str.2, %rsi
	movabsq	$.L.str.22, %rdx
	movabsq	$.L.str.56, %rcx
	movl	$15, %eax
	movl	%eax, %r8d
	movl	$1, %r9d
	movl	$1, (%rsp)
	callq	trace_logger_log0
	movl	$2, %eax
	movl	%eax, %edi
	movl	$32, %eax
	movl	%eax, %esi
	movl	$1, %eax
	movl	%eax, %ecx
	movabsq	$.L.str.55, %r8
	xorl	%eax, %eax
	movl	%eax, %r9d
	movabsq	$.L.str.6, %rdx
	movl	-1292(%rbp), %eax       # 4-byte Reload
	movl	%eax, %r11d
	movl	%r11d, %r10d
	movq	%rdx, -1304(%rbp)       # 8-byte Spill
	movq	%r10, %rdx
	movq	-1304(%rbp), %r10       # 8-byte Reload
	movq	%r10, (%rsp)
	callq	trace_logger_log_int
	movl	$1, %eax
	movl	%eax, %ecx
	movl	$32, %eax
	movl	%eax, %esi
	movabsq	$.L.str.53, %r8
	xorl	%eax, %eax
	movl	%eax, %r9d
	movabsq	$.L.str.6, %rdx
	movl	-1212(%rbp), %eax       # 4-byte Reload
	movl	%eax, %r11d
	movl	%r11d, %edi
	movq	%rdi, -1312(%rbp)       # 8-byte Spill
	movq	%rcx, %rdi
	movq	-1312(%rbp), %r10       # 8-byte Reload
	movq	%rdx, -1320(%rbp)       # 8-byte Spill
	movq	%r10, %rdx
	movq	-1320(%rbp), %rbx       # 8-byte Reload
	movq	%rbx, (%rsp)
	callq	trace_logger_log_int
	movl	$19134, %eax            # imm = 0x4ABE
	movl	%eax, %edi
	movl	$32, %eax
	movl	%eax, %esi
	movl	$1, %eax
	movl	%eax, %ecx
	movabsq	$.L.str.56, %r8
	xorl	%eax, %eax
	movl	%eax, %r9d
	movabsq	$.L.str.6, %rdx
	movl	-1212(%rbp), %eax       # 4-byte Reload
	movl	-1292(%rbp), %r11d      # 4-byte Reload
	imull	%r11d, %eax
	.loc	1 45 12                 # md.c:45:12
	movl	%eax, %r15d
	movl	%r15d, %r10d
	movq	%rdx, -1328(%rbp)       # 8-byte Spill
	movq	%r10, %rdx
	movq	-1328(%rbp), %r10       # 8-byte Reload
	movq	%r10, (%rsp)
	movl	%eax, -1332(%rbp)       # 4-byte Spill
	callq	trace_logger_log_int
	movl	$46, %eax
	movl	%eax, %edi
	movabsq	$.L.str.2, %rsi
	movabsq	$.L.str.22, %rdx
	movabsq	$.L.str.57, %rcx
	movl	$15, %eax
	movl	%eax, %r8d
	movl	$1, %r9d
.Ltmp32:
	#DEBUG_VALUE: force <- [DW_OP_constu 1332, DW_OP_minus] [%rbp+0]
	.loc	1 46 18 is_stmt 1       # md.c:46:18
	movl	$1, (%rsp)
	callq	trace_logger_log0
	movl	$2, %eax
	movl	%eax, %edi
	movl	$32, %eax
	movl	%eax, %esi
	movl	$1, %eax
	movl	%eax, %ecx
	movabsq	$.L.str.43, %r8
	xorl	%eax, %eax
	movl	%eax, %r9d
	movabsq	$.L.str.6, %rdx
	movl	-812(%rbp), %eax        # 4-byte Reload
	movl	%eax, %r11d
	movl	%r11d, %r10d
	movq	%rdx, -1344(%rbp)       # 8-byte Spill
	movq	%r10, %rdx
	movq	-1344(%rbp), %r10       # 8-byte Reload
	movq	%r10, (%rsp)
	callq	trace_logger_log_int
	movl	$1, %eax
	movl	%eax, %ecx
	movl	$32, %eax
	movl	%eax, %esi
	movabsq	$.L.str.56, %r8
	xorl	%eax, %eax
	movl	%eax, %r9d
	movabsq	$.L.str.6, %rdx
	movl	-1332(%rbp), %eax       # 4-byte Reload
	movl	%eax, %r11d
	movl	%r11d, %edi
	movq	%rdi, -1352(%rbp)       # 8-byte Spill
	movq	%rcx, %rdi
	movq	-1352(%rbp), %r10       # 8-byte Reload
	movq	%rdx, -1360(%rbp)       # 8-byte Spill
	movq	%r10, %rdx
	movq	-1360(%rbp), %rbx       # 8-byte Reload
	movq	%rbx, (%rsp)
	callq	trace_logger_log_int
	movl	$19134, %eax            # imm = 0x4ABE
	movl	%eax, %edi
	movl	$32, %eax
	movl	%eax, %esi
	movl	$1, %eax
	movl	%eax, %ecx
	movabsq	$.L.str.57, %r8
	xorl	%eax, %eax
	movl	%eax, %r9d
	movabsq	$.L.str.6, %rdx
	movl	-1332(%rbp), %eax       # 4-byte Reload
	movl	-812(%rbp), %r11d       # 4-byte Reload
	imull	%r11d, %eax
	.loc	1 46 10 is_stmt 0       # md.c:46:10
	movl	%eax, %r15d
	movl	%r15d, %r10d
	movq	%rdx, -1368(%rbp)       # 8-byte Spill
	movq	%r10, %rdx
	movq	-1368(%rbp), %r10       # 8-byte Reload
	movq	%r10, (%rsp)
	movl	%eax, -1372(%rbp)       # 4-byte Spill
	callq	trace_logger_log_int
	movl	$46, %eax
	movl	%eax, %edi
	movabsq	$.L.str.2, %rsi
	movabsq	$.L.str.22, %rdx
	movabsq	$.L.str.26, %rcx
	movl	$11, %eax
	movl	%eax, %r8d
	movl	$1, %r9d
	movl	$1, (%rsp)
	callq	trace_logger_log0
	movl	$2, %eax
	movl	%eax, %edi
	movl	$32, %eax
	movl	%eax, %esi
	movl	$1, %eax
	movl	%eax, %ecx
	movabsq	$.L.str.25, %r8
	xorl	%eax, %eax
	movl	%eax, %r9d
	movabsq	$.L.str.6, %rdx
	movl	-324(%rbp), %eax        # 4-byte Reload
	movl	%eax, %r11d
	movl	%r11d, %r10d
	movq	%rdx, -1384(%rbp)       # 8-byte Spill
	movq	%r10, %rdx
	movq	-1384(%rbp), %r10       # 8-byte Reload
	movq	%r10, (%rsp)
	callq	trace_logger_log_int
	movl	$1, %eax
	movl	%eax, %ecx
	movl	$32, %eax
	movl	%eax, %esi
	movabsq	$.L.str.57, %r8
	xorl	%eax, %eax
	movl	%eax, %r9d
	movabsq	$.L.str.6, %rdx
	movl	-1372(%rbp), %eax       # 4-byte Reload
	movl	%eax, %r11d
	movl	%r11d, %edi
	movq	%rdi, -1392(%rbp)       # 8-byte Spill
	movq	%rcx, %rdi
	movq	-1392(%rbp), %r10       # 8-byte Reload
	movq	%rdx, -1400(%rbp)       # 8-byte Spill
	movq	%r10, %rdx
	movq	-1400(%rbp), %rbx       # 8-byte Reload
	movq	%rbx, (%rsp)
	callq	trace_logger_log_int
	movl	$19134, %eax            # imm = 0x4ABE
	movl	%eax, %edi
	movl	$32, %eax
	movl	%eax, %esi
	movl	$1, %eax
	movl	%eax, %ecx
	movabsq	$.L.str.26, %r8
	xorl	%eax, %eax
	movl	%eax, %r9d
	movabsq	$.L.str.6, %rdx
	movl	-1372(%rbp), %eax       # 4-byte Reload
	movl	-324(%rbp), %r11d       # 4-byte Reload
	addl	%r11d, %eax
	.loc	1 47 18 is_stmt 1       # md.c:47:18
	movl	%eax, %r15d
	movl	%r15d, %r10d
	movq	%rdx, -1408(%rbp)       # 8-byte Spill
	movq	%r10, %rdx
	movq	-1408(%rbp), %r10       # 8-byte Reload
	movq	%r10, (%rsp)
	movl	%eax, -1412(%rbp)       # 4-byte Spill
	callq	trace_logger_log_int
	movl	$47, %eax
	movl	%eax, %edi
	movabsq	$.L.str.2, %rsi
	movabsq	$.L.str.22, %rdx
	movabsq	$.L.str.58, %rcx
	movl	$15, %eax
	movl	%eax, %r8d
	movl	$1, %r9d
	movl	$1, (%rsp)
	callq	trace_logger_log0
	movl	$2, %eax
	movl	%eax, %edi
	movl	$32, %eax
	movl	%eax, %esi
	movl	$1, %eax
	movl	%eax, %ecx
	movabsq	$.L.str.44, %r8
	xorl	%eax, %eax
	movl	%eax, %r9d
	movabsq	$.L.str.6, %rdx
	movl	-852(%rbp), %eax        # 4-byte Reload
	movl	%eax, %r11d
	movl	%r11d, %r10d
	movq	%rdx, -1424(%rbp)       # 8-byte Spill
	movq	%r10, %rdx
	movq	-1424(%rbp), %r10       # 8-byte Reload
	movq	%r10, (%rsp)
	callq	trace_logger_log_int
	movl	$1, %eax
	movl	%eax, %ecx
	movl	$32, %eax
	movl	%eax, %esi
	movabsq	$.L.str.56, %r8
	xorl	%eax, %eax
	movl	%eax, %r9d
	movabsq	$.L.str.6, %rdx
	movl	-1332(%rbp), %eax       # 4-byte Reload
	movl	%eax, %r11d
	movl	%r11d, %edi
	movq	%rdi, -1432(%rbp)       # 8-byte Spill
	movq	%rcx, %rdi
	movq	-1432(%rbp), %r10       # 8-byte Reload
	movq	%rdx, -1440(%rbp)       # 8-byte Spill
	movq	%r10, %rdx
	movq	-1440(%rbp), %rbx       # 8-byte Reload
	movq	%rbx, (%rsp)
	callq	trace_logger_log_int
	movl	$19134, %eax            # imm = 0x4ABE
	movl	%eax, %edi
	movl	$32, %eax
	movl	%eax, %esi
	movl	$1, %eax
	movl	%eax, %ecx
	movabsq	$.L.str.58, %r8
	xorl	%eax, %eax
	movl	%eax, %r9d
	movabsq	$.L.str.6, %rdx
	movl	-1332(%rbp), %eax       # 4-byte Reload
	movl	-852(%rbp), %r11d       # 4-byte Reload
	imull	%r11d, %eax
	.loc	1 47 10 is_stmt 0       # md.c:47:10
	movl	%eax, %r15d
	movl	%r15d, %r10d
	movq	%rdx, -1448(%rbp)       # 8-byte Spill
	movq	%r10, %rdx
	movq	-1448(%rbp), %r10       # 8-byte Reload
	movq	%r10, (%rsp)
	movl	%eax, -1452(%rbp)       # 4-byte Spill
	callq	trace_logger_log_int
	movl	$47, %eax
	movl	%eax, %edi
	movabsq	$.L.str.2, %rsi
	movabsq	$.L.str.22, %rdx
	movabsq	$.L.str.29, %rcx
	movl	$11, %eax
	movl	%eax, %r8d
	movl	$1, %r9d
	movl	$1, (%rsp)
	callq	trace_logger_log0
	movl	$2, %eax
	movl	%eax, %edi
	movl	$32, %eax
	movl	%eax, %esi
	movl	$1, %eax
	movl	%eax, %ecx
	movabsq	$.L.str.28, %r8
	xorl	%eax, %eax
	movl	%eax, %r9d
	movabsq	$.L.str.6, %rdx
	movl	-328(%rbp), %eax        # 4-byte Reload
	movl	%eax, %r11d
	movl	%r11d, %r10d
	movq	%rdx, -1464(%rbp)       # 8-byte Spill
	movq	%r10, %rdx
	movq	-1464(%rbp), %r10       # 8-byte Reload
	movq	%r10, (%rsp)
	callq	trace_logger_log_int
	movl	$1, %eax
	movl	%eax, %ecx
	movl	$32, %eax
	movl	%eax, %esi
	movabsq	$.L.str.58, %r8
	xorl	%eax, %eax
	movl	%eax, %r9d
	movabsq	$.L.str.6, %rdx
	movl	-1452(%rbp), %eax       # 4-byte Reload
	movl	%eax, %r11d
	movl	%r11d, %edi
	movq	%rdi, -1472(%rbp)       # 8-byte Spill
	movq	%rcx, %rdi
	movq	-1472(%rbp), %r10       # 8-byte Reload
	movq	%rdx, -1480(%rbp)       # 8-byte Spill
	movq	%r10, %rdx
	movq	-1480(%rbp), %rbx       # 8-byte Reload
	movq	%rbx, (%rsp)
	callq	trace_logger_log_int
	movl	$19134, %eax            # imm = 0x4ABE
	movl	%eax, %edi
	movl	$32, %eax
	movl	%eax, %esi
	movl	$1, %eax
	movl	%eax, %ecx
	movabsq	$.L.str.29, %r8
	xorl	%eax, %eax
	movl	%eax, %r9d
	movabsq	$.L.str.6, %rdx
	movl	-1452(%rbp), %eax       # 4-byte Reload
	movl	-328(%rbp), %r11d       # 4-byte Reload
	addl	%r11d, %eax
	.loc	1 48 18 is_stmt 1       # md.c:48:18
	movl	%eax, %r15d
	movl	%r15d, %r10d
	movq	%rdx, -1488(%rbp)       # 8-byte Spill
	movq	%r10, %rdx
	movq	-1488(%rbp), %r10       # 8-byte Reload
	movq	%r10, (%rsp)
	movl	%eax, -1492(%rbp)       # 4-byte Spill
	callq	trace_logger_log_int
	movl	$48, %eax
	movl	%eax, %edi
	movabsq	$.L.str.2, %rsi
	movabsq	$.L.str.22, %rdx
	movabsq	$.L.str.59, %rcx
	movl	$15, %eax
	movl	%eax, %r8d
	movl	$1, %r9d
	movl	$1, (%rsp)
	callq	trace_logger_log0
	movl	$2, %eax
	movl	%eax, %edi
	movl	$32, %eax
	movl	%eax, %esi
	movl	$1, %eax
	movl	%eax, %ecx
	movabsq	$.L.str.45, %r8
	xorl	%eax, %eax
	movl	%eax, %r9d
	movabsq	$.L.str.6, %rdx
	movl	-892(%rbp), %eax        # 4-byte Reload
	movl	%eax, %r11d
	movl	%r11d, %r10d
	movq	%rdx, -1504(%rbp)       # 8-byte Spill
	movq	%r10, %rdx
	movq	-1504(%rbp), %r10       # 8-byte Reload
	movq	%r10, (%rsp)
	callq	trace_logger_log_int
	movl	$1, %eax
	movl	%eax, %ecx
	movl	$32, %eax
	movl	%eax, %esi
	movabsq	$.L.str.56, %r8
	xorl	%eax, %eax
	movl	%eax, %r9d
	movabsq	$.L.str.6, %rdx
	movl	-1332(%rbp), %eax       # 4-byte Reload
	movl	%eax, %r11d
	movl	%r11d, %edi
	movq	%rdi, -1512(%rbp)       # 8-byte Spill
	movq	%rcx, %rdi
	movq	-1512(%rbp), %r10       # 8-byte Reload
	movq	%rdx, -1520(%rbp)       # 8-byte Spill
	movq	%r10, %rdx
	movq	-1520(%rbp), %rbx       # 8-byte Reload
	movq	%rbx, (%rsp)
	callq	trace_logger_log_int
	movl	$19134, %eax            # imm = 0x4ABE
	movl	%eax, %edi
	movl	$32, %eax
	movl	%eax, %esi
	movl	$1, %eax
	movl	%eax, %ecx
	movabsq	$.L.str.59, %r8
	xorl	%eax, %eax
	movl	%eax, %r9d
	movabsq	$.L.str.6, %rdx
	movl	-1332(%rbp), %eax       # 4-byte Reload
	movl	-892(%rbp), %r11d       # 4-byte Reload
	imull	%r11d, %eax
	.loc	1 48 10 is_stmt 0       # md.c:48:10
	movl	%eax, %r15d
	movl	%r15d, %r10d
	movq	%rdx, -1528(%rbp)       # 8-byte Spill
	movq	%r10, %rdx
	movq	-1528(%rbp), %r10       # 8-byte Reload
	movq	%r10, (%rsp)
	movl	%eax, -1532(%rbp)       # 4-byte Spill
	callq	trace_logger_log_int
	movl	$48, %eax
	movl	%eax, %edi
	movabsq	$.L.str.2, %rsi
	movabsq	$.L.str.22, %rdx
	movabsq	$.L.str.31, %rcx
	movl	$11, %eax
	movl	%eax, %r8d
	movl	$1, %r9d
	movl	$1, (%rsp)
	callq	trace_logger_log0
	movl	$2, %eax
	movl	%eax, %edi
	movl	$32, %eax
	movl	%eax, %esi
	movl	$1, %eax
	movl	%eax, %ecx
	movabsq	$.L.str.30, %r8
	xorl	%eax, %eax
	movl	%eax, %r9d
	movabsq	$.L.str.6, %rdx
	movl	-332(%rbp), %eax        # 4-byte Reload
	movl	%eax, %r11d
	movl	%r11d, %r10d
	movq	%rdx, -1544(%rbp)       # 8-byte Spill
	movq	%r10, %rdx
	movq	-1544(%rbp), %r10       # 8-byte Reload
	movq	%r10, (%rsp)
	callq	trace_logger_log_int
	movl	$1, %eax
	movl	%eax, %ecx
	movl	$32, %eax
	movl	%eax, %esi
	movabsq	$.L.str.59, %r8
	xorl	%eax, %eax
	movl	%eax, %r9d
	movabsq	$.L.str.6, %rdx
	movl	-1532(%rbp), %eax       # 4-byte Reload
	movl	%eax, %r11d
	movl	%r11d, %edi
	movq	%rdi, -1552(%rbp)       # 8-byte Spill
	movq	%rcx, %rdi
	movq	-1552(%rbp), %r10       # 8-byte Reload
	movq	%rdx, -1560(%rbp)       # 8-byte Spill
	movq	%r10, %rdx
	movq	-1560(%rbp), %rbx       # 8-byte Reload
	movq	%rbx, (%rsp)
	callq	trace_logger_log_int
	movl	$19134, %eax            # imm = 0x4ABE
	movl	%eax, %edi
	movl	$32, %eax
	movl	%eax, %esi
	movl	$1, %eax
	movl	%eax, %ecx
	movabsq	$.L.str.31, %r8
	xorl	%eax, %eax
	movl	%eax, %r9d
	movabsq	$.L.str.6, %rdx
	movl	-1532(%rbp), %eax       # 4-byte Reload
	movl	-332(%rbp), %r11d       # 4-byte Reload
	addl	%r11d, %eax
.Ltmp33:
	.loc	1 29 45 is_stmt 1       # md.c:29:45
	movl	%eax, %r15d
	movl	%r15d, %r10d
	movq	%rdx, -1568(%rbp)       # 8-byte Spill
	movq	%r10, %rdx
	movq	-1568(%rbp), %r10       # 8-byte Reload
	movq	%r10, (%rsp)
	movl	%eax, -1572(%rbp)       # 4-byte Spill
	callq	trace_logger_log_int
	movl	$29, %eax
	movl	%eax, %edi
	movabsq	$.L.str.2, %rsi
	movabsq	$.L.str.22, %rdx
	movabsq	$.L.str.24, %rcx
	movl	$11, %eax
	movl	%eax, %r8d
	movl	$1, %r9d
	movl	$1, (%rsp)
	callq	trace_logger_log0
	movl	$2, %eax
	movl	%eax, %edi
	movl	$64, %eax
	movl	%eax, %esi
	movl	$1, %eax
	movl	%eax, %edx
	xorl	%eax, %eax
	movl	%eax, %ecx
	movabsq	$.L.str.10, %r8
	movabsq	$.L.str.6, %r10
	movq	%rcx, -1584(%rbp)       # 8-byte Spill
	movq	-1584(%rbp), %r9        # 8-byte Reload
	movq	%r10, (%rsp)
	callq	trace_logger_log_int
	movl	$1, %eax
	movl	%eax, %ecx
	movl	$64, %eax
	movl	%eax, %esi
	movabsq	$.L.str.23, %r8
	xorl	%eax, %eax
	movl	%eax, %r9d
	movabsq	$.L.str.6, %rdx
	movq	%rcx, %rdi
	movq	-320(%rbp), %r10        # 8-byte Reload
	movq	%rdx, -1592(%rbp)       # 8-byte Spill
	movq	%r10, %rdx
	movq	-1592(%rbp), %rbx       # 8-byte Reload
	movq	%rbx, (%rsp)
	callq	trace_logger_log_int
	movl	$19134, %eax            # imm = 0x4ABE
	movl	%eax, %edi
	movl	$64, %eax
	movl	%eax, %esi
	movl	$1, %eax
	movl	%eax, %ecx
	movabsq	$.L.str.24, %r8
	xorl	%eax, %eax
	movl	%eax, %r9d
	movabsq	$.L.str.6, %rdx
	movq	-320(%rbp), %r10        # 8-byte Reload
	addq	$1, %r10
.Ltmp34:
	.loc	1 26 10                 # md.c:26:10
	movq	%rdx, -1600(%rbp)       # 8-byte Spill
	movq	%r10, %rdx
	movq	-1600(%rbp), %rbx       # 8-byte Reload
	movq	%rbx, (%rsp)
	movq	%r10, -1608(%rbp)       # 8-byte Spill
	callq	trace_logger_log_int
	movl	$29, %eax
	movl	%eax, %edi
	movabsq	$.L.str.2, %rsi
	movabsq	$.L.str.22, %rdx
	movabsq	$.L.str.60, %rcx
	movl	$51, %eax
	movl	%eax, %r8d
	movl	$1, %r9d
.Ltmp35:
	#DEBUG_VALUE: fx <- [DW_OP_constu 1412, DW_OP_minus] [%rbp+0]
	#DEBUG_VALUE: fy <- [DW_OP_constu 1492, DW_OP_minus] [%rbp+0]
	#DEBUG_VALUE: fz <- [DW_OP_constu 1572, DW_OP_minus] [%rbp+0]
	.loc	1 29 28                 # md.c:29:28
	movl	$1, (%rsp)
	callq	trace_logger_log0
	movl	$2, %eax
	movl	%eax, %edi
	movl	$64, %eax
	movl	%eax, %esi
	movl	$32, %eax
	movl	%eax, %edx
	xorl	%eax, %eax
	movl	%eax, %ecx
	movabsq	$.L.str.10, %r8
	movabsq	$.L.str.6, %r10
	movq	%rcx, -1616(%rbp)       # 8-byte Spill
	movq	-1616(%rbp), %r9        # 8-byte Reload
	movq	%r10, (%rsp)
	callq	trace_logger_log_int
	movl	$1, %eax
	movl	%eax, %ecx
	movl	$64, %eax
	movl	%eax, %esi
	movabsq	$.L.str.24, %r8
	xorl	%eax, %eax
	movl	%eax, %r9d
	movabsq	$.L.str.6, %rdx
	movq	%rcx, %rdi
	movq	-1608(%rbp), %r10       # 8-byte Reload
	movq	%rdx, -1624(%rbp)       # 8-byte Spill
	movq	%r10, %rdx
	movq	-1624(%rbp), %rbx       # 8-byte Reload
	movq	%rbx, (%rsp)
	callq	trace_logger_log_int
	movl	$19134, %eax            # imm = 0x4ABE
	movl	%eax, %edi
	movl	$1, %eax
	movl	%eax, %ecx
	movabsq	$.L.str.60, %r8
	xorl	%eax, %eax
	movl	%eax, %r9d
	movabsq	$.L.str.6, %rdx
	movq	-1608(%rbp), %rsi       # 8-byte Reload
	cmpq	$32, %rsi
	sete	%r12b
.Ltmp36:
	.loc	1 29 14 is_stmt 0       # md.c:29:14
	movb	%r12b, %r13b
	andb	$1, %r13b
	movzbl	%r13b, %eax
	movl	%eax, %r10d
	movq	%rcx, %rsi
	movq	%rdx, -1632(%rbp)       # 8-byte Spill
	movq	%r10, %rdx
	movq	-1632(%rbp), %r10       # 8-byte Reload
	movq	%r10, (%rsp)
	movb	%r12b, -1633(%rbp)      # 1-byte Spill
	callq	trace_logger_log_int
	movl	$29, %eax
	movl	%eax, %edi
	movabsq	$.L.str.2, %rsi
	movabsq	$.L.str.22, %rdx
	movabsq	$.L.str.61, %rcx
	movl	$2, %eax
	movl	%eax, %r8d
	movl	$1, %r9d
	movl	$1, (%rsp)
	callq	trace_logger_log0
	movl	$3, %eax
	movl	%eax, %edi
	xorl	%eax, %eax
	movl	%eax, %ecx
	movl	$1, %eax
	movl	%eax, %edx
	movabsq	$.L.str.9, %r8
	movabsq	$.L.str.6, %rsi
	movq	%rsi, -1648(%rbp)       # 8-byte Spill
	movq	%rcx, %rsi
	movq	%rdx, -1656(%rbp)       # 8-byte Spill
	movq	%rcx, %rdx
	movq	-1656(%rbp), %r10       # 8-byte Reload
	movq	%rcx, -1664(%rbp)       # 8-byte Spill
	movq	%r10, %rcx
	movq	-1664(%rbp), %r9        # 8-byte Reload
	movq	-1648(%rbp), %rbx       # 8-byte Reload
	movq	%rbx, (%rsp)
	callq	trace_logger_log_int
	movl	$2, %eax
	movl	%eax, %edi
	xorl	%eax, %eax
	movl	%eax, %ecx
	movl	$1, %eax
	movl	%eax, %edx
	movabsq	$.L.str.22, %r8
	movabsq	$.L.str.6, %rsi
	movq	%rsi, -1672(%rbp)       # 8-byte Spill
	movq	%rcx, %rsi
	movq	%rdx, -1680(%rbp)       # 8-byte Spill
	movq	%rcx, %rdx
	movq	-1680(%rbp), %r9        # 8-byte Reload
	movq	%rcx, -1688(%rbp)       # 8-byte Spill
	movq	%r9, %rcx
	movq	-1688(%rbp), %r9        # 8-byte Reload
	movq	-1672(%rbp), %r10       # 8-byte Reload
	movq	%r10, (%rsp)
	callq	trace_logger_log_int
	movl	$1, %eax
	movl	%eax, %ecx
	movabsq	$.L.str.60, %r8
	xorl	%eax, %eax
	movl	%eax, %r9d
	movabsq	$.L.str.6, %rdx
	movb	-1633(%rbp), %r12b      # 1-byte Reload
	andb	$1, %r12b
	movzbl	%r12b, %eax
	movl	%eax, %esi
	movq	%rcx, %rdi
	movq	%rsi, -1696(%rbp)       # 8-byte Spill
	movq	%rcx, %rsi
	movq	-1696(%rbp), %r10       # 8-byte Reload
	movq	%rdx, -1704(%rbp)       # 8-byte Spill
	movq	%r10, %rdx
	movq	-1704(%rbp), %rbx       # 8-byte Reload
	movq	%rbx, (%rsp)
	callq	trace_logger_log_int
	movb	-1633(%rbp), %r12b      # 1-byte Reload
	testb	$1, %r12b
	movq	-1608(%rbp), %rcx       # 8-byte Reload
	movl	-1412(%rbp), %eax       # 4-byte Reload
	movl	-1492(%rbp), %r11d      # 4-byte Reload
	movl	-1572(%rbp), %r15d      # 4-byte Reload
	movq	%rcx, -304(%rbp)        # 8-byte Spill
	movl	%eax, -308(%rbp)        # 4-byte Spill
	movl	%r11d, -292(%rbp)       # 4-byte Spill
	movl	%r15d, -312(%rbp)       # 4-byte Spill
	jne	.LBB0_3
	jmp	.LBB0_2
.Ltmp37:
.LBB0_3:                                #   in Loop: Header=BB0_1 Depth=1
	#DEBUG_VALUE: md:r2inv <- [DW_OP_constu 1092, DW_OP_minus] [%rbp+0]
	#DEBUG_VALUE: md:t2 <- [DW_OP_constu 1092, DW_OP_minus] [%rbp+0]
	#DEBUG_VALUE: md:t1 <- [DW_OP_constu 1052, DW_OP_minus] [%rbp+0]
	#DEBUG_VALUE: md:r2invTEMP3 <- [DW_OP_constu 1012, DW_OP_minus] [%rbp+0]
	#DEBUG_VALUE: md:r2invTEMP2 <- [DW_OP_constu 972, DW_OP_minus] [%rbp+0]
	#DEBUG_VALUE: md:r2invTEMP <- [DW_OP_constu 932, DW_OP_minus] [%rbp+0]
	#DEBUG_VALUE: md:delz <- [DW_OP_constu 892, DW_OP_minus] [%rbp+0]
	#DEBUG_VALUE: md:dely <- [DW_OP_constu 852, DW_OP_minus] [%rbp+0]
	#DEBUG_VALUE: md:delx <- [DW_OP_constu 812, DW_OP_minus] [%rbp+0]
	#DEBUG_VALUE: md:jidx <- [DW_OP_constu 556, DW_OP_minus] [%rbp+0]
	#DEBUG_VALUE: md:j <- [DW_OP_constu 320, DW_OP_minus] [%rbp+0]
	#DEBUG_VALUE: fx <- [DW_OP_constu 324, DW_OP_minus] [%rbp+0]
	#DEBUG_VALUE: fy <- [DW_OP_constu 328, DW_OP_minus] [%rbp+0]
	#DEBUG_VALUE: fz <- [DW_OP_constu 332, DW_OP_minus] [%rbp+0]
	#DEBUG_VALUE: i_z <- [DW_OP_constu 244, DW_OP_minus] [%rbp+0]
	#DEBUG_VALUE: i_y <- [DW_OP_constu 212, DW_OP_minus] [%rbp+0]
	#DEBUG_VALUE: i_x <- [DW_OP_constu 180, DW_OP_minus] [%rbp+0]
	#DEBUG_VALUE: md:i <- [DW_OP_constu 136, DW_OP_minus] [%rbp+0]
	#DEBUG_VALUE: md:NL <- [DW_OP_constu 80, DW_OP_minus] [%rbp+0]
	#DEBUG_VALUE: md:position_z <- [DW_OP_constu 88, DW_OP_minus] [%rbp+0]
	#DEBUG_VALUE: md:position_y <- [DW_OP_constu 96, DW_OP_minus] [%rbp+0]
	#DEBUG_VALUE: md:position_x <- [DW_OP_constu 72, DW_OP_minus] [%rbp+0]
	#DEBUG_VALUE: md:d_force_z <- [DW_OP_constu 64, DW_OP_minus] [%rbp+0]
	#DEBUG_VALUE: md:d_force_y <- [DW_OP_constu 56, DW_OP_minus] [%rbp+0]
	#DEBUG_VALUE: md:d_force_x <- [DW_OP_constu 48, DW_OP_minus] [%rbp+0]
	.loc	1 0 14                  # md.c:0:14
	movl	$50, %eax
	movl	%eax, %edi
	movabsq	$.L.str.2, %rsi
	movabsq	$.L.str.9, %rdx
	movabsq	$.L.str.62, %rcx
	movl	$32, %eax
	movl	%eax, %r8d
	movl	$1, %r9d
	.loc	1 50 5 is_stmt 1        # md.c:50:5
	movl	$1, (%rsp)
	callq	trace_logger_log0
	movl	$2, %eax
	movl	%eax, %edi
	movl	$64, %eax
	movl	%eax, %esi
	movl	$1, %eax
	movl	%eax, %ecx
	movabsq	$.L.str.7, %r8
	xorl	%eax, %eax
	movl	%eax, %r9d
	movabsq	$.L.str.6, %rdx
	movq	-136(%rbp), %r10        # 8-byte Reload
	movq	%rdx, -1712(%rbp)       # 8-byte Spill
	movq	%r10, %rdx
	movq	-1712(%rbp), %r11       # 8-byte Reload
	movq	%r11, (%rsp)
	callq	trace_logger_log_int
	movl	$1, %eax
	movl	%eax, %ecx
	movl	$64, %eax
	movl	%eax, %esi
	movabsq	$.L.str.63, %r8
	xorl	%eax, %eax
	movl	%eax, %r9d
	movabsq	$.L.str.6, %rdx
	movq	%rcx, %rdi
	movq	-48(%rbp), %r10         # 8-byte Reload
	movq	%rdx, -1720(%rbp)       # 8-byte Spill
	movq	%r10, %rdx
	movq	-1720(%rbp), %r11       # 8-byte Reload
	movq	%r11, (%rsp)
	callq	trace_logger_log_ptr
	movl	$19134, %eax            # imm = 0x4ABE
	movl	%eax, %edi
	movl	$64, %eax
	movl	%eax, %esi
	movl	$1, %eax
	movl	%eax, %ecx
	movabsq	$.L.str.62, %r8
	xorl	%eax, %eax
	movl	%eax, %r9d
	movabsq	$.L.str.6, %rdx
	movq	-136(%rbp), %r10        # 8-byte Reload
	shlq	$2, %r10
	movq	-48(%rbp), %r11         # 8-byte Reload
	addq	%r10, %r11
	.loc	1 50 18 is_stmt 0       # md.c:50:18
	movq	%rdx, -1728(%rbp)       # 8-byte Spill
	movq	%r11, %rdx
	movq	-1728(%rbp), %r10       # 8-byte Reload
	movq	%r10, (%rsp)
	movq	%r11, -1736(%rbp)       # 8-byte Spill
	callq	trace_logger_log_ptr
	movl	$50, %eax
	movl	%eax, %edi
	movabsq	$.L.str.2, %rsi
	movabsq	$.L.str.9, %rdx
	movabsq	$.L.str.64, %rcx
	movl	$31, %eax
	movl	%eax, %r8d
	movl	$1, %r9d
	movl	$1, (%rsp)
	callq	trace_logger_log0
	movl	$2, %eax
	movl	%eax, %edi
	movl	$64, %eax
	movl	%eax, %esi
	movl	$1, %eax
	movl	%eax, %ecx
	movabsq	$.L.str.62, %r8
	xorl	%eax, %eax
	movl	%eax, %r9d
	movabsq	$.L.str.6, %rdx
	movq	-1736(%rbp), %r10       # 8-byte Reload
	movq	%rdx, -1744(%rbp)       # 8-byte Spill
	movq	%r10, %rdx
	movq	-1744(%rbp), %r11       # 8-byte Reload
	movq	%r11, (%rsp)
	callq	trace_logger_log_ptr
	movl	$1, %eax
	movl	%eax, %ecx
	movl	$32, %eax
	movl	%eax, %esi
	movabsq	$.L.str.26, %r8
	xorl	%eax, %eax
	movl	%eax, %r9d
	movabsq	$.L.str.6, %rdx
	movl	-1412(%rbp), %eax       # 4-byte Reload
	movl	%eax, %ebx
	movl	%ebx, %edi
	movq	%rdi, -1752(%rbp)       # 8-byte Spill
	movq	%rcx, %rdi
	movq	-1752(%rbp), %r10       # 8-byte Reload
	movq	%rdx, -1760(%rbp)       # 8-byte Spill
	movq	%r10, %rdx
	movq	-1760(%rbp), %r11       # 8-byte Reload
	movq	%r11, (%rsp)
	callq	trace_logger_log_int
	movl	$51, %eax
	movl	%eax, %edi
	movabsq	$.L.str.2, %rsi
	movabsq	$.L.str.9, %rdx
	movabsq	$.L.str.65, %rcx
	movl	$32, %eax
	movl	%eax, %r8d
	movl	$1, %r9d
	movq	-48(%rbp), %r10         # 8-byte Reload
	movq	-136(%rbp), %r11        # 8-byte Reload
	movl	-1412(%rbp), %eax       # 4-byte Reload
	movl	%eax, (%r10,%r11,4)
	.loc	1 51 5 is_stmt 1        # md.c:51:5
	movl	$1, (%rsp)
	callq	trace_logger_log0
	movl	$2, %eax
	movl	%eax, %edi
	movl	$64, %eax
	movl	%eax, %esi
	movl	$1, %eax
	movl	%eax, %ecx
	movabsq	$.L.str.7, %r8
	xorl	%eax, %eax
	movl	%eax, %r9d
	movabsq	$.L.str.6, %rdx
	movq	-136(%rbp), %r10        # 8-byte Reload
	movq	%rdx, -1768(%rbp)       # 8-byte Spill
	movq	%r10, %rdx
	movq	-1768(%rbp), %r11       # 8-byte Reload
	movq	%r11, (%rsp)
	callq	trace_logger_log_int
	movl	$1, %eax
	movl	%eax, %ecx
	movl	$64, %eax
	movl	%eax, %esi
	movabsq	$.L.str.66, %r8
	xorl	%eax, %eax
	movl	%eax, %r9d
	movabsq	$.L.str.6, %rdx
	movq	%rcx, %rdi
	movq	-56(%rbp), %r10         # 8-byte Reload
	movq	%rdx, -1776(%rbp)       # 8-byte Spill
	movq	%r10, %rdx
	movq	-1776(%rbp), %r11       # 8-byte Reload
	movq	%r11, (%rsp)
	callq	trace_logger_log_ptr
	movl	$19134, %eax            # imm = 0x4ABE
	movl	%eax, %edi
	movl	$64, %eax
	movl	%eax, %esi
	movl	$1, %eax
	movl	%eax, %ecx
	movabsq	$.L.str.65, %r8
	xorl	%eax, %eax
	movl	%eax, %r9d
	movabsq	$.L.str.6, %rdx
	movq	-136(%rbp), %r10        # 8-byte Reload
	shlq	$2, %r10
	movq	-56(%rbp), %r11         # 8-byte Reload
	addq	%r10, %r11
	.loc	1 51 18 is_stmt 0       # md.c:51:18
	movq	%rdx, -1784(%rbp)       # 8-byte Spill
	movq	%r11, %rdx
	movq	-1784(%rbp), %r10       # 8-byte Reload
	movq	%r10, (%rsp)
	movq	%r11, -1792(%rbp)       # 8-byte Spill
	callq	trace_logger_log_ptr
	movl	$51, %eax
	movl	%eax, %edi
	movabsq	$.L.str.2, %rsi
	movabsq	$.L.str.9, %rdx
	movabsq	$.L.str.67, %rcx
	movl	$31, %eax
	movl	%eax, %r8d
	movl	$1, %r9d
	movl	$1, (%rsp)
	callq	trace_logger_log0
	movl	$2, %eax
	movl	%eax, %edi
	movl	$64, %eax
	movl	%eax, %esi
	movl	$1, %eax
	movl	%eax, %ecx
	movabsq	$.L.str.65, %r8
	xorl	%eax, %eax
	movl	%eax, %r9d
	movabsq	$.L.str.6, %rdx
	movq	-1792(%rbp), %r10       # 8-byte Reload
	movq	%rdx, -1800(%rbp)       # 8-byte Spill
	movq	%r10, %rdx
	movq	-1800(%rbp), %r11       # 8-byte Reload
	movq	%r11, (%rsp)
	callq	trace_logger_log_ptr
	movl	$1, %eax
	movl	%eax, %ecx
	movl	$32, %eax
	movl	%eax, %esi
	movabsq	$.L.str.29, %r8
	xorl	%eax, %eax
	movl	%eax, %r9d
	movabsq	$.L.str.6, %rdx
	movl	-1492(%rbp), %eax       # 4-byte Reload
	movl	%eax, %ebx
	movl	%ebx, %edi
	movq	%rdi, -1808(%rbp)       # 8-byte Spill
	movq	%rcx, %rdi
	movq	-1808(%rbp), %r10       # 8-byte Reload
	movq	%rdx, -1816(%rbp)       # 8-byte Spill
	movq	%r10, %rdx
	movq	-1816(%rbp), %r11       # 8-byte Reload
	movq	%r11, (%rsp)
	callq	trace_logger_log_int
	movl	$52, %eax
	movl	%eax, %edi
	movabsq	$.L.str.2, %rsi
	movabsq	$.L.str.9, %rdx
	movabsq	$.L.str.68, %rcx
	movl	$32, %eax
	movl	%eax, %r8d
	movl	$1, %r9d
	movq	-56(%rbp), %r10         # 8-byte Reload
	movq	-136(%rbp), %r11        # 8-byte Reload
	movl	-1492(%rbp), %eax       # 4-byte Reload
	movl	%eax, (%r10,%r11,4)
	.loc	1 52 5 is_stmt 1        # md.c:52:5
	movl	$1, (%rsp)
	callq	trace_logger_log0
	movl	$2, %eax
	movl	%eax, %edi
	movl	$64, %eax
	movl	%eax, %esi
	movl	$1, %eax
	movl	%eax, %ecx
	movabsq	$.L.str.7, %r8
	xorl	%eax, %eax
	movl	%eax, %r9d
	movabsq	$.L.str.6, %rdx
	movq	-136(%rbp), %r10        # 8-byte Reload
	movq	%rdx, -1824(%rbp)       # 8-byte Spill
	movq	%r10, %rdx
	movq	-1824(%rbp), %r11       # 8-byte Reload
	movq	%r11, (%rsp)
	callq	trace_logger_log_int
	movl	$1, %eax
	movl	%eax, %ecx
	movl	$64, %eax
	movl	%eax, %esi
	movabsq	$.L.str.69, %r8
	xorl	%eax, %eax
	movl	%eax, %r9d
	movabsq	$.L.str.6, %rdx
	movq	%rcx, %rdi
	movq	-64(%rbp), %r10         # 8-byte Reload
	movq	%rdx, -1832(%rbp)       # 8-byte Spill
	movq	%r10, %rdx
	movq	-1832(%rbp), %r11       # 8-byte Reload
	movq	%r11, (%rsp)
	callq	trace_logger_log_ptr
	movl	$19134, %eax            # imm = 0x4ABE
	movl	%eax, %edi
	movl	$64, %eax
	movl	%eax, %esi
	movl	$1, %eax
	movl	%eax, %ecx
	movabsq	$.L.str.68, %r8
	xorl	%eax, %eax
	movl	%eax, %r9d
	movabsq	$.L.str.6, %rdx
	movq	-136(%rbp), %r10        # 8-byte Reload
	shlq	$2, %r10
	movq	-64(%rbp), %r11         # 8-byte Reload
	addq	%r10, %r11
	.loc	1 52 18 is_stmt 0       # md.c:52:18
	movq	%rdx, -1840(%rbp)       # 8-byte Spill
	movq	%r11, %rdx
	movq	-1840(%rbp), %r10       # 8-byte Reload
	movq	%r10, (%rsp)
	movq	%r11, -1848(%rbp)       # 8-byte Spill
	callq	trace_logger_log_ptr
	movl	$52, %eax
	movl	%eax, %edi
	movabsq	$.L.str.2, %rsi
	movabsq	$.L.str.9, %rdx
	movabsq	$.L.str.70, %rcx
	movl	$31, %eax
	movl	%eax, %r8d
	movl	$1, %r9d
	movl	$1, (%rsp)
	callq	trace_logger_log0
	movl	$2, %eax
	movl	%eax, %edi
	movl	$64, %eax
	movl	%eax, %esi
	movl	$1, %eax
	movl	%eax, %ecx
	movabsq	$.L.str.68, %r8
	xorl	%eax, %eax
	movl	%eax, %r9d
	movabsq	$.L.str.6, %rdx
	movq	-1848(%rbp), %r10       # 8-byte Reload
	movq	%rdx, -1856(%rbp)       # 8-byte Spill
	movq	%r10, %rdx
	movq	-1856(%rbp), %r11       # 8-byte Reload
	movq	%r11, (%rsp)
	callq	trace_logger_log_ptr
	movl	$1, %eax
	movl	%eax, %ecx
	movl	$32, %eax
	movl	%eax, %esi
	movabsq	$.L.str.31, %r8
	xorl	%eax, %eax
	movl	%eax, %r9d
	movabsq	$.L.str.6, %rdx
	movl	-1572(%rbp), %eax       # 4-byte Reload
	movl	%eax, %ebx
	movl	%ebx, %edi
	movq	%rdi, -1864(%rbp)       # 8-byte Spill
	movq	%rcx, %rdi
	movq	-1864(%rbp), %r10       # 8-byte Reload
	movq	%rdx, -1872(%rbp)       # 8-byte Spill
	movq	%r10, %rdx
	movq	-1872(%rbp), %r11       # 8-byte Reload
	movq	%r11, (%rsp)
	callq	trace_logger_log_int
	movl	$21, %eax
	movl	%eax, %edi
	movabsq	$.L.str.2, %rsi
	movabsq	$.L.str.9, %rdx
	movabsq	$.L.str.8, %rcx
	movl	$11, %eax
	movl	%eax, %r8d
	movl	$1, %r9d
	movq	-64(%rbp), %r10         # 8-byte Reload
	movq	-136(%rbp), %r11        # 8-byte Reload
	movl	-1572(%rbp), %eax       # 4-byte Reload
	movl	%eax, (%r10,%r11,4)
.Ltmp38:
	.loc	1 21 36 is_stmt 1       # md.c:21:36
	movl	$1, (%rsp)
	callq	trace_logger_log0
	movl	$2, %eax
	movl	%eax, %edi
	movl	$64, %eax
	movl	%eax, %esi
	movl	$1, %eax
	movl	%eax, %edx
	xorl	%eax, %eax
	movl	%eax, %ecx
	movabsq	$.L.str.10, %r8
	movabsq	$.L.str.6, %r10
	movq	%rcx, -1880(%rbp)       # 8-byte Spill
	movq	-1880(%rbp), %r9        # 8-byte Reload
	movq	%r10, (%rsp)
	callq	trace_logger_log_int
	movl	$1, %eax
	movl	%eax, %ecx
	movl	$64, %eax
	movl	%eax, %esi
	movabsq	$.L.str.7, %r8
	xorl	%eax, %eax
	movl	%eax, %r9d
	movabsq	$.L.str.6, %rdx
	movq	%rcx, %rdi
	movq	-136(%rbp), %r10        # 8-byte Reload
	movq	%rdx, -1888(%rbp)       # 8-byte Spill
	movq	%r10, %rdx
	movq	-1888(%rbp), %r11       # 8-byte Reload
	movq	%r11, (%rsp)
	callq	trace_logger_log_int
	movl	$19134, %eax            # imm = 0x4ABE
	movl	%eax, %edi
	movl	$64, %eax
	movl	%eax, %esi
	movl	$1, %eax
	movl	%eax, %ecx
	movabsq	$.L.str.8, %r8
	xorl	%eax, %eax
	movl	%eax, %r9d
	movabsq	$.L.str.6, %rdx
	movq	-136(%rbp), %r10        # 8-byte Reload
	addq	$1, %r10
	.loc	1 21 25 is_stmt 0       # md.c:21:25
	movq	%rdx, -1896(%rbp)       # 8-byte Spill
	movq	%r10, %rdx
	movq	-1896(%rbp), %r11       # 8-byte Reload
	movq	%r11, (%rsp)
	movq	%r10, -1904(%rbp)       # 8-byte Spill
	callq	trace_logger_log_int
	movl	$21, %eax
	movl	%eax, %edi
	movabsq	$.L.str.2, %rsi
	movabsq	$.L.str.9, %rdx
	movabsq	$.L.str.71, %rcx
	movl	$51, %eax
	movl	%eax, %r8d
	movl	$1, %r9d
	movl	$1, (%rsp)
	callq	trace_logger_log0
	movl	$2, %eax
	movl	%eax, %edi
	movl	$64, %eax
	movl	%eax, %esi
	movl	$32, %eax
	movl	%eax, %edx
	xorl	%eax, %eax
	movl	%eax, %ecx
	movabsq	$.L.str.10, %r8
	movabsq	$.L.str.6, %r10
	movq	%rcx, -1912(%rbp)       # 8-byte Spill
	movq	-1912(%rbp), %r9        # 8-byte Reload
	movq	%r10, (%rsp)
	callq	trace_logger_log_int
	movl	$1, %eax
	movl	%eax, %ecx
	movl	$64, %eax
	movl	%eax, %esi
	movabsq	$.L.str.8, %r8
	xorl	%eax, %eax
	movl	%eax, %r9d
	movabsq	$.L.str.6, %rdx
	movq	%rcx, %rdi
	movq	-1904(%rbp), %r10       # 8-byte Reload
	movq	%rdx, -1920(%rbp)       # 8-byte Spill
	movq	%r10, %rdx
	movq	-1920(%rbp), %r11       # 8-byte Reload
	movq	%r11, (%rsp)
	callq	trace_logger_log_int
	movl	$19134, %eax            # imm = 0x4ABE
	movl	%eax, %edi
	movl	$1, %eax
	movl	%eax, %ecx
	movabsq	$.L.str.71, %r8
	xorl	%eax, %eax
	movl	%eax, %r9d
	movabsq	$.L.str.6, %rdx
	movq	-1904(%rbp), %rsi       # 8-byte Reload
	cmpq	$32, %rsi
	sete	%r14b
.Ltmp39:
	.loc	1 21 11                 # md.c:21:11
	movb	%r14b, %r15b
	andb	$1, %r15b
	movzbl	%r15b, %eax
	movl	%eax, %r10d
	movq	%rcx, %rsi
	movq	%rdx, -1928(%rbp)       # 8-byte Spill
	movq	%r10, %rdx
	movq	-1928(%rbp), %r10       # 8-byte Reload
	movq	%r10, (%rsp)
	movb	%r14b, -1929(%rbp)      # 1-byte Spill
	callq	trace_logger_log_int
	movl	$21, %eax
	movl	%eax, %edi
	movabsq	$.L.str.2, %rsi
	movabsq	$.L.str.9, %rdx
	movabsq	$.L.str.72, %rcx
	movl	$2, %eax
	movl	%eax, %r8d
	movl	$1, %r9d
	movl	$1, (%rsp)
	callq	trace_logger_log0
	movl	$3, %eax
	movl	%eax, %edi
	xorl	%eax, %eax
	movl	%eax, %ecx
	movl	$1, %eax
	movl	%eax, %edx
	movabsq	$.L.str.73, %r8
	movabsq	$.L.str.6, %rsi
	movq	%rsi, -1944(%rbp)       # 8-byte Spill
	movq	%rcx, %rsi
	movq	%rdx, -1952(%rbp)       # 8-byte Spill
	movq	%rcx, %rdx
	movq	-1952(%rbp), %r10       # 8-byte Reload
	movq	%rcx, -1960(%rbp)       # 8-byte Spill
	movq	%r10, %rcx
	movq	-1960(%rbp), %r9        # 8-byte Reload
	movq	-1944(%rbp), %r11       # 8-byte Reload
	movq	%r11, (%rsp)
	callq	trace_logger_log_int
	movl	$2, %eax
	movl	%eax, %edi
	xorl	%eax, %eax
	movl	%eax, %ecx
	movl	$1, %eax
	movl	%eax, %edx
	movabsq	$.L.str.5, %r8
	movabsq	$.L.str.6, %rsi
	movq	%rsi, -1968(%rbp)       # 8-byte Spill
	movq	%rcx, %rsi
	movq	%rdx, -1976(%rbp)       # 8-byte Spill
	movq	%rcx, %rdx
	movq	-1976(%rbp), %r9        # 8-byte Reload
	movq	%rcx, -1984(%rbp)       # 8-byte Spill
	movq	%r9, %rcx
	movq	-1984(%rbp), %r9        # 8-byte Reload
	movq	-1968(%rbp), %r10       # 8-byte Reload
	movq	%r10, (%rsp)
	callq	trace_logger_log_int
	movl	$1, %eax
	movl	%eax, %ecx
	movabsq	$.L.str.71, %r8
	xorl	%eax, %eax
	movl	%eax, %r9d
	movabsq	$.L.str.6, %rdx
	movb	-1929(%rbp), %r14b      # 1-byte Reload
	andb	$1, %r14b
	movzbl	%r14b, %eax
	movl	%eax, %esi
	movq	%rcx, %rdi
	movq	%rsi, -1992(%rbp)       # 8-byte Spill
	movq	%rcx, %rsi
	movq	-1992(%rbp), %r10       # 8-byte Reload
	movq	%rdx, -2000(%rbp)       # 8-byte Spill
	movq	%r10, %rdx
	movq	-2000(%rbp), %r11       # 8-byte Reload
	movq	%r11, (%rsp)
	callq	trace_logger_log_int
	movb	-1929(%rbp), %r14b      # 1-byte Reload
	testb	$1, %r14b
	movq	-1904(%rbp), %rcx       # 8-byte Reload
	movq	%rcx, -128(%rbp)        # 8-byte Spill
	jne	.LBB0_4
	jmp	.LBB0_1
.Ltmp40:
.LBB0_4:
	#DEBUG_VALUE: md:r2inv <- [DW_OP_constu 1092, DW_OP_minus] [%rbp+0]
	#DEBUG_VALUE: md:t2 <- [DW_OP_constu 1092, DW_OP_minus] [%rbp+0]
	#DEBUG_VALUE: md:t1 <- [DW_OP_constu 1052, DW_OP_minus] [%rbp+0]
	#DEBUG_VALUE: md:r2invTEMP3 <- [DW_OP_constu 1012, DW_OP_minus] [%rbp+0]
	#DEBUG_VALUE: md:r2invTEMP2 <- [DW_OP_constu 972, DW_OP_minus] [%rbp+0]
	#DEBUG_VALUE: md:r2invTEMP <- [DW_OP_constu 932, DW_OP_minus] [%rbp+0]
	#DEBUG_VALUE: md:delz <- [DW_OP_constu 892, DW_OP_minus] [%rbp+0]
	#DEBUG_VALUE: md:dely <- [DW_OP_constu 852, DW_OP_minus] [%rbp+0]
	#DEBUG_VALUE: md:delx <- [DW_OP_constu 812, DW_OP_minus] [%rbp+0]
	#DEBUG_VALUE: md:jidx <- [DW_OP_constu 556, DW_OP_minus] [%rbp+0]
	#DEBUG_VALUE: md:j <- [DW_OP_constu 320, DW_OP_minus] [%rbp+0]
	#DEBUG_VALUE: md:i <- [DW_OP_constu 136, DW_OP_minus] [%rbp+0]
	#DEBUG_VALUE: md:NL <- [DW_OP_constu 80, DW_OP_minus] [%rbp+0]
	#DEBUG_VALUE: md:position_z <- [DW_OP_constu 88, DW_OP_minus] [%rbp+0]
	#DEBUG_VALUE: md:position_y <- [DW_OP_constu 96, DW_OP_minus] [%rbp+0]
	#DEBUG_VALUE: md:position_x <- [DW_OP_constu 72, DW_OP_minus] [%rbp+0]
	#DEBUG_VALUE: md:d_force_z <- [DW_OP_constu 64, DW_OP_minus] [%rbp+0]
	#DEBUG_VALUE: md:d_force_y <- [DW_OP_constu 56, DW_OP_minus] [%rbp+0]
	#DEBUG_VALUE: md:d_force_x <- [DW_OP_constu 48, DW_OP_minus] [%rbp+0]
	.loc	1 0 11                  # md.c:0:11
	movl	$59, %eax
	movl	%eax, %edi
	movabsq	$.L.str.2, %rsi
	movabsq	$.L.str.73, %rdx
	movabsq	$.L.str.74, %rcx
	movl	$1, %eax
	movl	%eax, %r8d
	movl	$1, %r9d
	.loc	1 59 1 is_stmt 1        # md.c:59:1
	movl	$1, (%rsp)
	callq	trace_logger_log0
	movabsq	$.L.str.2, %rdi
	movl	$1, %eax
	movl	%eax, %esi
	movl	$1, %eax
	movl	%eax, %edx
	movl	%eax, %ecx
	callq	trace_logger_update_status
	addq	$1976, %rsp             # imm = 0x7B8
	popq	%rbx
	popq	%r12
	popq	%r13
	popq	%r14
	popq	%r15
	popq	%rbp
	retq
.Ltmp41:
.Lfunc_end0:
	.size	md, .Lfunc_end0-md
	.cfi_endproc
                                        # -- End function
	.globl	distance                # -- Begin function distance
	.p2align	4, 0x90
	.type	distance,@function
distance:                               # @distance
.Lfunc_begin1:
	.loc	1 67 0                  # md.c:67:0
	.cfi_startproc
# %bb.0:
	pushq	%rbp
	.cfi_def_cfa_offset 16
	.cfi_offset %rbp, -16
	movq	%rsp, %rbp
	.cfi_def_cfa_register %rbp
	pushq	%r15
	pushq	%r14
	pushq	%r13
	pushq	%r12
	pushq	%rbx
	subq	$888, %rsp              # imm = 0x378
	.cfi_offset %rbx, -56
	.cfi_offset %r12, -48
	.cfi_offset %r13, -40
	.cfi_offset %r14, -32
	.cfi_offset %r15, -24
	movl	$24601, %eax            # imm = 0x6019
	movl	%eax, %r9d
	movl	$64, %eax
	movl	%eax, %r10d
	movl	$1, %eax
	movl	%eax, %r11d
	movabsq	$.L.str.12, %rbx
	xorl	%eax, %eax
	movl	%eax, %r14d
	movabsq	$.L.str.6, %r15
.Ltmp42:
	.loc	1 62 8 prologue_end     # md.c:62:8
	movq	%rdi, -48(%rbp)         # 8-byte Spill
	movq	%r9, %rdi
	movq	%rsi, -56(%rbp)         # 8-byte Spill
	movq	%r10, %rsi
	movq	-48(%rbp), %r9          # 8-byte Reload
	movq	%rdx, -64(%rbp)         # 8-byte Spill
	movq	%r9, %rdx
	movl	%ecx, -68(%rbp)         # 4-byte Spill
	movq	%r11, %rcx
	movl	%r8d, -72(%rbp)         # 4-byte Spill
	movq	%rbx, %r8
	movq	%r14, %r9
	movq	%r15, (%rsp)
	callq	trace_logger_log_ptr
	movl	$24601, %eax            # imm = 0x6019
	movl	%eax, %edi
	movl	$64, %eax
	movl	%eax, %esi
	movl	$1, %eax
	movl	%eax, %ecx
	movabsq	$.L.str.15, %r8
	xorl	%eax, %eax
	movl	%eax, %r9d
	movabsq	$.L.str.6, %rdx
	movq	-56(%rbp), %r10         # 8-byte Reload
	movq	%rdx, -80(%rbp)         # 8-byte Spill
	movq	%r10, %rdx
	movq	-80(%rbp), %r11         # 8-byte Reload
	movq	%r11, (%rsp)
	callq	trace_logger_log_ptr
	movl	$24601, %eax            # imm = 0x6019
	movl	%eax, %edi
	movl	$64, %eax
	movl	%eax, %esi
	movl	$1, %eax
	movl	%eax, %ecx
	movabsq	$.L.str.18, %r8
	xorl	%eax, %eax
	movl	%eax, %r9d
	movabsq	$.L.str.6, %rdx
	movq	-64(%rbp), %r10         # 8-byte Reload
	movq	%rdx, -88(%rbp)         # 8-byte Spill
	movq	%r10, %rdx
	movq	-88(%rbp), %r11         # 8-byte Reload
	movq	%r11, (%rsp)
	callq	trace_logger_log_ptr
	movl	$24601, %eax            # imm = 0x6019
	movl	%eax, %edi
	movl	$32, %eax
	movl	%eax, %esi
	movl	$1, %eax
	movl	%eax, %ecx
	movabsq	$.L.str.27, %r8
	xorl	%eax, %eax
	movl	%eax, %r9d
	movabsq	$.L.str.6, %rdx
	movl	-68(%rbp), %eax         # 4-byte Reload
	movl	%eax, %r12d
	movl	%r12d, %r10d
	movq	%rdx, -96(%rbp)         # 8-byte Spill
	movq	%r10, %rdx
	movq	-96(%rbp), %r10         # 8-byte Reload
	movq	%r10, (%rsp)
	callq	trace_logger_log_int
	movl	$24601, %eax            # imm = 0x6019
	movl	%eax, %edi
	movl	$32, %eax
	movl	%eax, %esi
	movl	$1, %eax
	movl	%eax, %ecx
	movabsq	$.L.str.79, %r8
	xorl	%eax, %eax
	movl	%eax, %r9d
	movabsq	$.L.str.6, %rdx
	movl	-72(%rbp), %eax         # 4-byte Reload
	movl	%eax, %r12d
	movl	%r12d, %r10d
	movq	%rdx, -104(%rbp)        # 8-byte Spill
	movq	%r10, %rdx
	movq	-104(%rbp), %r10        # 8-byte Reload
	movq	%r10, (%rsp)
	callq	trace_logger_log_int
	movl	$69, %eax
	movl	%eax, %edi
	movabsq	$.L.str.75, %rsi
	movabsq	$.L.str.3, %rdx
	movabsq	$.L.str.76, %rcx
	movl	$38, %eax
	movl	%eax, %r8d
	xorl	%r9d, %r9d
	movl	$1, %eax
	#DEBUG_VALUE: distance:position_x <- [DW_OP_constu 48, DW_OP_minus] [%rbp+0]
	#DEBUG_VALUE: distance:position_y <- [DW_OP_constu 56, DW_OP_minus] [%rbp+0]
	#DEBUG_VALUE: distance:position_z <- [DW_OP_constu 64, DW_OP_minus] [%rbp+0]
	#DEBUG_VALUE: distance:i <- [DW_OP_constu 68, DW_OP_minus] [%rbp+0]
	#DEBUG_VALUE: distance:j <- [DW_OP_constu 72, DW_OP_minus] [%rbp+0]
	.loc	1 69 9                  # md.c:69:9
	movl	$1, (%rsp)
	movl	%eax, -108(%rbp)        # 4-byte Spill
	callq	trace_logger_log0
	movl	$1, %eax
	movl	%eax, %ecx
	movl	$32, %eax
	movl	%eax, %esi
	movabsq	$.L.str.27, %r8
	xorl	%eax, %eax
	movl	%eax, %r9d
	movabsq	$.L.str.6, %rdx
	movl	-68(%rbp), %eax         # 4-byte Reload
	movl	%eax, %r12d
	movl	%r12d, %edi
	movq	%rdi, -120(%rbp)        # 8-byte Spill
	movq	%rcx, %rdi
	movq	-120(%rbp), %r10        # 8-byte Reload
	movq	%rdx, -128(%rbp)        # 8-byte Spill
	movq	%r10, %rdx
	movq	-128(%rbp), %r11        # 8-byte Reload
	movq	%r11, (%rsp)
	callq	trace_logger_log_int
	movl	$19134, %eax            # imm = 0x4ABE
	movl	%eax, %edi
	movl	$64, %eax
	movl	%eax, %esi
	movl	$1, %eax
	movl	%eax, %ecx
	movabsq	$.L.str.76, %r8
	xorl	%eax, %eax
	movl	%eax, %r9d
	movabsq	$.L.str.6, %rdx
	movl	-68(%rbp), %eax         # 4-byte Reload
	movslq	%eax, %r10
	movq	%rdx, -136(%rbp)        # 8-byte Spill
	movq	%r10, %rdx
	movq	-136(%rbp), %r11        # 8-byte Reload
	movq	%r11, (%rsp)
	movq	%r10, -144(%rbp)        # 8-byte Spill
	callq	trace_logger_log_int
	movl	$69, %eax
	movl	%eax, %edi
	movabsq	$.L.str.75, %rsi
	movabsq	$.L.str.3, %rdx
	movabsq	$.L.str.11, %rcx
	movl	$32, %eax
	movl	%eax, %r8d
	xorl	%r9d, %r9d
	movl	$1, %eax
	movl	$1, (%rsp)
	movl	%eax, -148(%rbp)        # 4-byte Spill
	callq	trace_logger_log0
	movl	$2, %eax
	movl	%eax, %edi
	movl	$64, %eax
	movl	%eax, %esi
	movl	$1, %eax
	movl	%eax, %ecx
	movabsq	$.L.str.76, %r8
	xorl	%eax, %eax
	movl	%eax, %r9d
	movabsq	$.L.str.6, %rdx
	movq	-144(%rbp), %r10        # 8-byte Reload
	movq	%rdx, -160(%rbp)        # 8-byte Spill
	movq	%r10, %rdx
	movq	-160(%rbp), %r11        # 8-byte Reload
	movq	%r11, (%rsp)
	callq	trace_logger_log_int
	movl	$1, %eax
	movl	%eax, %ecx
	movl	$64, %eax
	movl	%eax, %esi
	movabsq	$.L.str.12, %r8
	xorl	%eax, %eax
	movl	%eax, %r9d
	movabsq	$.L.str.6, %rdx
	movq	%rcx, %rdi
	movq	-48(%rbp), %r10         # 8-byte Reload
	movq	%rdx, -168(%rbp)        # 8-byte Spill
	movq	%r10, %rdx
	movq	-168(%rbp), %r11        # 8-byte Reload
	movq	%r11, (%rsp)
	callq	trace_logger_log_ptr
	movl	$19134, %eax            # imm = 0x4ABE
	movl	%eax, %edi
	movl	$64, %eax
	movl	%eax, %esi
	movl	$1, %eax
	movl	%eax, %ecx
	movabsq	$.L.str.11, %r8
	xorl	%eax, %eax
	movl	%eax, %r9d
	movabsq	$.L.str.6, %rdx
	movq	-144(%rbp), %r10        # 8-byte Reload
	shlq	$2, %r10
	movq	-48(%rbp), %r11         # 8-byte Reload
	addq	%r10, %r11
	movq	%rdx, -176(%rbp)        # 8-byte Spill
	movq	%r11, %rdx
	movq	-176(%rbp), %r10        # 8-byte Reload
	movq	%r10, (%rsp)
	movq	%r11, -184(%rbp)        # 8-byte Spill
	callq	trace_logger_log_ptr
	movl	$69, %eax
	movl	%eax, %edi
	movabsq	$.L.str.75, %rsi
	movabsq	$.L.str.3, %rdx
	movabsq	$.L.str.77, %rcx
	movl	$30, %eax
	movl	%eax, %r8d
	xorl	%r9d, %r9d
	movl	$1, %eax
	movl	$1, (%rsp)
	movl	%eax, -188(%rbp)        # 4-byte Spill
	callq	trace_logger_log0
	movl	$1, %eax
	movl	%eax, %ecx
	movl	$64, %eax
	movl	%eax, %esi
	movabsq	$.L.str.11, %r8
	xorl	%eax, %eax
	movl	%eax, %r9d
	movabsq	$.L.str.6, %rdx
	movq	%rcx, %rdi
	movq	-184(%rbp), %r10        # 8-byte Reload
	movq	%rdx, -200(%rbp)        # 8-byte Spill
	movq	%r10, %rdx
	movq	-200(%rbp), %r11        # 8-byte Reload
	movq	%r11, (%rsp)
	callq	trace_logger_log_ptr
	movl	$19134, %eax            # imm = 0x4ABE
	movl	%eax, %edi
	movl	$32, %eax
	movl	%eax, %esi
	movl	$1, %eax
	movl	%eax, %ecx
	movabsq	$.L.str.77, %r8
	xorl	%eax, %eax
	movl	%eax, %r9d
	movabsq	$.L.str.6, %rdx
	movq	-48(%rbp), %r10         # 8-byte Reload
	movq	-144(%rbp), %r11        # 8-byte Reload
	movl	(%r10,%r11,4), %eax
	.loc	1 69 25 is_stmt 0       # md.c:69:25
	movl	%eax, %r12d
	movl	%r12d, %ebx
	movq	%rdx, -208(%rbp)        # 8-byte Spill
	movq	%rbx, %rdx
	movq	-208(%rbp), %rbx        # 8-byte Reload
	movq	%rbx, (%rsp)
	movl	%eax, -212(%rbp)        # 4-byte Spill
	callq	trace_logger_log_int
	movl	$69, %eax
	movl	%eax, %edi
	movabsq	$.L.str.75, %rsi
	movabsq	$.L.str.3, %rdx
	movabsq	$.L.str.78, %rcx
	movl	$38, %eax
	movl	%eax, %r8d
	xorl	%r9d, %r9d
	movl	$1, %eax
	movl	$1, (%rsp)
	movl	%eax, -216(%rbp)        # 4-byte Spill
	callq	trace_logger_log0
	movl	$1, %eax
	movl	%eax, %ecx
	movl	$32, %eax
	movl	%eax, %esi
	movabsq	$.L.str.79, %r8
	xorl	%eax, %eax
	movl	%eax, %r9d
	movabsq	$.L.str.6, %rdx
	movl	-72(%rbp), %eax         # 4-byte Reload
	movl	%eax, %r12d
	movl	%r12d, %edi
	movq	%rdi, -224(%rbp)        # 8-byte Spill
	movq	%rcx, %rdi
	movq	-224(%rbp), %r10        # 8-byte Reload
	movq	%rdx, -232(%rbp)        # 8-byte Spill
	movq	%r10, %rdx
	movq	-232(%rbp), %r11        # 8-byte Reload
	movq	%r11, (%rsp)
	callq	trace_logger_log_int
	movl	$19134, %eax            # imm = 0x4ABE
	movl	%eax, %edi
	movl	$64, %eax
	movl	%eax, %esi
	movl	$1, %eax
	movl	%eax, %ecx
	movabsq	$.L.str.78, %r8
	xorl	%eax, %eax
	movl	%eax, %r9d
	movabsq	$.L.str.6, %rdx
	movl	-72(%rbp), %eax         # 4-byte Reload
	movslq	%eax, %r10
	movq	%rdx, -240(%rbp)        # 8-byte Spill
	movq	%r10, %rdx
	movq	-240(%rbp), %r11        # 8-byte Reload
	movq	%r11, (%rsp)
	movq	%r10, -248(%rbp)        # 8-byte Spill
	callq	trace_logger_log_int
	movl	$69, %eax
	movl	%eax, %edi
	movabsq	$.L.str.75, %rsi
	movabsq	$.L.str.3, %rdx
	movabsq	$.L.str.14, %rcx
	movl	$32, %eax
	movl	%eax, %r8d
	xorl	%r9d, %r9d
	movl	$1, %eax
	movl	$1, (%rsp)
	movl	%eax, -252(%rbp)        # 4-byte Spill
	callq	trace_logger_log0
	movl	$2, %eax
	movl	%eax, %edi
	movl	$64, %eax
	movl	%eax, %esi
	movl	$1, %eax
	movl	%eax, %ecx
	movabsq	$.L.str.78, %r8
	xorl	%eax, %eax
	movl	%eax, %r9d
	movabsq	$.L.str.6, %rdx
	movq	-248(%rbp), %r10        # 8-byte Reload
	movq	%rdx, -264(%rbp)        # 8-byte Spill
	movq	%r10, %rdx
	movq	-264(%rbp), %r11        # 8-byte Reload
	movq	%r11, (%rsp)
	callq	trace_logger_log_int
	movl	$1, %eax
	movl	%eax, %ecx
	movl	$64, %eax
	movl	%eax, %esi
	movabsq	$.L.str.12, %r8
	xorl	%eax, %eax
	movl	%eax, %r9d
	movabsq	$.L.str.6, %rdx
	movq	%rcx, %rdi
	movq	-48(%rbp), %r10         # 8-byte Reload
	movq	%rdx, -272(%rbp)        # 8-byte Spill
	movq	%r10, %rdx
	movq	-272(%rbp), %r11        # 8-byte Reload
	movq	%r11, (%rsp)
	callq	trace_logger_log_ptr
	movl	$19134, %eax            # imm = 0x4ABE
	movl	%eax, %edi
	movl	$64, %eax
	movl	%eax, %esi
	movl	$1, %eax
	movl	%eax, %ecx
	movabsq	$.L.str.14, %r8
	xorl	%eax, %eax
	movl	%eax, %r9d
	movabsq	$.L.str.6, %rdx
	movq	-248(%rbp), %r10        # 8-byte Reload
	shlq	$2, %r10
	movq	-48(%rbp), %r11         # 8-byte Reload
	addq	%r10, %r11
	movq	%rdx, -280(%rbp)        # 8-byte Spill
	movq	%r11, %rdx
	movq	-280(%rbp), %r10        # 8-byte Reload
	movq	%r10, (%rsp)
	movq	%r11, -288(%rbp)        # 8-byte Spill
	callq	trace_logger_log_ptr
	movl	$69, %eax
	movl	%eax, %edi
	movabsq	$.L.str.75, %rsi
	movabsq	$.L.str.3, %rdx
	movabsq	$.L.str.80, %rcx
	movl	$30, %eax
	movl	%eax, %r8d
	xorl	%r9d, %r9d
	movl	$1, %eax
	movl	$1, (%rsp)
	movl	%eax, -292(%rbp)        # 4-byte Spill
	callq	trace_logger_log0
	movl	$1, %eax
	movl	%eax, %ecx
	movl	$64, %eax
	movl	%eax, %esi
	movabsq	$.L.str.14, %r8
	xorl	%eax, %eax
	movl	%eax, %r9d
	movabsq	$.L.str.6, %rdx
	movq	%rcx, %rdi
	movq	-288(%rbp), %r10        # 8-byte Reload
	movq	%rdx, -304(%rbp)        # 8-byte Spill
	movq	%r10, %rdx
	movq	-304(%rbp), %r11        # 8-byte Reload
	movq	%r11, (%rsp)
	callq	trace_logger_log_ptr
	movl	$19134, %eax            # imm = 0x4ABE
	movl	%eax, %edi
	movl	$32, %eax
	movl	%eax, %esi
	movl	$1, %eax
	movl	%eax, %ecx
	movabsq	$.L.str.80, %r8
	xorl	%eax, %eax
	movl	%eax, %r9d
	movabsq	$.L.str.6, %rdx
	movq	-48(%rbp), %r10         # 8-byte Reload
	movq	-248(%rbp), %r11        # 8-byte Reload
	movl	(%r10,%r11,4), %eax
	.loc	1 69 23                 # md.c:69:23
	movl	%eax, %r12d
	movl	%r12d, %ebx
	movq	%rdx, -312(%rbp)        # 8-byte Spill
	movq	%rbx, %rdx
	movq	-312(%rbp), %rbx        # 8-byte Reload
	movq	%rbx, (%rsp)
	movl	%eax, -316(%rbp)        # 4-byte Spill
	callq	trace_logger_log_int
	movl	$69, %eax
	movl	%eax, %edi
	movabsq	$.L.str.75, %rsi
	movabsq	$.L.str.3, %rdx
	movabsq	$.L.str.43, %rcx
	movl	$13, %eax
	movl	%eax, %r8d
	xorl	%r9d, %r9d
	movl	$1, %eax
	movl	$1, (%rsp)
	movl	%eax, -320(%rbp)        # 4-byte Spill
	callq	trace_logger_log0
	movl	$2, %eax
	movl	%eax, %edi
	movl	$32, %eax
	movl	%eax, %esi
	movl	$1, %eax
	movl	%eax, %ecx
	movabsq	$.L.str.80, %r8
	xorl	%eax, %eax
	movl	%eax, %r9d
	movabsq	$.L.str.6, %rdx
	movl	-316(%rbp), %eax        # 4-byte Reload
	movl	%eax, %r12d
	movl	%r12d, %r10d
	movq	%rdx, -328(%rbp)        # 8-byte Spill
	movq	%r10, %rdx
	movq	-328(%rbp), %r10        # 8-byte Reload
	movq	%r10, (%rsp)
	callq	trace_logger_log_int
	movl	$1, %eax
	movl	%eax, %ecx
	movl	$32, %eax
	movl	%eax, %esi
	movabsq	$.L.str.77, %r8
	xorl	%eax, %eax
	movl	%eax, %r9d
	movabsq	$.L.str.6, %rdx
	movl	-212(%rbp), %eax        # 4-byte Reload
	movl	%eax, %r12d
	movl	%r12d, %edi
	movq	%rdi, -336(%rbp)        # 8-byte Spill
	movq	%rcx, %rdi
	movq	-336(%rbp), %r10        # 8-byte Reload
	movq	%rdx, -344(%rbp)        # 8-byte Spill
	movq	%r10, %rdx
	movq	-344(%rbp), %r11        # 8-byte Reload
	movq	%r11, (%rsp)
	callq	trace_logger_log_int
	movl	$19134, %eax            # imm = 0x4ABE
	movl	%eax, %edi
	movl	$32, %eax
	movl	%eax, %esi
	movl	$1, %eax
	movl	%eax, %ecx
	movabsq	$.L.str.43, %r8
	xorl	%eax, %eax
	movl	%eax, %r9d
	movabsq	$.L.str.6, %rdx
	movl	-212(%rbp), %eax        # 4-byte Reload
	movl	-316(%rbp), %r12d       # 4-byte Reload
	subl	%r12d, %eax
	.loc	1 68 7 is_stmt 1        # md.c:68:7
	movl	%eax, %r13d
	movl	%r13d, %r10d
	movq	%rdx, -352(%rbp)        # 8-byte Spill
	movq	%r10, %rdx
	movq	-352(%rbp), %r10        # 8-byte Reload
	movq	%r10, (%rsp)
	movl	%eax, -356(%rbp)        # 4-byte Spill
	callq	trace_logger_log_int
	movl	$70, %eax
	movl	%eax, %edi
	movabsq	$.L.str.75, %rsi
	movabsq	$.L.str.3, %rdx
	movabsq	$.L.str.17, %rcx
	movl	$32, %eax
	movl	%eax, %r8d
	xorl	%r9d, %r9d
	movl	$1, %eax
.Ltmp43:
	#DEBUG_VALUE: distance:delx <- [DW_OP_constu 356, DW_OP_minus] [%rbp+0]
	.loc	1 70 9                  # md.c:70:9
	movl	$1, (%rsp)
	movl	%eax, -360(%rbp)        # 4-byte Spill
	callq	trace_logger_log0
	movl	$2, %eax
	movl	%eax, %edi
	movl	$64, %eax
	movl	%eax, %esi
	movl	$1, %eax
	movl	%eax, %ecx
	movabsq	$.L.str.76, %r8
	xorl	%eax, %eax
	movl	%eax, %r9d
	movabsq	$.L.str.6, %rdx
	movq	-144(%rbp), %r10        # 8-byte Reload
	movq	%rdx, -368(%rbp)        # 8-byte Spill
	movq	%r10, %rdx
	movq	-368(%rbp), %r11        # 8-byte Reload
	movq	%r11, (%rsp)
	callq	trace_logger_log_int
	movl	$1, %eax
	movl	%eax, %ecx
	movl	$64, %eax
	movl	%eax, %esi
	movabsq	$.L.str.15, %r8
	xorl	%eax, %eax
	movl	%eax, %r9d
	movabsq	$.L.str.6, %rdx
	movq	%rcx, %rdi
	movq	-56(%rbp), %r10         # 8-byte Reload
	movq	%rdx, -376(%rbp)        # 8-byte Spill
	movq	%r10, %rdx
	movq	-376(%rbp), %r11        # 8-byte Reload
	movq	%r11, (%rsp)
	callq	trace_logger_log_ptr
	movl	$19134, %eax            # imm = 0x4ABE
	movl	%eax, %edi
	movl	$64, %eax
	movl	%eax, %esi
	movl	$1, %eax
	movl	%eax, %ecx
	movabsq	$.L.str.17, %r8
	xorl	%eax, %eax
	movl	%eax, %r9d
	movabsq	$.L.str.6, %rdx
	movq	-144(%rbp), %r10        # 8-byte Reload
	shlq	$2, %r10
	movq	-56(%rbp), %r11         # 8-byte Reload
	addq	%r10, %r11
	movq	%rdx, -384(%rbp)        # 8-byte Spill
	movq	%r11, %rdx
	movq	-384(%rbp), %r10        # 8-byte Reload
	movq	%r10, (%rsp)
	movq	%r11, -392(%rbp)        # 8-byte Spill
	callq	trace_logger_log_ptr
	movl	$70, %eax
	movl	%eax, %edi
	movabsq	$.L.str.75, %rsi
	movabsq	$.L.str.3, %rdx
	movabsq	$.L.str.81, %rcx
	movl	$30, %eax
	movl	%eax, %r8d
	xorl	%r9d, %r9d
	movl	$1, %eax
	movl	$1, (%rsp)
	movl	%eax, -396(%rbp)        # 4-byte Spill
	callq	trace_logger_log0
	movl	$1, %eax
	movl	%eax, %ecx
	movl	$64, %eax
	movl	%eax, %esi
	movabsq	$.L.str.17, %r8
	xorl	%eax, %eax
	movl	%eax, %r9d
	movabsq	$.L.str.6, %rdx
	movq	%rcx, %rdi
	movq	-392(%rbp), %r10        # 8-byte Reload
	movq	%rdx, -408(%rbp)        # 8-byte Spill
	movq	%r10, %rdx
	movq	-408(%rbp), %r11        # 8-byte Reload
	movq	%r11, (%rsp)
	callq	trace_logger_log_ptr
	movl	$19134, %eax            # imm = 0x4ABE
	movl	%eax, %edi
	movl	$32, %eax
	movl	%eax, %esi
	movl	$1, %eax
	movl	%eax, %ecx
	movabsq	$.L.str.81, %r8
	xorl	%eax, %eax
	movl	%eax, %r9d
	movabsq	$.L.str.6, %rdx
	movq	-56(%rbp), %r10         # 8-byte Reload
	movq	-144(%rbp), %r11        # 8-byte Reload
	movl	(%r10,%r11,4), %eax
	.loc	1 70 25 is_stmt 0       # md.c:70:25
	movl	%eax, %r12d
	movl	%r12d, %ebx
	movq	%rdx, -416(%rbp)        # 8-byte Spill
	movq	%rbx, %rdx
	movq	-416(%rbp), %rbx        # 8-byte Reload
	movq	%rbx, (%rsp)
	movl	%eax, -420(%rbp)        # 4-byte Spill
	callq	trace_logger_log_int
	movl	$70, %eax
	movl	%eax, %edi
	movabsq	$.L.str.75, %rsi
	movabsq	$.L.str.3, %rdx
	movabsq	$.L.str.82, %rcx
	movl	$32, %eax
	movl	%eax, %r8d
	xorl	%r9d, %r9d
	movl	$1, %eax
	movl	$1, (%rsp)
	movl	%eax, -424(%rbp)        # 4-byte Spill
	callq	trace_logger_log0
	movl	$2, %eax
	movl	%eax, %edi
	movl	$64, %eax
	movl	%eax, %esi
	movl	$1, %eax
	movl	%eax, %ecx
	movabsq	$.L.str.78, %r8
	xorl	%eax, %eax
	movl	%eax, %r9d
	movabsq	$.L.str.6, %rdx
	movq	-248(%rbp), %r10        # 8-byte Reload
	movq	%rdx, -432(%rbp)        # 8-byte Spill
	movq	%r10, %rdx
	movq	-432(%rbp), %r11        # 8-byte Reload
	movq	%r11, (%rsp)
	callq	trace_logger_log_int
	movl	$1, %eax
	movl	%eax, %ecx
	movl	$64, %eax
	movl	%eax, %esi
	movabsq	$.L.str.15, %r8
	xorl	%eax, %eax
	movl	%eax, %r9d
	movabsq	$.L.str.6, %rdx
	movq	%rcx, %rdi
	movq	-56(%rbp), %r10         # 8-byte Reload
	movq	%rdx, -440(%rbp)        # 8-byte Spill
	movq	%r10, %rdx
	movq	-440(%rbp), %r11        # 8-byte Reload
	movq	%r11, (%rsp)
	callq	trace_logger_log_ptr
	movl	$19134, %eax            # imm = 0x4ABE
	movl	%eax, %edi
	movl	$64, %eax
	movl	%eax, %esi
	movl	$1, %eax
	movl	%eax, %ecx
	movabsq	$.L.str.82, %r8
	xorl	%eax, %eax
	movl	%eax, %r9d
	movabsq	$.L.str.6, %rdx
	movq	-248(%rbp), %r10        # 8-byte Reload
	shlq	$2, %r10
	movq	-56(%rbp), %r11         # 8-byte Reload
	addq	%r10, %r11
	movq	%rdx, -448(%rbp)        # 8-byte Spill
	movq	%r11, %rdx
	movq	-448(%rbp), %r10        # 8-byte Reload
	movq	%r10, (%rsp)
	movq	%r11, -456(%rbp)        # 8-byte Spill
	callq	trace_logger_log_ptr
	movl	$70, %eax
	movl	%eax, %edi
	movabsq	$.L.str.75, %rsi
	movabsq	$.L.str.3, %rdx
	movabsq	$.L.str.83, %rcx
	movl	$30, %eax
	movl	%eax, %r8d
	xorl	%r9d, %r9d
	movl	$1, %eax
	movl	$1, (%rsp)
	movl	%eax, -460(%rbp)        # 4-byte Spill
	callq	trace_logger_log0
	movl	$1, %eax
	movl	%eax, %ecx
	movl	$64, %eax
	movl	%eax, %esi
	movabsq	$.L.str.82, %r8
	xorl	%eax, %eax
	movl	%eax, %r9d
	movabsq	$.L.str.6, %rdx
	movq	%rcx, %rdi
	movq	-456(%rbp), %r10        # 8-byte Reload
	movq	%rdx, -472(%rbp)        # 8-byte Spill
	movq	%r10, %rdx
	movq	-472(%rbp), %r11        # 8-byte Reload
	movq	%r11, (%rsp)
	callq	trace_logger_log_ptr
	movl	$19134, %eax            # imm = 0x4ABE
	movl	%eax, %edi
	movl	$32, %eax
	movl	%eax, %esi
	movl	$1, %eax
	movl	%eax, %ecx
	movabsq	$.L.str.83, %r8
	xorl	%eax, %eax
	movl	%eax, %r9d
	movabsq	$.L.str.6, %rdx
	movq	-56(%rbp), %r10         # 8-byte Reload
	movq	-248(%rbp), %r11        # 8-byte Reload
	movl	(%r10,%r11,4), %eax
	.loc	1 70 23                 # md.c:70:23
	movl	%eax, %r12d
	movl	%r12d, %ebx
	movq	%rdx, -480(%rbp)        # 8-byte Spill
	movq	%rbx, %rdx
	movq	-480(%rbp), %rbx        # 8-byte Reload
	movq	%rbx, (%rsp)
	movl	%eax, -484(%rbp)        # 4-byte Spill
	callq	trace_logger_log_int
	movl	$70, %eax
	movl	%eax, %edi
	movabsq	$.L.str.75, %rsi
	movabsq	$.L.str.3, %rdx
	movabsq	$.L.str.84, %rcx
	movl	$13, %eax
	movl	%eax, %r8d
	xorl	%r9d, %r9d
	movl	$1, %eax
	movl	$1, (%rsp)
	movl	%eax, -488(%rbp)        # 4-byte Spill
	callq	trace_logger_log0
	movl	$2, %eax
	movl	%eax, %edi
	movl	$32, %eax
	movl	%eax, %esi
	movl	$1, %eax
	movl	%eax, %ecx
	movabsq	$.L.str.83, %r8
	xorl	%eax, %eax
	movl	%eax, %r9d
	movabsq	$.L.str.6, %rdx
	movl	-484(%rbp), %eax        # 4-byte Reload
	movl	%eax, %r12d
	movl	%r12d, %r10d
	movq	%rdx, -496(%rbp)        # 8-byte Spill
	movq	%r10, %rdx
	movq	-496(%rbp), %r10        # 8-byte Reload
	movq	%r10, (%rsp)
	callq	trace_logger_log_int
	movl	$1, %eax
	movl	%eax, %ecx
	movl	$32, %eax
	movl	%eax, %esi
	movabsq	$.L.str.81, %r8
	xorl	%eax, %eax
	movl	%eax, %r9d
	movabsq	$.L.str.6, %rdx
	movl	-420(%rbp), %eax        # 4-byte Reload
	movl	%eax, %r12d
	movl	%r12d, %edi
	movq	%rdi, -504(%rbp)        # 8-byte Spill
	movq	%rcx, %rdi
	movq	-504(%rbp), %r10        # 8-byte Reload
	movq	%rdx, -512(%rbp)        # 8-byte Spill
	movq	%r10, %rdx
	movq	-512(%rbp), %r11        # 8-byte Reload
	movq	%r11, (%rsp)
	callq	trace_logger_log_int
	movl	$19134, %eax            # imm = 0x4ABE
	movl	%eax, %edi
	movl	$32, %eax
	movl	%eax, %esi
	movl	$1, %eax
	movl	%eax, %ecx
	movabsq	$.L.str.84, %r8
	xorl	%eax, %eax
	movl	%eax, %r9d
	movabsq	$.L.str.6, %rdx
	movl	-420(%rbp), %eax        # 4-byte Reload
	movl	-484(%rbp), %r12d       # 4-byte Reload
	subl	%r12d, %eax
	.loc	1 68 13 is_stmt 1       # md.c:68:13
	movl	%eax, %r13d
	movl	%r13d, %r10d
	movq	%rdx, -520(%rbp)        # 8-byte Spill
	movq	%r10, %rdx
	movq	-520(%rbp), %r10        # 8-byte Reload
	movq	%r10, (%rsp)
	movl	%eax, -524(%rbp)        # 4-byte Spill
	callq	trace_logger_log_int
	movl	$71, %eax
	movl	%eax, %edi
	movabsq	$.L.str.75, %rsi
	movabsq	$.L.str.3, %rdx
	movabsq	$.L.str.37, %rcx
	movl	$32, %eax
	movl	%eax, %r8d
	xorl	%r9d, %r9d
	movl	$1, %eax
.Ltmp44:
	#DEBUG_VALUE: distance:dely <- [DW_OP_constu 524, DW_OP_minus] [%rbp+0]
	.loc	1 71 9                  # md.c:71:9
	movl	$1, (%rsp)
	movl	%eax, -528(%rbp)        # 4-byte Spill
	callq	trace_logger_log0
	movl	$2, %eax
	movl	%eax, %edi
	movl	$64, %eax
	movl	%eax, %esi
	movl	$1, %eax
	movl	%eax, %ecx
	movabsq	$.L.str.76, %r8
	xorl	%eax, %eax
	movl	%eax, %r9d
	movabsq	$.L.str.6, %rdx
	movq	-144(%rbp), %r10        # 8-byte Reload
	movq	%rdx, -536(%rbp)        # 8-byte Spill
	movq	%r10, %rdx
	movq	-536(%rbp), %r11        # 8-byte Reload
	movq	%r11, (%rsp)
	callq	trace_logger_log_int
	movl	$1, %eax
	movl	%eax, %ecx
	movl	$64, %eax
	movl	%eax, %esi
	movabsq	$.L.str.18, %r8
	xorl	%eax, %eax
	movl	%eax, %r9d
	movabsq	$.L.str.6, %rdx
	movq	%rcx, %rdi
	movq	-64(%rbp), %r10         # 8-byte Reload
	movq	%rdx, -544(%rbp)        # 8-byte Spill
	movq	%r10, %rdx
	movq	-544(%rbp), %r11        # 8-byte Reload
	movq	%r11, (%rsp)
	callq	trace_logger_log_ptr
	movl	$19134, %eax            # imm = 0x4ABE
	movl	%eax, %edi
	movl	$64, %eax
	movl	%eax, %esi
	movl	$1, %eax
	movl	%eax, %ecx
	movabsq	$.L.str.37, %r8
	xorl	%eax, %eax
	movl	%eax, %r9d
	movabsq	$.L.str.6, %rdx
	movq	-144(%rbp), %r10        # 8-byte Reload
	shlq	$2, %r10
	movq	-64(%rbp), %r11         # 8-byte Reload
	addq	%r10, %r11
	movq	%rdx, -552(%rbp)        # 8-byte Spill
	movq	%r11, %rdx
	movq	-552(%rbp), %r10        # 8-byte Reload
	movq	%r10, (%rsp)
	movq	%r11, -560(%rbp)        # 8-byte Spill
	callq	trace_logger_log_ptr
	movl	$71, %eax
	movl	%eax, %edi
	movabsq	$.L.str.75, %rsi
	movabsq	$.L.str.3, %rdx
	movabsq	$.L.str.20, %rcx
	movl	$30, %eax
	movl	%eax, %r8d
	xorl	%r9d, %r9d
	movl	$1, %eax
	movl	$1, (%rsp)
	movl	%eax, -564(%rbp)        # 4-byte Spill
	callq	trace_logger_log0
	movl	$1, %eax
	movl	%eax, %ecx
	movl	$64, %eax
	movl	%eax, %esi
	movabsq	$.L.str.37, %r8
	xorl	%eax, %eax
	movl	%eax, %r9d
	movabsq	$.L.str.6, %rdx
	movq	%rcx, %rdi
	movq	-560(%rbp), %r10        # 8-byte Reload
	movq	%rdx, -576(%rbp)        # 8-byte Spill
	movq	%r10, %rdx
	movq	-576(%rbp), %r11        # 8-byte Reload
	movq	%r11, (%rsp)
	callq	trace_logger_log_ptr
	movl	$19134, %eax            # imm = 0x4ABE
	movl	%eax, %edi
	movl	$32, %eax
	movl	%eax, %esi
	movl	$1, %eax
	movl	%eax, %ecx
	movabsq	$.L.str.20, %r8
	xorl	%eax, %eax
	movl	%eax, %r9d
	movabsq	$.L.str.6, %rdx
	movq	-64(%rbp), %r10         # 8-byte Reload
	movq	-144(%rbp), %r11        # 8-byte Reload
	movl	(%r10,%r11,4), %eax
	.loc	1 71 25 is_stmt 0       # md.c:71:25
	movl	%eax, %r12d
	movl	%r12d, %ebx
	movq	%rdx, -584(%rbp)        # 8-byte Spill
	movq	%rbx, %rdx
	movq	-584(%rbp), %rbx        # 8-byte Reload
	movq	%rbx, (%rsp)
	movl	%eax, -588(%rbp)        # 4-byte Spill
	callq	trace_logger_log_int
	movl	$71, %eax
	movl	%eax, %edi
	movabsq	$.L.str.75, %rsi
	movabsq	$.L.str.3, %rdx
	movabsq	$.L.str.39, %rcx
	movl	$32, %eax
	movl	%eax, %r8d
	xorl	%r9d, %r9d
	movl	$1, %eax
	movl	$1, (%rsp)
	movl	%eax, -592(%rbp)        # 4-byte Spill
	callq	trace_logger_log0
	movl	$2, %eax
	movl	%eax, %edi
	movl	$64, %eax
	movl	%eax, %esi
	movl	$1, %eax
	movl	%eax, %ecx
	movabsq	$.L.str.78, %r8
	xorl	%eax, %eax
	movl	%eax, %r9d
	movabsq	$.L.str.6, %rdx
	movq	-248(%rbp), %r10        # 8-byte Reload
	movq	%rdx, -600(%rbp)        # 8-byte Spill
	movq	%r10, %rdx
	movq	-600(%rbp), %r11        # 8-byte Reload
	movq	%r11, (%rsp)
	callq	trace_logger_log_int
	movl	$1, %eax
	movl	%eax, %ecx
	movl	$64, %eax
	movl	%eax, %esi
	movabsq	$.L.str.18, %r8
	xorl	%eax, %eax
	movl	%eax, %r9d
	movabsq	$.L.str.6, %rdx
	movq	%rcx, %rdi
	movq	-64(%rbp), %r10         # 8-byte Reload
	movq	%rdx, -608(%rbp)        # 8-byte Spill
	movq	%r10, %rdx
	movq	-608(%rbp), %r11        # 8-byte Reload
	movq	%r11, (%rsp)
	callq	trace_logger_log_ptr
	movl	$19134, %eax            # imm = 0x4ABE
	movl	%eax, %edi
	movl	$64, %eax
	movl	%eax, %esi
	movl	$1, %eax
	movl	%eax, %ecx
	movabsq	$.L.str.39, %r8
	xorl	%eax, %eax
	movl	%eax, %r9d
	movabsq	$.L.str.6, %rdx
	movq	-248(%rbp), %r10        # 8-byte Reload
	shlq	$2, %r10
	movq	-64(%rbp), %r11         # 8-byte Reload
	addq	%r10, %r11
	movq	%rdx, -616(%rbp)        # 8-byte Spill
	movq	%r11, %rdx
	movq	-616(%rbp), %r10        # 8-byte Reload
	movq	%r10, (%rsp)
	movq	%r11, -624(%rbp)        # 8-byte Spill
	callq	trace_logger_log_ptr
	movl	$71, %eax
	movl	%eax, %edi
	movabsq	$.L.str.75, %rsi
	movabsq	$.L.str.3, %rdx
	movabsq	$.L.str.85, %rcx
	movl	$30, %eax
	movl	%eax, %r8d
	xorl	%r9d, %r9d
	movl	$1, %eax
	movl	$1, (%rsp)
	movl	%eax, -628(%rbp)        # 4-byte Spill
	callq	trace_logger_log0
	movl	$1, %eax
	movl	%eax, %ecx
	movl	$64, %eax
	movl	%eax, %esi
	movabsq	$.L.str.39, %r8
	xorl	%eax, %eax
	movl	%eax, %r9d
	movabsq	$.L.str.6, %rdx
	movq	%rcx, %rdi
	movq	-624(%rbp), %r10        # 8-byte Reload
	movq	%rdx, -640(%rbp)        # 8-byte Spill
	movq	%r10, %rdx
	movq	-640(%rbp), %r11        # 8-byte Reload
	movq	%r11, (%rsp)
	callq	trace_logger_log_ptr
	movl	$19134, %eax            # imm = 0x4ABE
	movl	%eax, %edi
	movl	$32, %eax
	movl	%eax, %esi
	movl	$1, %eax
	movl	%eax, %ecx
	movabsq	$.L.str.85, %r8
	xorl	%eax, %eax
	movl	%eax, %r9d
	movabsq	$.L.str.6, %rdx
	movq	-64(%rbp), %r10         # 8-byte Reload
	movq	-248(%rbp), %r11        # 8-byte Reload
	movl	(%r10,%r11,4), %eax
	.loc	1 71 23                 # md.c:71:23
	movl	%eax, %r12d
	movl	%r12d, %ebx
	movq	%rdx, -648(%rbp)        # 8-byte Spill
	movq	%rbx, %rdx
	movq	-648(%rbp), %rbx        # 8-byte Reload
	movq	%rbx, (%rsp)
	movl	%eax, -652(%rbp)        # 4-byte Spill
	callq	trace_logger_log_int
	movl	$71, %eax
	movl	%eax, %edi
	movabsq	$.L.str.75, %rsi
	movabsq	$.L.str.3, %rdx
	movabsq	$.L.str.86, %rcx
	movl	$13, %eax
	movl	%eax, %r8d
	xorl	%r9d, %r9d
	movl	$1, %eax
	movl	$1, (%rsp)
	movl	%eax, -656(%rbp)        # 4-byte Spill
	callq	trace_logger_log0
	movl	$2, %eax
	movl	%eax, %edi
	movl	$32, %eax
	movl	%eax, %esi
	movl	$1, %eax
	movl	%eax, %ecx
	movabsq	$.L.str.85, %r8
	xorl	%eax, %eax
	movl	%eax, %r9d
	movabsq	$.L.str.6, %rdx
	movl	-652(%rbp), %eax        # 4-byte Reload
	movl	%eax, %r12d
	movl	%r12d, %r10d
	movq	%rdx, -664(%rbp)        # 8-byte Spill
	movq	%r10, %rdx
	movq	-664(%rbp), %r10        # 8-byte Reload
	movq	%r10, (%rsp)
	callq	trace_logger_log_int
	movl	$1, %eax
	movl	%eax, %ecx
	movl	$32, %eax
	movl	%eax, %esi
	movabsq	$.L.str.20, %r8
	xorl	%eax, %eax
	movl	%eax, %r9d
	movabsq	$.L.str.6, %rdx
	movl	-588(%rbp), %eax        # 4-byte Reload
	movl	%eax, %r12d
	movl	%r12d, %edi
	movq	%rdi, -672(%rbp)        # 8-byte Spill
	movq	%rcx, %rdi
	movq	-672(%rbp), %r10        # 8-byte Reload
	movq	%rdx, -680(%rbp)        # 8-byte Spill
	movq	%r10, %rdx
	movq	-680(%rbp), %r11        # 8-byte Reload
	movq	%r11, (%rsp)
	callq	trace_logger_log_int
	movl	$19134, %eax            # imm = 0x4ABE
	movl	%eax, %edi
	movl	$32, %eax
	movl	%eax, %esi
	movl	$1, %eax
	movl	%eax, %ecx
	movabsq	$.L.str.86, %r8
	xorl	%eax, %eax
	movl	%eax, %r9d
	movabsq	$.L.str.6, %rdx
	movl	-588(%rbp), %eax        # 4-byte Reload
	movl	-652(%rbp), %r12d       # 4-byte Reload
	subl	%r12d, %eax
	.loc	1 68 19 is_stmt 1       # md.c:68:19
	movl	%eax, %r13d
	movl	%r13d, %r10d
	movq	%rdx, -688(%rbp)        # 8-byte Spill
	movq	%r10, %rdx
	movq	-688(%rbp), %r10        # 8-byte Reload
	movq	%r10, (%rsp)
	movl	%eax, -692(%rbp)        # 4-byte Spill
	callq	trace_logger_log_int
	movl	$72, %eax
	movl	%eax, %edi
	movabsq	$.L.str.75, %rsi
	movabsq	$.L.str.3, %rdx
	movabsq	$.L.str.87, %rcx
	movl	$15, %eax
	movl	%eax, %r8d
	xorl	%r9d, %r9d
	movl	$1, %eax
.Ltmp45:
	#DEBUG_VALUE: distance:delz <- [DW_OP_constu 692, DW_OP_minus] [%rbp+0]
	.loc	1 72 15                 # md.c:72:15
	movl	$1, (%rsp)
	movl	%eax, -696(%rbp)        # 4-byte Spill
	callq	trace_logger_log0
	movl	$2, %eax
	movl	%eax, %edi
	movl	$32, %eax
	movl	%eax, %esi
	movl	$1, %eax
	movl	%eax, %ecx
	movabsq	$.L.str.43, %r8
	xorl	%eax, %eax
	movl	%eax, %r9d
	movabsq	$.L.str.6, %rdx
	movl	-356(%rbp), %eax        # 4-byte Reload
	movl	%eax, %r12d
	movl	%r12d, %r10d
	movq	%rdx, -704(%rbp)        # 8-byte Spill
	movq	%r10, %rdx
	movq	-704(%rbp), %r10        # 8-byte Reload
	movq	%r10, (%rsp)
	callq	trace_logger_log_int
	movl	$1, %eax
	movl	%eax, %ecx
	movl	$32, %eax
	movl	%eax, %esi
	movabsq	$.L.str.43, %r8
	xorl	%eax, %eax
	movl	%eax, %r9d
	movabsq	$.L.str.6, %rdx
	movl	-356(%rbp), %eax        # 4-byte Reload
	movl	%eax, %r12d
	movl	%r12d, %edi
	movq	%rdi, -712(%rbp)        # 8-byte Spill
	movq	%rcx, %rdi
	movq	-712(%rbp), %r10        # 8-byte Reload
	movq	%rdx, -720(%rbp)        # 8-byte Spill
	movq	%r10, %rdx
	movq	-720(%rbp), %r11        # 8-byte Reload
	movq	%r11, (%rsp)
	callq	trace_logger_log_int
	movl	$19134, %eax            # imm = 0x4ABE
	movl	%eax, %edi
	movl	$32, %eax
	movl	%eax, %esi
	movl	$1, %eax
	movl	%eax, %ecx
	movabsq	$.L.str.87, %r8
	xorl	%eax, %eax
	movl	%eax, %r9d
	movabsq	$.L.str.6, %rdx
	movl	-356(%rbp), %eax        # 4-byte Reload
	imull	%eax, %eax
	.loc	1 72 29 is_stmt 0       # md.c:72:29
	movl	%eax, %r12d
	movl	%r12d, %r10d
	movq	%rdx, -728(%rbp)        # 8-byte Spill
	movq	%r10, %rdx
	movq	-728(%rbp), %r10        # 8-byte Reload
	movq	%r10, (%rsp)
	movl	%eax, -732(%rbp)        # 4-byte Spill
	callq	trace_logger_log_int
	movl	$72, %eax
	movl	%eax, %edi
	movabsq	$.L.str.75, %rsi
	movabsq	$.L.str.3, %rdx
	movabsq	$.L.str.88, %rcx
	movl	$15, %eax
	movl	%eax, %r8d
	xorl	%r9d, %r9d
	movl	$1, %eax
	movl	$1, (%rsp)
	movl	%eax, -736(%rbp)        # 4-byte Spill
	callq	trace_logger_log0
	movl	$2, %eax
	movl	%eax, %edi
	movl	$32, %eax
	movl	%eax, %esi
	movl	$1, %eax
	movl	%eax, %ecx
	movabsq	$.L.str.84, %r8
	xorl	%eax, %eax
	movl	%eax, %r9d
	movabsq	$.L.str.6, %rdx
	movl	-524(%rbp), %eax        # 4-byte Reload
	movl	%eax, %r12d
	movl	%r12d, %r10d
	movq	%rdx, -744(%rbp)        # 8-byte Spill
	movq	%r10, %rdx
	movq	-744(%rbp), %r10        # 8-byte Reload
	movq	%r10, (%rsp)
	callq	trace_logger_log_int
	movl	$1, %eax
	movl	%eax, %ecx
	movl	$32, %eax
	movl	%eax, %esi
	movabsq	$.L.str.84, %r8
	xorl	%eax, %eax
	movl	%eax, %r9d
	movabsq	$.L.str.6, %rdx
	movl	-524(%rbp), %eax        # 4-byte Reload
	movl	%eax, %r12d
	movl	%r12d, %edi
	movq	%rdi, -752(%rbp)        # 8-byte Spill
	movq	%rcx, %rdi
	movq	-752(%rbp), %r10        # 8-byte Reload
	movq	%rdx, -760(%rbp)        # 8-byte Spill
	movq	%r10, %rdx
	movq	-760(%rbp), %r11        # 8-byte Reload
	movq	%r11, (%rsp)
	callq	trace_logger_log_int
	movl	$19134, %eax            # imm = 0x4ABE
	movl	%eax, %edi
	movl	$32, %eax
	movl	%eax, %esi
	movl	$1, %eax
	movl	%eax, %ecx
	movabsq	$.L.str.88, %r8
	xorl	%eax, %eax
	movl	%eax, %r9d
	movabsq	$.L.str.6, %rdx
	movl	-524(%rbp), %eax        # 4-byte Reload
	imull	%eax, %eax
	.loc	1 72 22                 # md.c:72:22
	movl	%eax, %r12d
	movl	%r12d, %r10d
	movq	%rdx, -768(%rbp)        # 8-byte Spill
	movq	%r10, %rdx
	movq	-768(%rbp), %r10        # 8-byte Reload
	movq	%r10, (%rsp)
	movl	%eax, -772(%rbp)        # 4-byte Spill
	callq	trace_logger_log_int
	movl	$72, %eax
	movl	%eax, %edi
	movabsq	$.L.str.75, %rsi
	movabsq	$.L.str.3, %rdx
	movabsq	$.L.str.89, %rcx
	movl	$11, %eax
	movl	%eax, %r8d
	xorl	%r9d, %r9d
	movl	$1, %eax
	movl	$1, (%rsp)
	movl	%eax, -776(%rbp)        # 4-byte Spill
	callq	trace_logger_log0
	movl	$2, %eax
	movl	%eax, %edi
	movl	$32, %eax
	movl	%eax, %esi
	movl	$1, %eax
	movl	%eax, %ecx
	movabsq	$.L.str.87, %r8
	xorl	%eax, %eax
	movl	%eax, %r9d
	movabsq	$.L.str.6, %rdx
	movl	-732(%rbp), %eax        # 4-byte Reload
	movl	%eax, %r12d
	movl	%r12d, %r10d
	movq	%rdx, -784(%rbp)        # 8-byte Spill
	movq	%r10, %rdx
	movq	-784(%rbp), %r10        # 8-byte Reload
	movq	%r10, (%rsp)
	callq	trace_logger_log_int
	movl	$1, %eax
	movl	%eax, %ecx
	movl	$32, %eax
	movl	%eax, %esi
	movabsq	$.L.str.88, %r8
	xorl	%eax, %eax
	movl	%eax, %r9d
	movabsq	$.L.str.6, %rdx
	movl	-772(%rbp), %eax        # 4-byte Reload
	movl	%eax, %r12d
	movl	%r12d, %edi
	movq	%rdi, -792(%rbp)        # 8-byte Spill
	movq	%rcx, %rdi
	movq	-792(%rbp), %r10        # 8-byte Reload
	movq	%rdx, -800(%rbp)        # 8-byte Spill
	movq	%r10, %rdx
	movq	-800(%rbp), %r11        # 8-byte Reload
	movq	%r11, (%rsp)
	callq	trace_logger_log_int
	movl	$19134, %eax            # imm = 0x4ABE
	movl	%eax, %edi
	movl	$32, %eax
	movl	%eax, %esi
	movl	$1, %eax
	movl	%eax, %ecx
	movabsq	$.L.str.89, %r8
	xorl	%eax, %eax
	movl	%eax, %r9d
	movabsq	$.L.str.6, %rdx
	movl	-772(%rbp), %eax        # 4-byte Reload
	movl	-732(%rbp), %r12d       # 4-byte Reload
	addl	%r12d, %eax
	.loc	1 72 43                 # md.c:72:43
	movl	%eax, %r13d
	movl	%r13d, %r10d
	movq	%rdx, -808(%rbp)        # 8-byte Spill
	movq	%r10, %rdx
	movq	-808(%rbp), %r10        # 8-byte Reload
	movq	%r10, (%rsp)
	movl	%eax, -812(%rbp)        # 4-byte Spill
	callq	trace_logger_log_int
	movl	$72, %eax
	movl	%eax, %edi
	movabsq	$.L.str.75, %rsi
	movabsq	$.L.str.3, %rdx
	movabsq	$.L.str.90, %rcx
	movl	$15, %eax
	movl	%eax, %r8d
	xorl	%r9d, %r9d
	movl	$1, %eax
	movl	$1, (%rsp)
	movl	%eax, -816(%rbp)        # 4-byte Spill
	callq	trace_logger_log0
	movl	$2, %eax
	movl	%eax, %edi
	movl	$32, %eax
	movl	%eax, %esi
	movl	$1, %eax
	movl	%eax, %ecx
	movabsq	$.L.str.86, %r8
	xorl	%eax, %eax
	movl	%eax, %r9d
	movabsq	$.L.str.6, %rdx
	movl	-692(%rbp), %eax        # 4-byte Reload
	movl	%eax, %r12d
	movl	%r12d, %r10d
	movq	%rdx, -824(%rbp)        # 8-byte Spill
	movq	%r10, %rdx
	movq	-824(%rbp), %r10        # 8-byte Reload
	movq	%r10, (%rsp)
	callq	trace_logger_log_int
	movl	$1, %eax
	movl	%eax, %ecx
	movl	$32, %eax
	movl	%eax, %esi
	movabsq	$.L.str.86, %r8
	xorl	%eax, %eax
	movl	%eax, %r9d
	movabsq	$.L.str.6, %rdx
	movl	-692(%rbp), %eax        # 4-byte Reload
	movl	%eax, %r12d
	movl	%r12d, %edi
	movq	%rdi, -832(%rbp)        # 8-byte Spill
	movq	%rcx, %rdi
	movq	-832(%rbp), %r10        # 8-byte Reload
	movq	%rdx, -840(%rbp)        # 8-byte Spill
	movq	%r10, %rdx
	movq	-840(%rbp), %r11        # 8-byte Reload
	movq	%r11, (%rsp)
	callq	trace_logger_log_int
	movl	$19134, %eax            # imm = 0x4ABE
	movl	%eax, %edi
	movl	$32, %eax
	movl	%eax, %esi
	movl	$1, %eax
	movl	%eax, %ecx
	movabsq	$.L.str.90, %r8
	xorl	%eax, %eax
	movl	%eax, %r9d
	movabsq	$.L.str.6, %rdx
	movl	-692(%rbp), %eax        # 4-byte Reload
	imull	%eax, %eax
	.loc	1 72 36                 # md.c:72:36
	movl	%eax, %r12d
	movl	%r12d, %r10d
	movq	%rdx, -848(%rbp)        # 8-byte Spill
	movq	%r10, %rdx
	movq	-848(%rbp), %r10        # 8-byte Reload
	movq	%r10, (%rsp)
	movl	%eax, -852(%rbp)        # 4-byte Spill
	callq	trace_logger_log_int
	movl	$72, %eax
	movl	%eax, %edi
	movabsq	$.L.str.75, %rsi
	movabsq	$.L.str.3, %rdx
	movabsq	$.L.str.91, %rcx
	movl	$11, %eax
	movl	%eax, %r8d
	xorl	%r9d, %r9d
	movl	$1, %eax
	movl	$1, (%rsp)
	movl	%eax, -856(%rbp)        # 4-byte Spill
	callq	trace_logger_log0
	movl	$2, %eax
	movl	%eax, %edi
	movl	$32, %eax
	movl	%eax, %esi
	movl	$1, %eax
	movl	%eax, %ecx
	movabsq	$.L.str.90, %r8
	xorl	%eax, %eax
	movl	%eax, %r9d
	movabsq	$.L.str.6, %rdx
	movl	-852(%rbp), %eax        # 4-byte Reload
	movl	%eax, %r12d
	movl	%r12d, %r10d
	movq	%rdx, -864(%rbp)        # 8-byte Spill
	movq	%r10, %rdx
	movq	-864(%rbp), %r10        # 8-byte Reload
	movq	%r10, (%rsp)
	callq	trace_logger_log_int
	movl	$1, %eax
	movl	%eax, %ecx
	movl	$32, %eax
	movl	%eax, %esi
	movabsq	$.L.str.89, %r8
	xorl	%eax, %eax
	movl	%eax, %r9d
	movabsq	$.L.str.6, %rdx
	movl	-812(%rbp), %eax        # 4-byte Reload
	movl	%eax, %r12d
	movl	%r12d, %edi
	movq	%rdi, -872(%rbp)        # 8-byte Spill
	movq	%rcx, %rdi
	movq	-872(%rbp), %r10        # 8-byte Reload
	movq	%rdx, -880(%rbp)        # 8-byte Spill
	movq	%r10, %rdx
	movq	-880(%rbp), %r11        # 8-byte Reload
	movq	%r11, (%rsp)
	callq	trace_logger_log_int
	movl	$19134, %eax            # imm = 0x4ABE
	movl	%eax, %edi
	movl	$32, %eax
	movl	%eax, %esi
	movl	$1, %eax
	movl	%eax, %ecx
	movabsq	$.L.str.91, %r8
	xorl	%eax, %eax
	movl	%eax, %r9d
	movabsq	$.L.str.6, %rdx
	movl	-812(%rbp), %eax        # 4-byte Reload
	movl	-852(%rbp), %r12d       # 4-byte Reload
	addl	%r12d, %eax
	.loc	1 68 25 is_stmt 1       # md.c:68:25
	movl	%eax, %r13d
	movl	%r13d, %r10d
	movq	%rdx, -888(%rbp)        # 8-byte Spill
	movq	%r10, %rdx
	movq	-888(%rbp), %r10        # 8-byte Reload
	movq	%r10, (%rsp)
	movl	%eax, -892(%rbp)        # 4-byte Spill
	callq	trace_logger_log_int
	movl	$73, %eax
	movl	%eax, %edi
	movabsq	$.L.str.75, %rsi
	movabsq	$.L.str.3, %rdx
	movabsq	$.L.str.92, %rcx
	movl	$1, %eax
	movl	%eax, %r8d
	xorl	%r9d, %r9d
	movl	$1, %eax
.Ltmp46:
	#DEBUG_VALUE: distance:r2inv <- [DW_OP_constu 892, DW_OP_minus] [%rbp+0]
	.loc	1 73 2                  # md.c:73:2
	movl	$1, (%rsp)
	movl	%eax, -896(%rbp)        # 4-byte Spill
	callq	trace_logger_log0
	movl	$1, %eax
	movl	%eax, %ecx
	movl	$32, %eax
	movl	%eax, %esi
	movabsq	$.L.str.91, %r8
	xorl	%eax, %eax
	movl	%eax, %r9d
	movabsq	$.L.str.6, %rdx
	movl	-892(%rbp), %eax        # 4-byte Reload
	movl	%eax, %r12d
	movl	%r12d, %edi
	movq	%rdi, -904(%rbp)        # 8-byte Spill
	movq	%rcx, %rdi
	movq	-904(%rbp), %r10        # 8-byte Reload
	movq	%rdx, -912(%rbp)        # 8-byte Spill
	movq	%r10, %rdx
	movq	-912(%rbp), %r11        # 8-byte Reload
	movq	%r11, (%rsp)
	callq	trace_logger_log_int
	movabsq	$.L.str.75, %rdi
	movl	$1, %eax
	movl	%eax, %esi
	xorl	%edx, %edx
	movl	$1, %ecx
	callq	trace_logger_update_status
	movl	-892(%rbp), %eax        # 4-byte Reload
	addq	$888, %rsp              # imm = 0x378
	popq	%rbx
	popq	%r12
	popq	%r13
	popq	%r14
	popq	%r15
	popq	%rbp
	retq
.Ltmp47:
.Lfunc_end1:
	.size	distance, .Lfunc_end1-distance
	.cfi_endproc
                                        # -- End function
	.globl	buildNeighborList       # -- Begin function buildNeighborList
	.p2align	4, 0x90
	.type	buildNeighborList,@function
buildNeighborList:                      # @buildNeighborList
.Lfunc_begin2:
	.loc	1 108 0                 # md.c:108:0
	.cfi_startproc
# %bb.0:
	pushq	%rbp
	.cfi_def_cfa_offset 16
	.cfi_offset %rbp, -16
	movq	%rsp, %rbp
	.cfi_def_cfa_register %rbp
	pushq	%r15
	pushq	%r14
	pushq	%r12
	pushq	%rbx
	subq	$1408, %rsp             # imm = 0x580
	.cfi_offset %rbx, -48
	.cfi_offset %r12, -40
	.cfi_offset %r14, -32
	.cfi_offset %r15, -24
	movl	$24601, %eax            # imm = 0x6019
	movl	%eax, %r8d
	movl	$64, %eax
	movl	%eax, %r9d
	movl	$1, %eax
	movl	%eax, %r10d
	movabsq	$.L.str.12, %r11
	xorl	%eax, %eax
	movl	%eax, %ebx
	movabsq	$.L.str.6, %r14
	movq	%rdi, -168(%rbp)        # 8-byte Spill
	movq	%r8, %rdi
	movq	%rsi, -176(%rbp)        # 8-byte Spill
	movq	%r9, %rsi
	movq	-168(%rbp), %r8         # 8-byte Reload
	movq	%rdx, -184(%rbp)        # 8-byte Spill
	movq	%r8, %rdx
	movq	%rcx, -192(%rbp)        # 8-byte Spill
	movq	%r10, %rcx
	movq	%r11, %r8
	movq	%rbx, %r9
	movq	%r14, (%rsp)
	callq	trace_logger_log_ptr
	movl	$24601, %eax            # imm = 0x6019
	movl	%eax, %edi
	movl	$64, %eax
	movl	%eax, %esi
	movl	$1, %eax
	movl	%eax, %ecx
	movabsq	$.L.str.15, %r8
	xorl	%eax, %eax
	movl	%eax, %r9d
	movabsq	$.L.str.6, %rdx
	movq	-176(%rbp), %r10        # 8-byte Reload
	movq	%rdx, -200(%rbp)        # 8-byte Spill
	movq	%r10, %rdx
	movq	-200(%rbp), %r11        # 8-byte Reload
	movq	%r11, (%rsp)
	callq	trace_logger_log_ptr
	movl	$24601, %eax            # imm = 0x6019
	movl	%eax, %edi
	movl	$64, %eax
	movl	%eax, %esi
	movl	$1, %eax
	movl	%eax, %ecx
	movabsq	$.L.str.18, %r8
	xorl	%eax, %eax
	movl	%eax, %r9d
	movabsq	$.L.str.6, %rdx
	movq	-184(%rbp), %r10        # 8-byte Reload
	movq	%rdx, -208(%rbp)        # 8-byte Spill
	movq	%r10, %rdx
	movq	-208(%rbp), %r11        # 8-byte Reload
	movq	%r11, (%rsp)
	callq	trace_logger_log_ptr
	movl	$24601, %eax            # imm = 0x6019
	movl	%eax, %edi
	movl	$64, %eax
	movl	%eax, %esi
	movl	$1, %eax
	movl	%eax, %ecx
	movabsq	$.L.str.34, %r8
	xorl	%eax, %eax
	movl	%eax, %r9d
	movabsq	$.L.str.6, %rdx
	movq	-192(%rbp), %r10        # 8-byte Reload
	movq	%rdx, -216(%rbp)        # 8-byte Spill
	movq	%r10, %rdx
	movq	-216(%rbp), %r11        # 8-byte Reload
	movq	%r11, (%rsp)
	callq	trace_logger_log_ptr
	movq	$-1, %rdi
	movabsq	$.L.str.93, %rsi
	movabsq	$.L.str.3, %rdx
	movabsq	$.L.str.94, %rcx
	movl	$29, %eax
	movl	%eax, %r8d
	xorl	%r9d, %r9d
	movl	$1, %eax
	movl	$1, (%rsp)
	movl	%eax, -220(%rbp)        # 4-byte Spill
	callq	trace_logger_log0
	movl	$1, %eax
	movl	%eax, %ecx
	movl	$32, %eax
	movl	%eax, %esi
	xorl	%eax, %eax
	movl	%eax, %edx
	movabsq	$.L.str.10, %r8
	movabsq	$.L.str.6, %rdi
	movq	%rdi, -232(%rbp)        # 8-byte Spill
	movq	%rcx, %rdi
	movq	%rdx, -240(%rbp)        # 8-byte Spill
	movq	%rcx, %rdx
	movq	-240(%rbp), %rcx        # 8-byte Reload
	movq	-240(%rbp), %r9         # 8-byte Reload
	movq	-232(%rbp), %r10        # 8-byte Reload
	movq	%r10, (%rsp)
	callq	trace_logger_log_int
	movl	$19134, %eax            # imm = 0x4ABE
	movl	%eax, %edi
	movl	$64, %eax
	movl	%eax, %esi
	movl	$1, %eax
	movl	%eax, %ecx
	movabsq	$.L.str.94, %r8
	xorl	%eax, %eax
	movl	%eax, %r9d
	movabsq	$.L.str.6, %rdx
	leaq	-160(%rbp), %r10
.Ltmp48:
	.loc	1 102 28 prologue_end   # md.c:102:28
	movq	%rdx, -248(%rbp)        # 8-byte Spill
	movq	%r10, %rdx
	movq	-248(%rbp), %r10        # 8-byte Reload
	movq	%r10, (%rsp)
	callq	trace_logger_log_ptr
	movq	$-1, %rdi
	movabsq	$.L.str.93, %rsi
	movabsq	$.L.str.3, %rdx
	movabsq	$.L.str.77, %rcx
	movl	$47, %eax
	movl	%eax, %r8d
	xorl	%r9d, %r9d
	movl	$1, %eax
	#DEBUG_VALUE: buildNeighborList:position_x <- [DW_OP_constu 168, DW_OP_minus] [%rbp+0]
	#DEBUG_VALUE: buildNeighborList:position_y <- [DW_OP_constu 176, DW_OP_minus] [%rbp+0]
	#DEBUG_VALUE: buildNeighborList:position_z <- [DW_OP_constu 184, DW_OP_minus] [%rbp+0]
	#DEBUG_VALUE: buildNeighborList:NL <- [DW_OP_constu 192, DW_OP_minus] [%rbp+0]
.Ltmp49:
	#DEBUG_VALUE: buildNeighborList:totalPairs <- 0
	#DEBUG_VALUE: buildNeighborList:i <- 0
	.loc	1 0 28 is_stmt 0        # md.c:0:28
	movl	$1, (%rsp)
	movl	%eax, -252(%rbp)        # 4-byte Spill
	callq	trace_logger_log0
	movl	$1, %eax
	movl	%eax, %ecx
	movl	$64, %eax
	movl	%eax, %esi
	movabsq	$.L.str.94, %r8
	xorl	%eax, %eax
	movl	%eax, %r9d
	movabsq	$.L.str.6, %rdx
	leaq	-160(%rbp), %rdi
	movq	%rdi, -264(%rbp)        # 8-byte Spill
	movq	%rcx, %rdi
	movq	-264(%rbp), %r10        # 8-byte Reload
	movq	%rdx, -272(%rbp)        # 8-byte Spill
	movq	%r10, %rdx
	movq	-272(%rbp), %r11        # 8-byte Reload
	movq	%r11, (%rsp)
	callq	trace_logger_log_ptr
	movl	$19134, %eax            # imm = 0x4ABE
	movl	%eax, %edi
	movl	$64, %eax
	movl	%eax, %esi
	movl	$1, %eax
	movl	%eax, %ecx
	movabsq	$.L.str.94, %r8
	xorl	%eax, %eax
	movl	%eax, %r9d
	movabsq	$.L.str.6, %rdx
	leaq	-160(%rbp), %r10
	movq	%rdx, -280(%rbp)        # 8-byte Spill
	movq	%r10, %rdx
	movq	-280(%rbp), %r10        # 8-byte Reload
	movq	%r10, (%rsp)
	callq	trace_logger_log_ptr
	movq	$-1, %rdi
	movabsq	$.L.str.93, %rsi
	movabsq	$.L.str.3, %rdx
	movabsq	$.L.str.95, %rcx
	movl	$32, %eax
	movl	%eax, %r8d
	xorl	%r9d, %r9d
	movl	$1, %eax
	movl	$1, (%rsp)
	movl	%eax, -284(%rbp)        # 4-byte Spill
	callq	trace_logger_log0
	movl	$3, %eax
	movl	%eax, %edi
	movl	$64, %eax
	movl	%eax, %esi
	xorl	%eax, %eax
	movl	%eax, %ecx
	movabsq	$.L.str.10, %r8
	movabsq	$.L.str.6, %rdx
	movq	%rdx, -296(%rbp)        # 8-byte Spill
	movq	%rcx, %rdx
	movq	%rcx, -304(%rbp)        # 8-byte Spill
	movq	-304(%rbp), %r9         # 8-byte Reload
	movq	-296(%rbp), %r10        # 8-byte Reload
	movq	%r10, (%rsp)
	callq	trace_logger_log_int
	movl	$2, %eax
	movl	%eax, %edi
	movl	$64, %eax
	movl	%eax, %esi
	xorl	%eax, %eax
	movl	%eax, %ecx
	movabsq	$.L.str.10, %r8
	movabsq	$.L.str.6, %rdx
	movq	%rdx, -312(%rbp)        # 8-byte Spill
	movq	%rcx, %rdx
	movq	%rcx, -320(%rbp)        # 8-byte Spill
	movq	-320(%rbp), %r9         # 8-byte Reload
	movq	-312(%rbp), %r10        # 8-byte Reload
	movq	%r10, (%rsp)
	callq	trace_logger_log_int
	movl	$1, %eax
	movl	%eax, %ecx
	movl	$64, %eax
	movl	%eax, %esi
	movabsq	$.L.str.94, %r8
	xorl	%eax, %eax
	movl	%eax, %r9d
	movabsq	$.L.str.6, %rdx
	leaq	-160(%rbp), %rdi
	movq	%rdi, -328(%rbp)        # 8-byte Spill
	movq	%rcx, %rdi
	movq	-328(%rbp), %r10        # 8-byte Reload
	movq	%rdx, -336(%rbp)        # 8-byte Spill
	movq	%r10, %rdx
	movq	-336(%rbp), %r11        # 8-byte Reload
	movq	%r11, (%rsp)
	callq	trace_logger_log_ptr
	movl	$19134, %eax            # imm = 0x4ABE
	movl	%eax, %edi
	movl	$64, %eax
	movl	%eax, %esi
	movl	$1, %eax
	movl	%eax, %ecx
	movabsq	$.L.str.95, %r8
	xorl	%eax, %eax
	movl	%eax, %r9d
	movabsq	$.L.str.6, %rdx
	leaq	-160(%rbp), %r10
.Ltmp50:
	.loc	1 112 2 is_stmt 1       # md.c:112:2
	movq	%rdx, -344(%rbp)        # 8-byte Spill
	movq	%r10, %rdx
	movq	-344(%rbp), %r11        # 8-byte Reload
	movq	%r11, (%rsp)
	movq	%r10, -352(%rbp)        # 8-byte Spill
	callq	trace_logger_log_ptr
	movl	$112, %eax
	movl	%eax, %edi
	movabsq	$.L.str.93, %rsi
	movabsq	$.L.str.3, %rdx
	movabsq	$.L.str.96, %rcx
	movl	$2, %eax
	movl	%eax, %r8d
	xorl	%r9d, %r9d
	movl	$1, %eax
	movl	$1, (%rsp)
	movl	%eax, -356(%rbp)        # 4-byte Spill
	callq	trace_logger_log0
	movl	$1, %eax
	movl	%eax, %ecx
	xorl	%eax, %eax
	movl	%eax, %edx
	movabsq	$.L.str.97, %r8
	movabsq	$.L.str.6, %rsi
	movq	%rcx, %rdi
	movq	%rsi, -368(%rbp)        # 8-byte Spill
	movq	%rdx, %rsi
	movq	%rdx, -376(%rbp)        # 8-byte Spill
	movq	-376(%rbp), %r9         # 8-byte Reload
	movq	-368(%rbp), %r10        # 8-byte Reload
	movq	%r10, (%rsp)
	callq	trace_logger_log_int
	xorl	%eax, %eax
	movl	%eax, %ecx
	xorl	%eax, %eax
	movq	%rcx, -384(%rbp)        # 8-byte Spill
	movl	%eax, -388(%rbp)        # 4-byte Spill
.Ltmp51:
.LBB2_1:                                # =>This Loop Header: Depth=1
                                        #     Child Loop BB2_2 Depth 2
                                        #     Child Loop BB2_4 Depth 2
	#DEBUG_VALUE: buildNeighborList:NL <- [DW_OP_constu 192, DW_OP_minus] [%rbp+0]
	#DEBUG_VALUE: buildNeighborList:position_z <- [DW_OP_constu 184, DW_OP_minus] [%rbp+0]
	#DEBUG_VALUE: buildNeighborList:position_y <- [DW_OP_constu 176, DW_OP_minus] [%rbp+0]
	#DEBUG_VALUE: buildNeighborList:position_x <- [DW_OP_constu 168, DW_OP_minus] [%rbp+0]
	.loc	1 0 2 is_stmt 0         # md.c:0:2
	movl	-388(%rbp), %eax        # 4-byte Reload
	movq	-384(%rbp), %rcx        # 8-byte Reload
	movq	$-1, %rdi
	movabsq	$.L.str.93, %rsi
	movabsq	$.L.str.97, %rdx
	movabsq	$.L.str.98, %r8
	movl	$53, %r9d
	movl	%r9d, %r10d
	xorl	%r9d, %r9d
	movl	$1, %r11d
	.loc	1 109 18 is_stmt 1      # md.c:109:18
	movq	%rcx, -400(%rbp)        # 8-byte Spill
	movq	%r8, %rcx
	movq	%r10, %r8
	movl	$1, (%rsp)
	movl	%eax, -404(%rbp)        # 4-byte Spill
	movl	%r11d, -408(%rbp)       # 4-byte Spill
	callq	trace_logger_log0
	movl	$2, %eax
	movl	%eax, %edi
	movl	$64, %eax
	movl	%eax, %esi
	xorl	%eax, %eax
	movl	%eax, %edx
	movl	$1, %eax
	movl	%eax, %ecx
	movabsq	$.L.str.99, %r8
	movabsq	$.L.str.100, %r10
	movq	%rcx, -416(%rbp)        # 8-byte Spill
	movq	-416(%rbp), %r9         # 8-byte Reload
	movq	%r10, (%rsp)
	callq	trace_logger_log_int
	movl	$1, %eax
	movl	%eax, %ecx
	movl	$64, %eax
	movl	%eax, %esi
	xorl	%eax, %eax
	movl	%eax, %edx
	movabsq	$.L.str.10, %r8
	movabsq	$.L.str.3, %rdi
	movq	%rdi, -424(%rbp)        # 8-byte Spill
	movq	%rcx, %rdi
	movq	%rdx, -432(%rbp)        # 8-byte Spill
	movq	-432(%rbp), %r9         # 8-byte Reload
	movq	%rcx, -440(%rbp)        # 8-byte Spill
	movq	%r9, %rcx
	movq	-440(%rbp), %r9         # 8-byte Reload
	movq	-424(%rbp), %r10        # 8-byte Reload
	movq	%r10, (%rsp)
	callq	trace_logger_log_int
	movl	$19134, %eax            # imm = 0x4ABE
	movl	%eax, %edi
	movl	$64, %eax
	movl	%eax, %esi
	movl	$1, %eax
	movl	%eax, %ecx
	movabsq	$.L.str.98, %r8
	xorl	%eax, %eax
	movl	%eax, %r9d
	movabsq	$.L.str.3, %rdx
	movq	-400(%rbp), %r10        # 8-byte Reload
	movq	%rdx, -448(%rbp)        # 8-byte Spill
	movq	%r10, %rdx
	movq	-448(%rbp), %rbx        # 8-byte Reload
	movq	%rbx, (%rsp)
	callq	trace_logger_log_int
	movq	$-1, %rdi
	movabsq	$.L.str.93, %rsi
	movabsq	$.L.str.97, %rdx
	movabsq	$.L.str.101, %rcx
	movl	$53, %eax
	movl	%eax, %r8d
	xorl	%r9d, %r9d
	movl	$1, %eax
	movl	$1, (%rsp)
	movl	%eax, -452(%rbp)        # 4-byte Spill
	callq	trace_logger_log0
	movl	$2, %eax
	movl	%eax, %edi
	movl	$32, %eax
	movl	%eax, %esi
	xorl	%eax, %eax
	movl	%eax, %edx
	movl	$1, %eax
	movl	%eax, %ecx
	movabsq	$.L.str.89, %r8
	movabsq	$.L.str.100, %r10
	movq	%rcx, -464(%rbp)        # 8-byte Spill
	movq	-464(%rbp), %r9         # 8-byte Reload
	movq	%r10, (%rsp)
	callq	trace_logger_log_int
	movl	$1, %eax
	movl	%eax, %ecx
	movl	$32, %eax
	movl	%eax, %esi
	xorl	%eax, %eax
	movl	%eax, %edx
	movabsq	$.L.str.102, %r8
	movabsq	$.L.str.3, %rdi
	movq	%rdi, -472(%rbp)        # 8-byte Spill
	movq	%rcx, %rdi
	movq	%rcx, -480(%rbp)        # 8-byte Spill
	movq	-480(%rbp), %r9         # 8-byte Reload
	movq	-472(%rbp), %r10        # 8-byte Reload
	movq	%r10, (%rsp)
	callq	trace_logger_log_int
	movl	$19134, %eax            # imm = 0x4ABE
	movl	%eax, %edi
	movl	$32, %eax
	movl	%eax, %esi
	movl	$1, %eax
	movl	%eax, %ecx
	movabsq	$.L.str.101, %r8
	xorl	%eax, %eax
	movl	%eax, %r9d
	movabsq	$.L.str.3, %rdx
	movl	-404(%rbp), %eax        # 4-byte Reload
	movl	%eax, %r11d
	movl	%r11d, %r10d
	movq	%rdx, -488(%rbp)        # 8-byte Spill
	movq	%r10, %rdx
	movq	-488(%rbp), %r10        # 8-byte Reload
	movq	%r10, (%rsp)
	callq	trace_logger_log_int
	movl	$115, %eax
	movl	%eax, %edi
	movabsq	$.L.str.93, %rsi
	movabsq	$.L.str.97, %rdx
	movabsq	$.L.str.103, %rcx
	movl	$2, %eax
	movl	%eax, %r8d
	xorl	%r9d, %r9d
	movl	$1, %eax
.Ltmp52:
	#DEBUG_VALUE: buildNeighborList:i <- [DW_OP_constu 400, DW_OP_minus] [%rbp+0]
	#DEBUG_VALUE: buildNeighborList:totalPairs <- [DW_OP_constu 404, DW_OP_minus] [%rbp+0]
	#DEBUG_VALUE: buildNeighborList:k <- 0
	.loc	1 115 3                 # md.c:115:3
	movl	$1, (%rsp)
	movl	%eax, -492(%rbp)        # 4-byte Spill
	callq	trace_logger_log0
	movl	$1, %eax
	movl	%eax, %ecx
	xorl	%eax, %eax
	movl	%eax, %edx
	movabsq	$.L.str.104, %r8
	movabsq	$.L.str.6, %rsi
	movq	%rcx, %rdi
	movq	%rsi, -504(%rbp)        # 8-byte Spill
	movq	%rdx, %rsi
	movq	%rdx, -512(%rbp)        # 8-byte Spill
	movq	-512(%rbp), %r9         # 8-byte Reload
	movq	-504(%rbp), %r10        # 8-byte Reload
	movq	%r10, (%rsp)
	callq	trace_logger_log_int
	xorl	%eax, %eax
	movl	%eax, %ecx
	movq	%rcx, -520(%rbp)        # 8-byte Spill
.Ltmp53:
.LBB2_2:                                #   Parent Loop BB2_1 Depth=1
                                        # =>  This Inner Loop Header: Depth=2
	#DEBUG_VALUE: buildNeighborList:totalPairs <- [DW_OP_constu 404, DW_OP_minus] [%rbp+0]
	#DEBUG_VALUE: buildNeighborList:i <- [DW_OP_constu 400, DW_OP_minus] [%rbp+0]
	#DEBUG_VALUE: buildNeighborList:NL <- [DW_OP_constu 192, DW_OP_minus] [%rbp+0]
	#DEBUG_VALUE: buildNeighborList:position_z <- [DW_OP_constu 184, DW_OP_minus] [%rbp+0]
	#DEBUG_VALUE: buildNeighborList:position_y <- [DW_OP_constu 176, DW_OP_minus] [%rbp+0]
	#DEBUG_VALUE: buildNeighborList:position_x <- [DW_OP_constu 168, DW_OP_minus] [%rbp+0]
	.loc	1 0 3 is_stmt 0         # md.c:0:3
	movq	-520(%rbp), %rax        # 8-byte Reload
	movq	$-1, %rdi
	movabsq	$.L.str.93, %rsi
	movabsq	$.L.str.104, %rdx
	movabsq	$.L.str.23, %rcx
	movl	$53, %r8d
                                        # kill: def %r8 killed %r8d
	xorl	%r9d, %r9d
	movl	$1, %r10d
	.loc	1 109 24 is_stmt 1      # md.c:109:24
	movl	$1, (%rsp)
	movq	%rax, -528(%rbp)        # 8-byte Spill
	movl	%r10d, -532(%rbp)       # 4-byte Spill
	callq	trace_logger_log0
	movl	$2, %r9d
	movl	%r9d, %edi
	movl	$64, %r9d
	movl	%r9d, %esi
	xorl	%r9d, %r9d
	movl	%r9d, %edx
	movl	$1, %r9d
	movl	%r9d, %eax
	movabsq	$.L.str.24, %r8
	movabsq	$.L.str.104, %rcx
	movq	%rcx, -544(%rbp)        # 8-byte Spill
	movq	%rax, %rcx
	movq	%rax, %r9
	movq	-544(%rbp), %rax        # 8-byte Reload
	movq	%rax, (%rsp)
	callq	trace_logger_log_int
	movl	$1, %r10d
	movl	%r10d, %eax
	movl	$64, %r10d
	movl	%r10d, %esi
	xorl	%r10d, %r10d
	movl	%r10d, %ecx
	movabsq	$.L.str.10, %r8
	movabsq	$.L.str.97, %rdx
	movq	%rax, %rdi
	movq	%rdx, -552(%rbp)        # 8-byte Spill
	movq	%rcx, %rdx
	movq	%rax, %r9
	movq	-552(%rbp), %rax        # 8-byte Reload
	movq	%rax, (%rsp)
	callq	trace_logger_log_int
	movl	$19134, %r10d           # imm = 0x4ABE
	movl	%r10d, %edi
	movl	$64, %r10d
	movl	%r10d, %esi
	movl	$1, %r10d
	movl	%r10d, %ecx
	movabsq	$.L.str.23, %r8
	xorl	%r10d, %r10d
	movl	%r10d, %r9d
	movabsq	$.L.str.97, %rax
	movq	-528(%rbp), %rdx        # 8-byte Reload
	movq	%rax, (%rsp)
	callq	trace_logger_log_int
	movl	$116, %r10d
	movl	%r10d, %edi
	movabsq	$.L.str.93, %rsi
	movabsq	$.L.str.104, %rdx
	movabsq	$.L.str.11, %rcx
	movl	$32, %r10d
	movl	%r10d, %r8d
	xorl	%r9d, %r9d
	movl	$1, %r10d
.Ltmp54:
	#DEBUG_VALUE: buildNeighborList:k <- [DW_OP_constu 528, DW_OP_minus] [%rbp+0]
	.loc	1 116 4                 # md.c:116:4
	movl	$1, (%rsp)
	movl	%r10d, -556(%rbp)       # 4-byte Spill
	callq	trace_logger_log0
	movl	$3, %r9d
	movl	%r9d, %edi
	movl	$64, %r9d
	movl	%r9d, %esi
	movl	$1, %r9d
	movl	%r9d, %ecx
	movabsq	$.L.str.23, %r8
	xorl	%r9d, %r9d
                                        # kill: def %r9 killed %r9d
	movabsq	$.L.str.6, %rax
	movq	-528(%rbp), %rdx        # 8-byte Reload
	movq	%rax, (%rsp)
	callq	trace_logger_log_int
	movl	$2, %r10d
	movl	%r10d, %edi
	movl	$64, %r10d
	movl	%r10d, %esi
	xorl	%r10d, %r10d
	movl	%r10d, %eax
	movabsq	$.L.str.10, %r8
	movabsq	$.L.str.6, %rcx
	movq	%rax, %rdx
	movq	%rcx, -568(%rbp)        # 8-byte Spill
	movq	%rax, %rcx
	movq	%rax, %r9
	movq	-568(%rbp), %rax        # 8-byte Reload
	movq	%rax, (%rsp)
	callq	trace_logger_log_int
	movl	$1, %r10d
	movl	%r10d, %eax
	movl	$64, %r10d
	movl	%r10d, %esi
	movabsq	$.L.str.94, %r8
	xorl	%r10d, %r10d
	movl	%r10d, %r9d
	movabsq	$.L.str.6, %rcx
	leaq	-160(%rbp), %rdx
	movq	%rax, %rdi
	movq	%rcx, -576(%rbp)        # 8-byte Spill
	movq	%rax, %rcx
	movq	-576(%rbp), %rax        # 8-byte Reload
	movq	%rax, (%rsp)
	callq	trace_logger_log_ptr
	movl	$19134, %r10d           # imm = 0x4ABE
	movl	%r10d, %edi
	movl	$64, %r10d
	movl	%r10d, %esi
	movl	$1, %r10d
	movl	%r10d, %ecx
	movabsq	$.L.str.11, %r8
	xorl	%r10d, %r10d
	movl	%r10d, %r9d
	movabsq	$.L.str.6, %rax
	leaq	-160(%rbp), %rdx
	movq	-528(%rbp), %r11        # 8-byte Reload
	shlq	$2, %r11
	addq	%r11, %rdx
	.loc	1 116 16 is_stmt 0      # md.c:116:16
	movq	%rdx, -584(%rbp)        # 8-byte Spill
	movq	%rax, (%rsp)
	callq	trace_logger_log_ptr
	movl	$116, %r10d
	movl	%r10d, %edi
	movabsq	$.L.str.93, %rsi
	movabsq	$.L.str.104, %rdx
	movabsq	$.L.str.105, %rcx
	movl	$31, %r10d
	movl	%r10d, %r8d
	xorl	%r9d, %r9d
	movl	$1, %r10d
	movl	$1, (%rsp)
	movl	%r10d, -588(%rbp)       # 4-byte Spill
	callq	trace_logger_log0
	movl	$2, %r9d
	movl	%r9d, %edi
	movl	$64, %r9d
	movl	%r9d, %esi
	movl	$1, %r9d
	movl	%r9d, %ecx
	movabsq	$.L.str.11, %r8
	xorl	%r9d, %r9d
                                        # kill: def %r9 killed %r9d
	movabsq	$.L.str.6, %rax
	movq	-584(%rbp), %rdx        # 8-byte Reload
	movq	%rax, (%rsp)
	callq	trace_logger_log_ptr
	movl	$1, %r10d
	movl	%r10d, %eax
	movl	$32, %r10d
	movl	%r10d, %esi
	xorl	%r10d, %r10d
	movl	%r10d, %ecx
	movabsq	$.L.str.102, %r8
	movabsq	$.L.str.6, %rdx
	movq	%rax, %rdi
	movq	%rdx, -600(%rbp)        # 8-byte Spill
	movq	%rcx, %rdx
	movq	%rcx, -608(%rbp)        # 8-byte Spill
	movq	%rax, %rcx
	movq	-608(%rbp), %r9         # 8-byte Reload
	movq	-600(%rbp), %rax        # 8-byte Reload
	movq	%rax, (%rsp)
	callq	trace_logger_log_int
	movl	$115, %r10d
	movl	%r10d, %edi
	movabsq	$.L.str.93, %rsi
	movabsq	$.L.str.104, %rdx
	movabsq	$.L.str.24, %rcx
	movl	$11, %r10d
	movl	%r10d, %r8d
	xorl	%r9d, %r9d
	movl	$1, %r10d
	movq	-528(%rbp), %rax        # 8-byte Reload
	movl	$0, -160(%rbp,%rax,4)
.Ltmp55:
	#DEBUG_VALUE: currDist <- 999999999
	.loc	1 115 29 is_stmt 1      # md.c:115:29
	movl	$1, (%rsp)
	movl	%r10d, -612(%rbp)       # 4-byte Spill
	callq	trace_logger_log0
	movl	$2, %r9d
	movl	%r9d, %edi
	movl	$64, %r9d
	movl	%r9d, %esi
	movl	$1, %r9d
	movl	%r9d, %edx
	xorl	%r9d, %r9d
	movl	%r9d, %eax
	movabsq	$.L.str.10, %r8
	movabsq	$.L.str.6, %rcx
	movq	%rcx, -624(%rbp)        # 8-byte Spill
	movq	%rax, %rcx
	movq	%rax, %r9
	movq	-624(%rbp), %rax        # 8-byte Reload
	movq	%rax, (%rsp)
	callq	trace_logger_log_int
	movl	$1, %r10d
	movl	%r10d, %eax
	movl	$64, %r10d
	movl	%r10d, %esi
	movabsq	$.L.str.23, %r8
	xorl	%r10d, %r10d
	movl	%r10d, %r9d
	movabsq	$.L.str.6, %rcx
	movq	%rax, %rdi
	movq	-528(%rbp), %rdx        # 8-byte Reload
	movq	%rcx, -632(%rbp)        # 8-byte Spill
	movq	%rax, %rcx
	movq	-632(%rbp), %rax        # 8-byte Reload
	movq	%rax, (%rsp)
	callq	trace_logger_log_int
	movl	$19134, %r10d           # imm = 0x4ABE
	movl	%r10d, %edi
	movl	$64, %r10d
	movl	%r10d, %esi
	movl	$1, %r10d
	movl	%r10d, %ecx
	movabsq	$.L.str.24, %r8
	xorl	%r10d, %r10d
	movl	%r10d, %r9d
	movabsq	$.L.str.6, %rax
	movq	-528(%rbp), %rdx        # 8-byte Reload
	addq	$1, %rdx
	.loc	1 115 13 is_stmt 0      # md.c:115:13
	movq	%rdx, -640(%rbp)        # 8-byte Spill
	movq	%rax, (%rsp)
	callq	trace_logger_log_int
	movl	$115, %r10d
	movl	%r10d, %edi
	movabsq	$.L.str.93, %rsi
	movabsq	$.L.str.104, %rdx
	movabsq	$.L.str.60, %rcx
	movl	$51, %r10d
	movl	%r10d, %r8d
	xorl	%r9d, %r9d
	movl	$1, %r10d
	movl	$1, (%rsp)
	movl	%r10d, -644(%rbp)       # 4-byte Spill
	callq	trace_logger_log0
	movl	$2, %r9d
	movl	%r9d, %edi
	movl	$64, %r9d
	movl	%r9d, %esi
	movl	$32, %r9d
	movl	%r9d, %edx
	xorl	%r9d, %r9d
	movl	%r9d, %eax
	movabsq	$.L.str.10, %r8
	movabsq	$.L.str.6, %rcx
	movq	%rcx, -656(%rbp)        # 8-byte Spill
	movq	%rax, %rcx
	movq	%rax, %r9
	movq	-656(%rbp), %rax        # 8-byte Reload
	movq	%rax, (%rsp)
	callq	trace_logger_log_int
	movl	$1, %r10d
	movl	%r10d, %eax
	movl	$64, %r10d
	movl	%r10d, %esi
	movabsq	$.L.str.24, %r8
	xorl	%r10d, %r10d
	movl	%r10d, %r9d
	movabsq	$.L.str.6, %rcx
	movq	%rax, %rdi
	movq	-640(%rbp), %rdx        # 8-byte Reload
	movq	%rcx, -664(%rbp)        # 8-byte Spill
	movq	%rax, %rcx
	movq	-664(%rbp), %rax        # 8-byte Reload
	movq	%rax, (%rsp)
	callq	trace_logger_log_int
	movl	$19134, %r10d           # imm = 0x4ABE
	movl	%r10d, %edi
	movl	$1, %r10d
	movl	%r10d, %eax
	movabsq	$.L.str.60, %r8
	xorl	%r10d, %r10d
	movl	%r10d, %r9d
	movabsq	$.L.str.6, %rcx
	movq	-640(%rbp), %rdx        # 8-byte Reload
	cmpq	$32, %rdx
	sete	%bl
.Ltmp56:
	.loc	1 115 3                 # md.c:115:3
	movb	%bl, %r14b
	andb	$1, %r14b
	movzbl	%r14b, %r10d
	movl	%r10d, %edx
	movq	%rax, %rsi
	movq	%rcx, -672(%rbp)        # 8-byte Spill
	movq	%rax, %rcx
	movq	-672(%rbp), %rax        # 8-byte Reload
	movq	%rax, (%rsp)
	movb	%bl, -673(%rbp)         # 1-byte Spill
	callq	trace_logger_log_int
	movl	$115, %r10d
	movl	%r10d, %edi
	movabsq	$.L.str.93, %rsi
	movabsq	$.L.str.104, %rdx
	movabsq	$.L.str.106, %rcx
	movl	$2, %r10d
	movl	%r10d, %r8d
	xorl	%r9d, %r9d
	movl	$1, %r10d
	movl	$1, (%rsp)
	movl	%r10d, -680(%rbp)       # 4-byte Spill
	callq	trace_logger_log0
	movl	$3, %r9d
	movl	%r9d, %edi
	xorl	%r9d, %r9d
	movl	%r9d, %eax
	movl	$1, %r9d
	movl	%r9d, %ecx
	movabsq	$.L.str.107, %r8
	movabsq	$.L.str.6, %rdx
	movq	%rax, %rsi
	movq	%rdx, -688(%rbp)        # 8-byte Spill
	movq	%rax, %rdx
	movq	%rax, %r9
	movq	-688(%rbp), %rax        # 8-byte Reload
	movq	%rax, (%rsp)
	callq	trace_logger_log_int
	movl	$2, %r10d
	movl	%r10d, %edi
	xorl	%r10d, %r10d
	movl	%r10d, %eax
	movl	$1, %r10d
	movl	%r10d, %ecx
	movabsq	$.L.str.104, %r8
	movabsq	$.L.str.6, %rdx
	movq	%rax, %rsi
	movq	%rdx, -696(%rbp)        # 8-byte Spill
	movq	%rax, %rdx
	movq	%rax, %r9
	movq	-696(%rbp), %rax        # 8-byte Reload
	movq	%rax, (%rsp)
	callq	trace_logger_log_int
	movl	$1, %r10d
	movl	%r10d, %eax
	movabsq	$.L.str.60, %r8
	xorl	%r10d, %r10d
	movl	%r10d, %r9d
	movabsq	$.L.str.6, %rcx
	movb	-673(%rbp), %bl         # 1-byte Reload
	andb	$1, %bl
	movzbl	%bl, %r10d
	movl	%r10d, %edx
	movq	%rax, %rdi
	movq	%rax, %rsi
	movq	%rcx, -704(%rbp)        # 8-byte Spill
	movq	%rax, %rcx
	movq	-704(%rbp), %rax        # 8-byte Reload
	movq	%rax, (%rsp)
	callq	trace_logger_log_int
	movb	-673(%rbp), %bl         # 1-byte Reload
	testb	$1, %bl
	movq	-640(%rbp), %rax        # 8-byte Reload
	movq	%rax, -520(%rbp)        # 8-byte Spill
	jne	.LBB2_3
	jmp	.LBB2_2
.Ltmp57:
.LBB2_3:                                # %.preheader
                                        #   in Loop: Header=BB2_1 Depth=1
	#DEBUG_VALUE: buildNeighborList:k <- [DW_OP_constu 528, DW_OP_minus] [%rbp+0]
	#DEBUG_VALUE: buildNeighborList:totalPairs <- [DW_OP_constu 404, DW_OP_minus] [%rbp+0]
	#DEBUG_VALUE: buildNeighborList:i <- [DW_OP_constu 400, DW_OP_minus] [%rbp+0]
	#DEBUG_VALUE: buildNeighborList:NL <- [DW_OP_constu 192, DW_OP_minus] [%rbp+0]
	#DEBUG_VALUE: buildNeighborList:position_z <- [DW_OP_constu 184, DW_OP_minus] [%rbp+0]
	#DEBUG_VALUE: buildNeighborList:position_y <- [DW_OP_constu 176, DW_OP_minus] [%rbp+0]
	#DEBUG_VALUE: buildNeighborList:position_x <- [DW_OP_constu 168, DW_OP_minus] [%rbp+0]
	.loc	1 0 3                   # md.c:0:3
	movl	$119, %eax
	movl	%eax, %edi
	movabsq	$.L.str.93, %rsi
	movabsq	$.L.str.107, %rdx
	movabsq	$.L.str.108, %rcx
	movl	$2, %eax
	movl	%eax, %r8d
	xorl	%r9d, %r9d
	movl	$1, %eax
.Ltmp58:
	.loc	1 120 10 is_stmt 1      # md.c:120:10
	movl	$1, (%rsp)
	movl	%eax, -708(%rbp)        # 4-byte Spill
	callq	trace_logger_log0
	movl	$1, %eax
	movl	%eax, %ecx
	xorl	%eax, %eax
	movl	%eax, %edx
	movabsq	$.L.str.109, %r8
	movabsq	$.L.str.6, %rsi
	movq	%rcx, %rdi
	movq	%rsi, -720(%rbp)        # 8-byte Spill
	movq	%rdx, %rsi
	movq	%rdx, -728(%rbp)        # 8-byte Spill
	movq	-728(%rbp), %r9         # 8-byte Reload
	movq	-720(%rbp), %r10        # 8-byte Reload
	movq	%r10, (%rsp)
	callq	trace_logger_log_int
	xorl	%eax, %eax
	movl	%eax, %ecx
	movq	%rcx, -736(%rbp)        # 8-byte Spill
.Ltmp59:
.LBB2_4:                                #   Parent Loop BB2_1 Depth=1
                                        # =>  This Inner Loop Header: Depth=2
	#DEBUG_VALUE: buildNeighborList:k <- [DW_OP_constu 528, DW_OP_minus] [%rbp+0]
	#DEBUG_VALUE: buildNeighborList:totalPairs <- [DW_OP_constu 404, DW_OP_minus] [%rbp+0]
	#DEBUG_VALUE: buildNeighborList:i <- [DW_OP_constu 400, DW_OP_minus] [%rbp+0]
	#DEBUG_VALUE: buildNeighborList:NL <- [DW_OP_constu 192, DW_OP_minus] [%rbp+0]
	#DEBUG_VALUE: buildNeighborList:position_z <- [DW_OP_constu 184, DW_OP_minus] [%rbp+0]
	#DEBUG_VALUE: buildNeighborList:position_y <- [DW_OP_constu 176, DW_OP_minus] [%rbp+0]
	#DEBUG_VALUE: buildNeighborList:position_x <- [DW_OP_constu 168, DW_OP_minus] [%rbp+0]
	.loc	1 0 10 is_stmt 0        # md.c:0:10
	movq	-736(%rbp), %rax        # 8-byte Reload
	movq	$-1, %rdi
	movabsq	$.L.str.93, %rsi
	movabsq	$.L.str.109, %rdx
	movabsq	$.L.str.110, %rcx
	movl	$53, %r8d
                                        # kill: def %r8 killed %r8d
	xorl	%r9d, %r9d
	movl	$1, %r10d
	.loc	1 109 21 is_stmt 1      # md.c:109:21
	movl	$1, (%rsp)
	movq	%rax, -744(%rbp)        # 8-byte Spill
	movl	%r10d, -748(%rbp)       # 4-byte Spill
	callq	trace_logger_log0
	movl	$2, %r9d
	movl	%r9d, %edi
	movl	$64, %r9d
	movl	%r9d, %esi
	xorl	%r9d, %r9d
	movl	%r9d, %eax
	movabsq	$.L.str.10, %r8
	movl	$1, %r9d
                                        # kill: def %r9 killed %r9d
	movabsq	$.L.str.107, %rcx
	movq	%rax, %rdx
	movq	%rcx, -760(%rbp)        # 8-byte Spill
	movq	%rax, %rcx
	movq	-760(%rbp), %rax        # 8-byte Reload
	movq	%rax, (%rsp)
	callq	trace_logger_log_int
	movl	$1, %r10d
	movl	%r10d, %eax
	movl	$64, %r10d
	movl	%r10d, %esi
	xorl	%r10d, %r10d
	movl	%r10d, %edx
	movabsq	$.L.str.111, %r8
	movabsq	$.L.str.112, %rcx
	movq	%rax, %rdi
	movq	%rcx, -768(%rbp)        # 8-byte Spill
	movq	%rax, %rcx
	movq	%rax, %r9
	movq	-768(%rbp), %rax        # 8-byte Reload
	movq	%rax, (%rsp)
	callq	trace_logger_log_int
	movl	$19134, %r10d           # imm = 0x4ABE
	movl	%r10d, %edi
	movl	$64, %r10d
	movl	%r10d, %esi
	movl	$1, %r10d
	movl	%r10d, %ecx
	movabsq	$.L.str.110, %r8
	xorl	%r10d, %r10d
	movl	%r10d, %r9d
	movabsq	$.L.str.112, %rax
	movq	-744(%rbp), %rdx        # 8-byte Reload
	movq	%rax, (%rsp)
	callq	trace_logger_log_int
	movl	$120, %r10d
	movl	%r10d, %edi
	movabsq	$.L.str.93, %rsi
	movabsq	$.L.str.109, %rdx
	movabsq	$.L.str.113, %rcx
	movl	$51, %r10d
	movl	%r10d, %r8d
	xorl	%r9d, %r9d
	movl	$1, %r10d
.Ltmp60:
	#DEBUG_VALUE: buildNeighborList:j <- [DW_OP_constu 744, DW_OP_minus] [%rbp+0]
	.loc	1 120 10                # md.c:120:10
	movl	$1, (%rsp)
	movl	%r10d, -772(%rbp)       # 4-byte Spill
	callq	trace_logger_log0
	movl	$2, %r9d
	movl	%r9d, %edi
	movl	$64, %r9d
	movl	%r9d, %esi
	movl	$1, %r9d
	movl	%r9d, %ecx
	movabsq	$.L.str.110, %r8
	xorl	%r9d, %r9d
                                        # kill: def %r9 killed %r9d
	movabsq	$.L.str.6, %rax
	movq	-744(%rbp), %rdx        # 8-byte Reload
	movq	%rax, (%rsp)
	callq	trace_logger_log_int
	movl	$1, %r10d
	movl	%r10d, %eax
	movl	$64, %r10d
	movl	%r10d, %esi
	movabsq	$.L.str.98, %r8
	xorl	%r10d, %r10d
	movl	%r10d, %r9d
	movabsq	$.L.str.6, %rcx
	movq	%rax, %rdi
	movq	-400(%rbp), %rdx        # 8-byte Reload
	movq	%rcx, -784(%rbp)        # 8-byte Spill
	movq	%rax, %rcx
	movq	-784(%rbp), %rax        # 8-byte Reload
	movq	%rax, (%rsp)
	callq	trace_logger_log_int
	movl	$19134, %r10d           # imm = 0x4ABE
	movl	%r10d, %edi
	movl	$1, %r10d
	movl	%r10d, %eax
	movabsq	$.L.str.113, %r8
	xorl	%r10d, %r10d
	movl	%r10d, %r9d
	movabsq	$.L.str.6, %rcx
	movq	-400(%rbp), %rdx        # 8-byte Reload
	movq	-744(%rbp), %rsi        # 8-byte Reload
	cmpq	%rsi, %rdx
	sete	%r11b
.Ltmp61:
	.loc	1 120 8 is_stmt 0       # md.c:120:8
	movb	%r11b, %bl
	andb	$1, %bl
	movzbl	%bl, %r10d
	movl	%r10d, %edx
	movq	%rax, %rsi
	movq	%rcx, -792(%rbp)        # 8-byte Spill
	movq	%rax, %rcx
	movq	-792(%rbp), %rax        # 8-byte Reload
	movq	%rax, (%rsp)
	movb	%r11b, -793(%rbp)       # 1-byte Spill
	callq	trace_logger_log_int
	movl	$120, %r10d
	movl	%r10d, %edi
	movabsq	$.L.str.93, %rsi
	movabsq	$.L.str.109, %rdx
	movabsq	$.L.str.114, %rcx
	movl	$2, %r10d
	movl	%r10d, %r8d
	xorl	%r9d, %r9d
	movl	$1, %r10d
	movl	$1, (%rsp)
	movl	%r10d, -800(%rbp)       # 4-byte Spill
	callq	trace_logger_log0
	movl	$3, %r9d
	movl	%r9d, %edi
	xorl	%r9d, %r9d
	movl	%r9d, %eax
	movl	$1, %r9d
	movl	%r9d, %ecx
	movabsq	$.L.str.112, %r8
	movabsq	$.L.str.6, %rdx
	movq	%rax, %rsi
	movq	%rdx, -808(%rbp)        # 8-byte Spill
	movq	%rax, %rdx
	movq	%rax, %r9
	movq	-808(%rbp), %rax        # 8-byte Reload
	movq	%rax, (%rsp)
	callq	trace_logger_log_int
	movl	$2, %r10d
	movl	%r10d, %edi
	xorl	%r10d, %r10d
	movl	%r10d, %eax
	movl	$1, %r10d
	movl	%r10d, %ecx
	movabsq	$.L.str.115, %r8
	movabsq	$.L.str.6, %rdx
	movq	%rax, %rsi
	movq	%rdx, -816(%rbp)        # 8-byte Spill
	movq	%rax, %rdx
	movq	%rax, %r9
	movq	-816(%rbp), %rax        # 8-byte Reload
	movq	%rax, (%rsp)
	callq	trace_logger_log_int
	movl	$1, %r10d
	movl	%r10d, %eax
	movabsq	$.L.str.113, %r8
	xorl	%r10d, %r10d
	movl	%r10d, %r9d
	movabsq	$.L.str.6, %rcx
	movb	-793(%rbp), %r11b       # 1-byte Reload
	andb	$1, %r11b
	movzbl	%r11b, %r10d
	movl	%r10d, %edx
	movq	%rax, %rdi
	movq	%rax, %rsi
	movq	%rcx, -824(%rbp)        # 8-byte Spill
	movq	%rax, %rcx
	movq	-824(%rbp), %rax        # 8-byte Reload
	movq	%rax, (%rsp)
	callq	trace_logger_log_int
	movb	-793(%rbp), %r11b       # 1-byte Reload
	testb	$1, %r11b
	jne	.LBB2_6
# %bb.5:                                #   in Loop: Header=BB2_4 Depth=2
	#DEBUG_VALUE: buildNeighborList:j <- [DW_OP_constu 744, DW_OP_minus] [%rbp+0]
	#DEBUG_VALUE: buildNeighborList:k <- [DW_OP_constu 528, DW_OP_minus] [%rbp+0]
	#DEBUG_VALUE: buildNeighborList:totalPairs <- [DW_OP_constu 404, DW_OP_minus] [%rbp+0]
	#DEBUG_VALUE: buildNeighborList:i <- [DW_OP_constu 400, DW_OP_minus] [%rbp+0]
	#DEBUG_VALUE: buildNeighborList:NL <- [DW_OP_constu 192, DW_OP_minus] [%rbp+0]
	#DEBUG_VALUE: buildNeighborList:position_z <- [DW_OP_constu 184, DW_OP_minus] [%rbp+0]
	#DEBUG_VALUE: buildNeighborList:position_y <- [DW_OP_constu 176, DW_OP_minus] [%rbp+0]
	#DEBUG_VALUE: buildNeighborList:position_x <- [DW_OP_constu 168, DW_OP_minus] [%rbp+0]
	.loc	1 0 8                   # md.c:0:8
	movl	$125, %eax
	movl	%eax, %edi
	movabsq	$.L.str.93, %rsi
	movabsq	$.L.str.115, %rdx
	movabsq	$.L.str.33, %rcx
	movl	$32, %eax
	movl	%eax, %r8d
	xorl	%r9d, %r9d
	movl	$1, %eax
	.loc	1 125 4 is_stmt 1       # md.c:125:4
	movl	$1, (%rsp)
	movl	%eax, -828(%rbp)        # 4-byte Spill
	callq	trace_logger_log0
	movl	$3, %eax
	movl	%eax, %edi
	movl	$64, %eax
	movl	%eax, %esi
	movl	$1, %eax
	movl	%eax, %ecx
	movabsq	$.L.str.110, %r8
	xorl	%eax, %eax
	movl	%eax, %r9d
	movabsq	$.L.str.6, %rdx
	movq	-744(%rbp), %r10        # 8-byte Reload
	movq	%rdx, -840(%rbp)        # 8-byte Spill
	movq	%r10, %rdx
	movq	-840(%rbp), %r11        # 8-byte Reload
	movq	%r11, (%rsp)
	callq	trace_logger_log_int
	movl	$2, %eax
	movl	%eax, %edi
	movl	$64, %eax
	movl	%eax, %esi
	xorl	%eax, %eax
	movl	%eax, %ecx
	movabsq	$.L.str.10, %r8
	movabsq	$.L.str.6, %rdx
	movq	%rdx, -848(%rbp)        # 8-byte Spill
	movq	%rcx, %rdx
	movq	%rcx, -856(%rbp)        # 8-byte Spill
	movq	-856(%rbp), %r9         # 8-byte Reload
	movq	-848(%rbp), %r10        # 8-byte Reload
	movq	%r10, (%rsp)
	callq	trace_logger_log_int
	movl	$1, %eax
	movl	%eax, %ecx
	movl	$64, %eax
	movl	%eax, %esi
	movabsq	$.L.str.94, %r8
	xorl	%eax, %eax
	movl	%eax, %r9d
	movabsq	$.L.str.6, %rdx
	leaq	-160(%rbp), %rdi
	movq	%rdi, -864(%rbp)        # 8-byte Spill
	movq	%rcx, %rdi
	movq	-864(%rbp), %r10        # 8-byte Reload
	movq	%rdx, -872(%rbp)        # 8-byte Spill
	movq	%r10, %rdx
	movq	-872(%rbp), %r11        # 8-byte Reload
	movq	%r11, (%rsp)
	callq	trace_logger_log_ptr
	movl	$19134, %eax            # imm = 0x4ABE
	movl	%eax, %edi
	movl	$64, %eax
	movl	%eax, %esi
	movl	$1, %eax
	movl	%eax, %ecx
	movabsq	$.L.str.33, %r8
	xorl	%eax, %eax
	movl	%eax, %r9d
	movabsq	$.L.str.6, %rdx
	leaq	-160(%rbp), %r10
	movq	-744(%rbp), %r11        # 8-byte Reload
	shlq	$2, %r11
	addq	%r11, %r10
	.loc	1 125 16 is_stmt 0      # md.c:125:16
	movq	%rdx, -880(%rbp)        # 8-byte Spill
	movq	%r10, %rdx
	movq	-880(%rbp), %r11        # 8-byte Reload
	movq	%r11, (%rsp)
	movq	%r10, -888(%rbp)        # 8-byte Spill
	callq	trace_logger_log_ptr
	movl	$125, %eax
	movl	%eax, %edi
	movabsq	$.L.str.93, %rsi
	movabsq	$.L.str.115, %rdx
	movabsq	$.L.str.85, %rcx
	movl	$36, %eax
	movl	%eax, %r8d
	xorl	%r9d, %r9d
	movl	$1, %eax
	movl	$1, (%rsp)
	movl	%eax, -892(%rbp)        # 4-byte Spill
	callq	trace_logger_log0
	movl	$1, %eax
	movl	%eax, %ecx
	movl	$64, %eax
	movl	%eax, %esi
	movabsq	$.L.str.110, %r8
	xorl	%eax, %eax
	movl	%eax, %r9d
	movabsq	$.L.str.6, %rdx
	movq	%rcx, %rdi
	movq	-744(%rbp), %r10        # 8-byte Reload
	movq	%rdx, -904(%rbp)        # 8-byte Spill
	movq	%r10, %rdx
	movq	-904(%rbp), %r11        # 8-byte Reload
	movq	%r11, (%rsp)
	callq	trace_logger_log_int
	movl	$19134, %eax            # imm = 0x4ABE
	movl	%eax, %edi
	movl	$32, %eax
	movl	%eax, %esi
	movl	$1, %eax
	movl	%eax, %ecx
	movabsq	$.L.str.85, %r8
	xorl	%eax, %eax
	movl	%eax, %r9d
	movabsq	$.L.str.6, %rdx
	movq	-744(%rbp), %r10        # 8-byte Reload
	movl	%r10d, %eax
	movl	%eax, %ebx
	movl	%ebx, %r11d
	movq	%rdx, -912(%rbp)        # 8-byte Spill
	movq	%r11, %rdx
	movq	-912(%rbp), %r11        # 8-byte Reload
	movq	%r11, (%rsp)
	movl	%eax, -916(%rbp)        # 4-byte Spill
	callq	trace_logger_log_int
	movl	$125, %eax
	movl	%eax, %edi
	movabsq	$.L.str.93, %rsi
	movabsq	$.L.str.115, %rdx
	movabsq	$.L.str.116, %rcx
	movl	$31, %eax
	movl	%eax, %r8d
	xorl	%r9d, %r9d
	movl	$1, %eax
	movl	$1, (%rsp)
	movl	%eax, -920(%rbp)        # 4-byte Spill
	callq	trace_logger_log0
	movl	$2, %eax
	movl	%eax, %edi
	movl	$64, %eax
	movl	%eax, %esi
	movl	$1, %eax
	movl	%eax, %ecx
	movabsq	$.L.str.33, %r8
	xorl	%eax, %eax
	movl	%eax, %r9d
	movabsq	$.L.str.6, %rdx
	movq	-888(%rbp), %r10        # 8-byte Reload
	movq	%rdx, -928(%rbp)        # 8-byte Spill
	movq	%r10, %rdx
	movq	-928(%rbp), %r11        # 8-byte Reload
	movq	%r11, (%rsp)
	callq	trace_logger_log_ptr
	movl	$1, %eax
	movl	%eax, %ecx
	movl	$32, %eax
	movl	%eax, %esi
	movabsq	$.L.str.85, %r8
	xorl	%eax, %eax
	movl	%eax, %r9d
	movabsq	$.L.str.6, %rdx
	movl	-916(%rbp), %eax        # 4-byte Reload
	movl	%eax, %ebx
	movl	%ebx, %edi
	movq	%rdi, -936(%rbp)        # 8-byte Spill
	movq	%rcx, %rdi
	movq	-936(%rbp), %r10        # 8-byte Reload
	movq	%rdx, -944(%rbp)        # 8-byte Spill
	movq	%r10, %rdx
	movq	-944(%rbp), %r11        # 8-byte Reload
	movq	%r11, (%rsp)
	callq	trace_logger_log_int
	movl	$127, %eax
	movl	%eax, %edi
	movabsq	$.L.str.93, %rsi
	movabsq	$.L.str.115, %rdx
	movabsq	$.L.str.117, %rcx
	movl	$2, %eax
	movl	%eax, %r8d
	xorl	%r9d, %r9d
	movl	$1, %eax
	movq	-744(%rbp), %r10        # 8-byte Reload
	movl	-916(%rbp), %ebx        # 4-byte Reload
	movl	%ebx, -160(%rbp,%r10,4)
	.loc	1 127 3 is_stmt 1       # md.c:127:3
	movl	$1, (%rsp)
	movl	%eax, -948(%rbp)        # 4-byte Spill
	callq	trace_logger_log0
	movl	$1, %eax
	movl	%eax, %ecx
	xorl	%eax, %eax
	movl	%eax, %edx
	movabsq	$.L.str.112, %r8
	movabsq	$.L.str.6, %rsi
	movq	%rcx, %rdi
	movq	%rsi, -960(%rbp)        # 8-byte Spill
	movq	%rdx, %rsi
	movq	%rdx, -968(%rbp)        # 8-byte Spill
	movq	-968(%rbp), %r9         # 8-byte Reload
	movq	-960(%rbp), %r10        # 8-byte Reload
	movq	%r10, (%rsp)
	callq	trace_logger_log_int
.Ltmp62:
.LBB2_6:                                #   in Loop: Header=BB2_4 Depth=2
	#DEBUG_VALUE: buildNeighborList:j <- [DW_OP_constu 744, DW_OP_minus] [%rbp+0]
	#DEBUG_VALUE: buildNeighborList:k <- [DW_OP_constu 528, DW_OP_minus] [%rbp+0]
	#DEBUG_VALUE: buildNeighborList:totalPairs <- [DW_OP_constu 404, DW_OP_minus] [%rbp+0]
	#DEBUG_VALUE: buildNeighborList:i <- [DW_OP_constu 400, DW_OP_minus] [%rbp+0]
	#DEBUG_VALUE: buildNeighborList:NL <- [DW_OP_constu 192, DW_OP_minus] [%rbp+0]
	#DEBUG_VALUE: buildNeighborList:position_z <- [DW_OP_constu 184, DW_OP_minus] [%rbp+0]
	#DEBUG_VALUE: buildNeighborList:position_y <- [DW_OP_constu 176, DW_OP_minus] [%rbp+0]
	#DEBUG_VALUE: buildNeighborList:position_x <- [DW_OP_constu 168, DW_OP_minus] [%rbp+0]
	.loc	1 0 3 is_stmt 0         # md.c:0:3
	movl	$119, %eax
	movl	%eax, %edi
	movabsq	$.L.str.93, %rsi
	movabsq	$.L.str.112, %rdx
	movabsq	$.L.str.111, %rcx
	movl	$11, %eax
	movl	%eax, %r8d
	xorl	%r9d, %r9d
	movl	$1, %eax
	.loc	1 119 28 is_stmt 1      # md.c:119:28
	movl	$1, (%rsp)
	movl	%eax, -972(%rbp)        # 4-byte Spill
	callq	trace_logger_log0
	movl	$2, %eax
	movl	%eax, %edi
	movl	$64, %eax
	movl	%eax, %esi
	movl	$1, %eax
	movl	%eax, %edx
	xorl	%eax, %eax
	movl	%eax, %ecx
	movabsq	$.L.str.10, %r8
	movabsq	$.L.str.6, %r10
	movq	%rcx, -984(%rbp)        # 8-byte Spill
	movq	-984(%rbp), %r9         # 8-byte Reload
	movq	%r10, (%rsp)
	callq	trace_logger_log_int
	movl	$1, %eax
	movl	%eax, %ecx
	movl	$64, %eax
	movl	%eax, %esi
	movabsq	$.L.str.110, %r8
	xorl	%eax, %eax
	movl	%eax, %r9d
	movabsq	$.L.str.6, %rdx
	movq	%rcx, %rdi
	movq	-744(%rbp), %r10        # 8-byte Reload
	movq	%rdx, -992(%rbp)        # 8-byte Spill
	movq	%r10, %rdx
	movq	-992(%rbp), %r11        # 8-byte Reload
	movq	%r11, (%rsp)
	callq	trace_logger_log_int
	movl	$19134, %eax            # imm = 0x4ABE
	movl	%eax, %edi
	movl	$64, %eax
	movl	%eax, %esi
	movl	$1, %eax
	movl	%eax, %ecx
	movabsq	$.L.str.111, %r8
	xorl	%eax, %eax
	movl	%eax, %r9d
	movabsq	$.L.str.6, %rdx
	movq	-744(%rbp), %r10        # 8-byte Reload
	addq	$1, %r10
	.loc	1 119 17 is_stmt 0      # md.c:119:17
	movq	%rdx, -1000(%rbp)       # 8-byte Spill
	movq	%r10, %rdx
	movq	-1000(%rbp), %r11       # 8-byte Reload
	movq	%r11, (%rsp)
	movq	%r10, -1008(%rbp)       # 8-byte Spill
	callq	trace_logger_log_int
	movl	$119, %eax
	movl	%eax, %edi
	movabsq	$.L.str.93, %rsi
	movabsq	$.L.str.112, %rdx
	movabsq	$.L.str.118, %rcx
	movl	$51, %eax
	movl	%eax, %r8d
	xorl	%r9d, %r9d
	movl	$1, %eax
	movl	$1, (%rsp)
	movl	%eax, -1012(%rbp)       # 4-byte Spill
	callq	trace_logger_log0
	movl	$2, %eax
	movl	%eax, %edi
	movl	$64, %eax
	movl	%eax, %esi
	movl	$32, %eax
	movl	%eax, %edx
	xorl	%eax, %eax
	movl	%eax, %ecx
	movabsq	$.L.str.10, %r8
	movabsq	$.L.str.6, %r10
	movq	%rcx, -1024(%rbp)       # 8-byte Spill
	movq	-1024(%rbp), %r9        # 8-byte Reload
	movq	%r10, (%rsp)
	callq	trace_logger_log_int
	movl	$1, %eax
	movl	%eax, %ecx
	movl	$64, %eax
	movl	%eax, %esi
	movabsq	$.L.str.111, %r8
	xorl	%eax, %eax
	movl	%eax, %r9d
	movabsq	$.L.str.6, %rdx
	movq	%rcx, %rdi
	movq	-1008(%rbp), %r10       # 8-byte Reload
	movq	%rdx, -1032(%rbp)       # 8-byte Spill
	movq	%r10, %rdx
	movq	-1032(%rbp), %r11       # 8-byte Reload
	movq	%r11, (%rsp)
	callq	trace_logger_log_int
	movl	$19134, %eax            # imm = 0x4ABE
	movl	%eax, %edi
	movl	$1, %eax
	movl	%eax, %ecx
	movabsq	$.L.str.118, %r8
	xorl	%eax, %eax
	movl	%eax, %r9d
	movabsq	$.L.str.6, %rdx
	movq	-1008(%rbp), %rsi       # 8-byte Reload
	cmpq	$32, %rsi
	sete	%bl
.Ltmp63:
	.loc	1 119 3                 # md.c:119:3
	movb	%bl, %r14b
	andb	$1, %r14b
	movzbl	%r14b, %eax
	movl	%eax, %r10d
	movq	%rcx, %rsi
	movq	%rdx, -1040(%rbp)       # 8-byte Spill
	movq	%r10, %rdx
	movq	-1040(%rbp), %r10       # 8-byte Reload
	movq	%r10, (%rsp)
	movb	%bl, -1041(%rbp)        # 1-byte Spill
	callq	trace_logger_log_int
	movl	$119, %eax
	movl	%eax, %edi
	movabsq	$.L.str.93, %rsi
	movabsq	$.L.str.112, %rdx
	movabsq	$.L.str.119, %rcx
	movl	$2, %eax
	movl	%eax, %r8d
	xorl	%r9d, %r9d
	movl	$1, %eax
	movl	$1, (%rsp)
	movl	%eax, -1048(%rbp)       # 4-byte Spill
	callq	trace_logger_log0
	movl	$3, %eax
	movl	%eax, %edi
	xorl	%eax, %eax
	movl	%eax, %ecx
	movl	$1, %eax
	movl	%eax, %edx
	movabsq	$.L.str.100, %r8
	movabsq	$.L.str.6, %rsi
	movq	%rsi, -1056(%rbp)       # 8-byte Spill
	movq	%rcx, %rsi
	movq	%rdx, -1064(%rbp)       # 8-byte Spill
	movq	%rcx, %rdx
	movq	-1064(%rbp), %r10       # 8-byte Reload
	movq	%rcx, -1072(%rbp)       # 8-byte Spill
	movq	%r10, %rcx
	movq	-1072(%rbp), %r9        # 8-byte Reload
	movq	-1056(%rbp), %r11       # 8-byte Reload
	movq	%r11, (%rsp)
	callq	trace_logger_log_int
	movl	$2, %eax
	movl	%eax, %edi
	xorl	%eax, %eax
	movl	%eax, %ecx
	movl	$1, %eax
	movl	%eax, %edx
	movabsq	$.L.str.109, %r8
	movabsq	$.L.str.6, %rsi
	movq	%rsi, -1080(%rbp)       # 8-byte Spill
	movq	%rcx, %rsi
	movq	%rdx, -1088(%rbp)       # 8-byte Spill
	movq	%rcx, %rdx
	movq	-1088(%rbp), %r9        # 8-byte Reload
	movq	%rcx, -1096(%rbp)       # 8-byte Spill
	movq	%r9, %rcx
	movq	-1096(%rbp), %r9        # 8-byte Reload
	movq	-1080(%rbp), %r10       # 8-byte Reload
	movq	%r10, (%rsp)
	callq	trace_logger_log_int
	movl	$1, %eax
	movl	%eax, %ecx
	movabsq	$.L.str.118, %r8
	xorl	%eax, %eax
	movl	%eax, %r9d
	movabsq	$.L.str.6, %rdx
	movb	-1041(%rbp), %bl        # 1-byte Reload
	andb	$1, %bl
	movzbl	%bl, %eax
	movl	%eax, %esi
	movq	%rcx, %rdi
	movq	%rsi, -1104(%rbp)       # 8-byte Spill
	movq	%rcx, %rsi
	movq	-1104(%rbp), %r10       # 8-byte Reload
	movq	%rdx, -1112(%rbp)       # 8-byte Spill
	movq	%r10, %rdx
	movq	-1112(%rbp), %r11       # 8-byte Reload
	movq	%r11, (%rsp)
	callq	trace_logger_log_int
	movb	-1041(%rbp), %bl        # 1-byte Reload
	testb	$1, %bl
	movq	-1008(%rbp), %rcx       # 8-byte Reload
	movq	%rcx, -736(%rbp)        # 8-byte Spill
	jne	.LBB2_7
	jmp	.LBB2_4
.Ltmp64:
.LBB2_7:                                #   in Loop: Header=BB2_1 Depth=1
	#DEBUG_VALUE: buildNeighborList:j <- [DW_OP_constu 744, DW_OP_minus] [%rbp+0]
	#DEBUG_VALUE: buildNeighborList:k <- [DW_OP_constu 528, DW_OP_minus] [%rbp+0]
	#DEBUG_VALUE: buildNeighborList:totalPairs <- [DW_OP_constu 404, DW_OP_minus] [%rbp+0]
	#DEBUG_VALUE: buildNeighborList:i <- [DW_OP_constu 400, DW_OP_minus] [%rbp+0]
	#DEBUG_VALUE: buildNeighborList:NL <- [DW_OP_constu 192, DW_OP_minus] [%rbp+0]
	#DEBUG_VALUE: buildNeighborList:position_z <- [DW_OP_constu 184, DW_OP_minus] [%rbp+0]
	#DEBUG_VALUE: buildNeighborList:position_y <- [DW_OP_constu 176, DW_OP_minus] [%rbp+0]
	#DEBUG_VALUE: buildNeighborList:position_x <- [DW_OP_constu 168, DW_OP_minus] [%rbp+0]
	.loc	1 0 3                   # md.c:0:3
	movl	$128, %eax
	movl	%eax, %edi
	movabsq	$.L.str.93, %rsi
	movabsq	$.L.str.100, %rdx
	movabsq	$.L.str.120, %rcx
	movl	$36, %eax
	movl	%eax, %r8d
	xorl	%r9d, %r9d
	movl	$1, %eax
	.loc	1 128 17 is_stmt 1      # md.c:128:17
	movl	$1, (%rsp)
	movl	%eax, -1116(%rbp)       # 4-byte Spill
	callq	trace_logger_log0
	movl	$1, %eax
	movl	%eax, %ecx
	movl	$64, %eax
	movl	%eax, %esi
	movabsq	$.L.str.98, %r8
	xorl	%eax, %eax
	movl	%eax, %r9d
	movabsq	$.L.str.6, %rdx
	movq	%rcx, %rdi
	movq	-400(%rbp), %r10        # 8-byte Reload
	movq	%rdx, -1128(%rbp)       # 8-byte Spill
	movq	%r10, %rdx
	movq	-1128(%rbp), %r11       # 8-byte Reload
	movq	%r11, (%rsp)
	callq	trace_logger_log_int
	movl	$19134, %eax            # imm = 0x4ABE
	movl	%eax, %edi
	movl	$32, %eax
	movl	%eax, %esi
	movl	$1, %eax
	movl	%eax, %ecx
	movabsq	$.L.str.120, %r8
	xorl	%eax, %eax
	movl	%eax, %r9d
	movabsq	$.L.str.6, %rdx
	movq	-400(%rbp), %r10        # 8-byte Reload
	movl	%r10d, %eax
	movl	%eax, %ebx
	movl	%ebx, %r11d
	movq	%rdx, -1136(%rbp)       # 8-byte Spill
	movq	%r11, %rdx
	movq	-1136(%rbp), %r11       # 8-byte Reload
	movq	%r11, (%rsp)
	movl	%eax, -1140(%rbp)       # 4-byte Spill
	callq	trace_logger_log_int
	movl	$128, %eax
	movl	%eax, %edi
	movabsq	$.L.str.93, %rsi
	movabsq	$.L.str.100, %rdx
	movabsq	$.L.str.121, %rcx
	movl	$54, %eax
	movl	%eax, %r8d
	xorl	%r9d, %r9d
	movl	$1, %eax
	movl	$1, (%rsp)
	movl	%eax, -1144(%rbp)       # 4-byte Spill
	callq	trace_logger_log0
	movl	$5, %eax
	movl	%eax, %edi
	movl	$64, %eax
	movl	%eax, %esi
	movabsq	$populateNeighborList, %rdx
	movl	$1, %eax
	movl	%eax, %ecx
	movabsq	$.L.str.122, %r8
	xorl	%eax, %eax
	movl	%eax, %r9d
	movabsq	$.L.str.6, %r10
	movq	%r10, (%rsp)
	callq	trace_logger_log_ptr
	movl	$1, %eax
	movl	%eax, %edi
	movl	$64, %eax
	movl	%eax, %esi
                                        # implicit-def: %rdx
	xorl	%eax, %eax
	movl	%eax, %ecx
	movabsq	$.L.str.10, %r8
	movabsq	$.L.str.6, %r9
	movq	%rcx, -1152(%rbp)       # 8-byte Spill
	movq	-1152(%rbp), %r10       # 8-byte Reload
	movq	%r9, -1160(%rbp)        # 8-byte Spill
	movq	%r10, %r9
	movq	-1160(%rbp), %r11       # 8-byte Reload
	movq	%r11, (%rsp)
	callq	trace_logger_log_ptr
	movl	$2, %eax
	movl	%eax, %edi
	movl	$64, %eax
	movl	%eax, %esi
	movl	$1, %eax
	movl	%eax, %ecx
	movabsq	$.L.str.95, %r8
	xorl	%eax, %eax
	movl	%eax, %r9d
	movabsq	$.L.str.6, %rdx
	movq	-352(%rbp), %r10        # 8-byte Reload
	movq	%rdx, -1168(%rbp)       # 8-byte Spill
	movq	%r10, %rdx
	movq	-1168(%rbp), %r11       # 8-byte Reload
	movq	%r11, (%rsp)
	callq	trace_logger_log_ptr
	movl	$3, %eax
	movl	%eax, %edi
	movl	$32, %eax
	movl	%eax, %esi
	movl	$1, %eax
	movl	%eax, %ecx
	movabsq	$.L.str.120, %r8
	xorl	%eax, %eax
	movl	%eax, %r9d
	movabsq	$.L.str.6, %rdx
	movl	-1140(%rbp), %eax       # 4-byte Reload
	movl	%eax, %ebx
	movl	%ebx, %r10d
	movq	%rdx, -1176(%rbp)       # 8-byte Spill
	movq	%r10, %rdx
	movq	-1176(%rbp), %r10       # 8-byte Reload
	movq	%r10, (%rsp)
	callq	trace_logger_log_int
	movl	$4, %eax
	movl	%eax, %edi
	movl	$64, %eax
	movl	%eax, %esi
	movl	$1, %eax
	movl	%eax, %ecx
	movabsq	$.L.str.34, %r8
	xorl	%eax, %eax
	movl	%eax, %r9d
	movabsq	$.L.str.6, %rdx
	movq	-192(%rbp), %r10        # 8-byte Reload
	movq	%rdx, -1184(%rbp)       # 8-byte Spill
	movq	%r10, %rdx
	movq	-1184(%rbp), %r11       # 8-byte Reload
	movq	%r11, (%rsp)
	callq	trace_logger_log_ptr
                                        # implicit-def: %rdi
	movq	-352(%rbp), %rsi        # 8-byte Reload
	movl	-1140(%rbp), %edx       # 4-byte Reload
	movq	-192(%rbp), %rcx        # 8-byte Reload
	callq	populateNeighborList
	movl	$19134, %edx            # imm = 0x4ABE
	movl	%edx, %edi
	movl	$32, %edx
	movl	%edx, %esi
	movl	$1, %edx
	movl	%edx, %ecx
	movabsq	$.L.str.121, %r8
	xorl	%edx, %edx
	movl	%edx, %r9d
	movabsq	$.L.str.6, %r10
	.loc	1 128 14 is_stmt 0      # md.c:128:14
	movl	%eax, %edx
                                        # kill: def %rdx killed %edx
	movq	%r10, (%rsp)
	movl	%eax, -1188(%rbp)       # 4-byte Spill
	callq	trace_logger_log_int
	movl	$128, %eax
	movl	%eax, %edi
	movabsq	$.L.str.93, %rsi
	movabsq	$.L.str.100, %rdx
	movabsq	$.L.str.89, %rcx
	movl	$11, %eax
	movl	%eax, %r8d
	xorl	%r9d, %r9d
	movl	$1, %eax
	movl	$1, (%rsp)
	movl	%eax, -1192(%rbp)       # 4-byte Spill
	callq	trace_logger_log0
	movl	$2, %eax
	movl	%eax, %edi
	movl	$32, %eax
	movl	%eax, %esi
	movl	$1, %eax
	movl	%eax, %ecx
	movabsq	$.L.str.101, %r8
	xorl	%eax, %eax
	movl	%eax, %r9d
	movabsq	$.L.str.6, %rdx
	movl	-404(%rbp), %eax        # 4-byte Reload
	movl	%eax, %ebx
	movl	%ebx, %r10d
	movq	%rdx, -1200(%rbp)       # 8-byte Spill
	movq	%r10, %rdx
	movq	-1200(%rbp), %r10       # 8-byte Reload
	movq	%r10, (%rsp)
	callq	trace_logger_log_int
	movl	$1, %eax
	movl	%eax, %ecx
	movl	$32, %eax
	movl	%eax, %esi
	movabsq	$.L.str.121, %r8
	xorl	%eax, %eax
	movl	%eax, %r9d
	movabsq	$.L.str.6, %rdx
	movl	-1188(%rbp), %eax       # 4-byte Reload
	movl	%eax, %ebx
	movl	%ebx, %edi
	movq	%rdi, -1208(%rbp)       # 8-byte Spill
	movq	%rcx, %rdi
	movq	-1208(%rbp), %r10       # 8-byte Reload
	movq	%rdx, -1216(%rbp)       # 8-byte Spill
	movq	%r10, %rdx
	movq	-1216(%rbp), %r11       # 8-byte Reload
	movq	%r11, (%rsp)
	callq	trace_logger_log_int
	movl	$19134, %eax            # imm = 0x4ABE
	movl	%eax, %edi
	movl	$32, %eax
	movl	%eax, %esi
	movl	$1, %eax
	movl	%eax, %ecx
	movabsq	$.L.str.89, %r8
	xorl	%eax, %eax
	movl	%eax, %r9d
	movabsq	$.L.str.6, %rdx
	movl	-1188(%rbp), %eax       # 4-byte Reload
	movl	-404(%rbp), %ebx        # 4-byte Reload
	addl	%ebx, %eax
.Ltmp65:
	.loc	1 129 2 is_stmt 1       # md.c:129:2
	movl	%eax, %r14d
	movl	%r14d, %r10d
	movq	%rdx, -1224(%rbp)       # 8-byte Spill
	movq	%r10, %rdx
	movq	-1224(%rbp), %r10       # 8-byte Reload
	movq	%r10, (%rsp)
	movl	%eax, -1228(%rbp)       # 4-byte Spill
	callq	trace_logger_log_int
	movl	$112, %eax
	movl	%eax, %edi
	movabsq	$.L.str.93, %rsi
	movabsq	$.L.str.100, %rdx
	movabsq	$.L.str.99, %rcx
	movl	$11, %eax
	movl	%eax, %r8d
	xorl	%r9d, %r9d
	movl	$1, %eax
	.loc	1 112 27                # md.c:112:27
	movl	$1, (%rsp)
	movl	%eax, -1232(%rbp)       # 4-byte Spill
	callq	trace_logger_log0
	movl	$2, %eax
	movl	%eax, %edi
	movl	$64, %eax
	movl	%eax, %esi
	movl	$1, %eax
	movl	%eax, %edx
	xorl	%eax, %eax
	movl	%eax, %ecx
	movabsq	$.L.str.10, %r8
	movabsq	$.L.str.6, %r10
	movq	%rcx, -1240(%rbp)       # 8-byte Spill
	movq	-1240(%rbp), %r9        # 8-byte Reload
	movq	%r10, (%rsp)
	callq	trace_logger_log_int
	movl	$1, %eax
	movl	%eax, %ecx
	movl	$64, %eax
	movl	%eax, %esi
	movabsq	$.L.str.98, %r8
	xorl	%eax, %eax
	movl	%eax, %r9d
	movabsq	$.L.str.6, %rdx
	movq	%rcx, %rdi
	movq	-400(%rbp), %r10        # 8-byte Reload
	movq	%rdx, -1248(%rbp)       # 8-byte Spill
	movq	%r10, %rdx
	movq	-1248(%rbp), %r11       # 8-byte Reload
	movq	%r11, (%rsp)
	callq	trace_logger_log_int
	movl	$19134, %eax            # imm = 0x4ABE
	movl	%eax, %edi
	movl	$64, %eax
	movl	%eax, %esi
	movl	$1, %eax
	movl	%eax, %ecx
	movabsq	$.L.str.99, %r8
	xorl	%eax, %eax
	movl	%eax, %r9d
	movabsq	$.L.str.6, %rdx
	movq	-400(%rbp), %r10        # 8-byte Reload
	addq	$1, %r10
.Ltmp66:
	.loc	1 109 6                 # md.c:109:6
	movq	%rdx, -1256(%rbp)       # 8-byte Spill
	movq	%r10, %rdx
	movq	-1256(%rbp), %r11       # 8-byte Reload
	movq	%r11, (%rsp)
	movq	%r10, -1264(%rbp)       # 8-byte Spill
	callq	trace_logger_log_int
	movl	$112, %eax
	movl	%eax, %edi
	movabsq	$.L.str.93, %rsi
	movabsq	$.L.str.100, %rdx
	movabsq	$.L.str.123, %rcx
	movl	$51, %eax
	movl	%eax, %r8d
	xorl	%r9d, %r9d
	movl	$1, %eax
.Ltmp67:
	#DEBUG_VALUE: buildNeighborList:totalPairs <- [DW_OP_constu 1228, DW_OP_minus] [%rbp+0]
	.loc	1 112 16                # md.c:112:16
	movl	$1, (%rsp)
	movl	%eax, -1268(%rbp)       # 4-byte Spill
	callq	trace_logger_log0
	movl	$2, %eax
	movl	%eax, %edi
	movl	$64, %eax
	movl	%eax, %esi
	movl	$32, %eax
	movl	%eax, %edx
	xorl	%eax, %eax
	movl	%eax, %ecx
	movabsq	$.L.str.10, %r8
	movabsq	$.L.str.6, %r10
	movq	%rcx, -1280(%rbp)       # 8-byte Spill
	movq	-1280(%rbp), %r9        # 8-byte Reload
	movq	%r10, (%rsp)
	callq	trace_logger_log_int
	movl	$1, %eax
	movl	%eax, %ecx
	movl	$64, %eax
	movl	%eax, %esi
	movabsq	$.L.str.99, %r8
	xorl	%eax, %eax
	movl	%eax, %r9d
	movabsq	$.L.str.6, %rdx
	movq	%rcx, %rdi
	movq	-1264(%rbp), %r10       # 8-byte Reload
	movq	%rdx, -1288(%rbp)       # 8-byte Spill
	movq	%r10, %rdx
	movq	-1288(%rbp), %r11       # 8-byte Reload
	movq	%r11, (%rsp)
	callq	trace_logger_log_int
	movl	$19134, %eax            # imm = 0x4ABE
	movl	%eax, %edi
	movl	$1, %eax
	movl	%eax, %ecx
	movabsq	$.L.str.123, %r8
	xorl	%eax, %eax
	movl	%eax, %r9d
	movabsq	$.L.str.6, %rdx
	movq	-1264(%rbp), %rsi       # 8-byte Reload
	cmpq	$32, %rsi
	sete	%r15b
.Ltmp68:
	.loc	1 112 2 is_stmt 0       # md.c:112:2
	movb	%r15b, %r12b
	andb	$1, %r12b
	movzbl	%r12b, %eax
	movl	%eax, %r10d
	movq	%rcx, %rsi
	movq	%rdx, -1296(%rbp)       # 8-byte Spill
	movq	%r10, %rdx
	movq	-1296(%rbp), %r10       # 8-byte Reload
	movq	%r10, (%rsp)
	movb	%r15b, -1297(%rbp)      # 1-byte Spill
	callq	trace_logger_log_int
	movl	$112, %eax
	movl	%eax, %edi
	movabsq	$.L.str.93, %rsi
	movabsq	$.L.str.100, %rdx
	movabsq	$.L.str.124, %rcx
	movl	$2, %eax
	movl	%eax, %r8d
	xorl	%r9d, %r9d
	movl	$1, %eax
	movl	$1, (%rsp)
	movl	%eax, -1304(%rbp)       # 4-byte Spill
	callq	trace_logger_log0
	movl	$3, %eax
	movl	%eax, %edi
	xorl	%eax, %eax
	movl	%eax, %ecx
	movl	$1, %eax
	movl	%eax, %edx
	movabsq	$.L.str.125, %r8
	movabsq	$.L.str.6, %rsi
	movq	%rsi, -1312(%rbp)       # 8-byte Spill
	movq	%rcx, %rsi
	movq	%rdx, -1320(%rbp)       # 8-byte Spill
	movq	%rcx, %rdx
	movq	-1320(%rbp), %r10       # 8-byte Reload
	movq	%rcx, -1328(%rbp)       # 8-byte Spill
	movq	%r10, %rcx
	movq	-1328(%rbp), %r9        # 8-byte Reload
	movq	-1312(%rbp), %r11       # 8-byte Reload
	movq	%r11, (%rsp)
	callq	trace_logger_log_int
	movl	$2, %eax
	movl	%eax, %edi
	xorl	%eax, %eax
	movl	%eax, %ecx
	movl	$1, %eax
	movl	%eax, %edx
	movabsq	$.L.str.97, %r8
	movabsq	$.L.str.6, %rsi
	movq	%rsi, -1336(%rbp)       # 8-byte Spill
	movq	%rcx, %rsi
	movq	%rdx, -1344(%rbp)       # 8-byte Spill
	movq	%rcx, %rdx
	movq	-1344(%rbp), %r9        # 8-byte Reload
	movq	%rcx, -1352(%rbp)       # 8-byte Spill
	movq	%r9, %rcx
	movq	-1352(%rbp), %r9        # 8-byte Reload
	movq	-1336(%rbp), %r10       # 8-byte Reload
	movq	%r10, (%rsp)
	callq	trace_logger_log_int
	movl	$1, %eax
	movl	%eax, %ecx
	movabsq	$.L.str.123, %r8
	xorl	%eax, %eax
	movl	%eax, %r9d
	movabsq	$.L.str.6, %rdx
	movb	-1297(%rbp), %r15b      # 1-byte Reload
	andb	$1, %r15b
	movzbl	%r15b, %eax
	movl	%eax, %esi
	movq	%rcx, %rdi
	movq	%rsi, -1360(%rbp)       # 8-byte Spill
	movq	%rcx, %rsi
	movq	-1360(%rbp), %r10       # 8-byte Reload
	movq	%rdx, -1368(%rbp)       # 8-byte Spill
	movq	%r10, %rdx
	movq	-1368(%rbp), %r11       # 8-byte Reload
	movq	%r11, (%rsp)
	callq	trace_logger_log_int
	movb	-1297(%rbp), %r15b      # 1-byte Reload
	testb	$1, %r15b
	movq	-1264(%rbp), %rcx       # 8-byte Reload
	movl	-1228(%rbp), %eax       # 4-byte Reload
	movq	%rcx, -384(%rbp)        # 8-byte Spill
	movl	%eax, -388(%rbp)        # 4-byte Spill
	jne	.LBB2_8
	jmp	.LBB2_1
.Ltmp69:
.LBB2_8:
	#DEBUG_VALUE: buildNeighborList:j <- [DW_OP_constu 744, DW_OP_minus] [%rbp+0]
	#DEBUG_VALUE: buildNeighborList:k <- [DW_OP_constu 528, DW_OP_minus] [%rbp+0]
	#DEBUG_VALUE: buildNeighborList:totalPairs <- [DW_OP_constu 404, DW_OP_minus] [%rbp+0]
	#DEBUG_VALUE: buildNeighborList:i <- [DW_OP_constu 400, DW_OP_minus] [%rbp+0]
	#DEBUG_VALUE: buildNeighborList:NL <- [DW_OP_constu 192, DW_OP_minus] [%rbp+0]
	#DEBUG_VALUE: buildNeighborList:position_z <- [DW_OP_constu 184, DW_OP_minus] [%rbp+0]
	#DEBUG_VALUE: buildNeighborList:position_y <- [DW_OP_constu 176, DW_OP_minus] [%rbp+0]
	#DEBUG_VALUE: buildNeighborList:position_x <- [DW_OP_constu 168, DW_OP_minus] [%rbp+0]
	.loc	1 0 2                   # md.c:0:2
	movl	$130, %eax
	movl	%eax, %edi
	movabsq	$.L.str.93, %rsi
	movabsq	$.L.str.125, %rdx
	movabsq	$.L.str.126, %rcx
	movl	$54, %eax
	movl	%eax, %r8d
	xorl	%r9d, %r9d
	movl	$1, %eax
	.loc	1 130 2 is_stmt 1       # md.c:130:2
	movl	$1, (%rsp)
	movl	%eax, -1372(%rbp)       # 4-byte Spill
	callq	trace_logger_log0
	movl	$3, %eax
	movl	%eax, %edi
	movl	$64, %eax
	movl	%eax, %esi
	movabsq	$printf, %rdx
	movl	$1, %eax
	movl	%eax, %ecx
	movabsq	$.L.str.127, %r8
	xorl	%eax, %eax
	movl	%eax, %r9d
	movabsq	$.L.str.6, %r10
	movq	%r10, (%rsp)
	callq	trace_logger_log_ptr
	movl	$1, %eax
	movl	%eax, %edi
	movl	$64, %eax
	movl	%eax, %esi
	movabsq	$.L.str.128, %rdx
	xorl	%eax, %eax
	movl	%eax, %ecx
	movabsq	$.L.str.10, %r8
	movabsq	$.L.str.6, %r9
	movq	%rcx, -1384(%rbp)       # 8-byte Spill
	movq	-1384(%rbp), %r10       # 8-byte Reload
	movq	%r9, -1392(%rbp)        # 8-byte Spill
	movq	%r10, %r9
	movq	-1392(%rbp), %r11       # 8-byte Reload
	movq	%r11, (%rsp)
	callq	trace_logger_log_string
	movabsq	$.L.str, %rdi
	movl	-1228(%rbp), %esi       # 4-byte Reload
	movb	$0, %al
	callq	printf
	movl	$19134, %esi            # imm = 0x4ABE
	movl	%esi, %edi
	movl	$32, %esi
                                        # kill: def %rsi killed %esi
	movl	$1, %ebx
	movl	%ebx, %ecx
	movabsq	$.L.str.126, %r8
	xorl	%ebx, %ebx
	movl	%ebx, %r9d
	movabsq	$.L.str.6, %rdx
	.loc	1 131 2                 # md.c:131:2
	movl	%eax, %eax
	movl	%eax, %r10d
	movq	%rdx, -1400(%rbp)       # 8-byte Spill
	movq	%r10, %rdx
	movq	-1400(%rbp), %r10       # 8-byte Reload
	movq	%r10, (%rsp)
	callq	trace_logger_log_int
	movl	$131, %eax
	movl	%eax, %edi
	movabsq	$.L.str.93, %rsi
	movabsq	$.L.str.125, %rdx
	movabsq	$.L.str.129, %rcx
	movl	$1, %eax
	movl	%eax, %r8d
	xorl	%r9d, %r9d
	movl	$1, %eax
	movl	$1, (%rsp)
	movl	%eax, -1404(%rbp)       # 4-byte Spill
	callq	trace_logger_log0
	movl	$1, %eax
	movl	%eax, %ecx
	movl	$32, %eax
	movl	%eax, %esi
	movabsq	$.L.str.89, %r8
	xorl	%eax, %eax
	movl	%eax, %r9d
	movabsq	$.L.str.6, %rdx
	movl	-1228(%rbp), %eax       # 4-byte Reload
	movl	%eax, %ebx
	movl	%ebx, %edi
	movq	%rdi, -1416(%rbp)       # 8-byte Spill
	movq	%rcx, %rdi
	movq	-1416(%rbp), %r10       # 8-byte Reload
	movq	%rdx, -1424(%rbp)       # 8-byte Spill
	movq	%r10, %rdx
	movq	-1424(%rbp), %r11       # 8-byte Reload
	movq	%r11, (%rsp)
	callq	trace_logger_log_int
	movabsq	$.L.str.93, %rdi
	movl	$1, %eax
	movl	%eax, %esi
	xorl	%edx, %edx
	movl	$1, %ecx
	callq	trace_logger_update_status
	movl	-1228(%rbp), %eax       # 4-byte Reload
	addq	$1408, %rsp             # imm = 0x580
	popq	%rbx
	popq	%r12
	popq	%r14
	popq	%r15
	popq	%rbp
	retq
.Ltmp70:
.Lfunc_end2:
	.size	buildNeighborList, .Lfunc_end2-buildNeighborList
	.cfi_endproc
                                        # -- End function
	.globl	populateNeighborList    # -- Begin function populateNeighborList
	.p2align	4, 0x90
	.type	populateNeighborList,@function
populateNeighborList:                   # @populateNeighborList
.Lfunc_begin3:
	.loc	1 138 0                 # md.c:138:0
	.cfi_startproc
# %bb.0:
	pushq	%rbp
	.cfi_def_cfa_offset 16
	.cfi_offset %rbp, -16
	movq	%rsp, %rbp
	.cfi_def_cfa_register %rbp
	pushq	%r15
	pushq	%r14
	pushq	%rbx
	subq	$376, %rsp              # imm = 0x178
	.cfi_offset %rbx, -40
	.cfi_offset %r14, -32
	.cfi_offset %r15, -24
	movl	$24601, %eax            # imm = 0x6019
	movl	%eax, %r8d
	movl	$64, %eax
	movl	%eax, %r9d
	movl	$1, %eax
	movl	%eax, %r10d
	movabsq	$.L.str.135, %r11
	xorl	%eax, %eax
	movl	%eax, %ebx
	movabsq	$.L.str.6, %r14
.Ltmp71:
	.loc	1 134 31 prologue_end   # md.c:134:31
	movq	%rdi, -32(%rbp)         # 8-byte Spill
	movq	%r8, %rdi
	movq	%rsi, -40(%rbp)         # 8-byte Spill
	movq	%r9, %rsi
	movq	-32(%rbp), %r8          # 8-byte Reload
	movl	%edx, -44(%rbp)         # 4-byte Spill
	movq	%r8, %rdx
	movq	%rcx, -56(%rbp)         # 8-byte Spill
	movq	%r10, %rcx
	movq	%r11, %r8
	movq	%rbx, %r9
	movq	%r14, (%rsp)
	callq	trace_logger_log_ptr
	movl	$24601, %eax            # imm = 0x6019
	movl	%eax, %edi
	movl	$64, %eax
	movl	%eax, %esi
	movl	$1, %eax
	movl	%eax, %ecx
	movabsq	$.L.str.94, %r8
	xorl	%eax, %eax
	movl	%eax, %r9d
	movabsq	$.L.str.6, %rdx
	movq	-40(%rbp), %r10         # 8-byte Reload
	movq	%rdx, -64(%rbp)         # 8-byte Spill
	movq	%r10, %rdx
	movq	-64(%rbp), %r11         # 8-byte Reload
	movq	%r11, (%rsp)
	callq	trace_logger_log_ptr
	movl	$24601, %eax            # imm = 0x6019
	movl	%eax, %edi
	movl	$32, %eax
	movl	%eax, %esi
	movl	$1, %eax
	movl	%eax, %ecx
	movabsq	$.L.str.27, %r8
	xorl	%eax, %eax
	movl	%eax, %r9d
	movabsq	$.L.str.6, %rdx
	movl	-44(%rbp), %eax         # 4-byte Reload
	movl	%eax, %r15d
	movl	%r15d, %r10d
	movq	%rdx, -72(%rbp)         # 8-byte Spill
	movq	%r10, %rdx
	movq	-72(%rbp), %r10         # 8-byte Reload
	movq	%r10, (%rsp)
	callq	trace_logger_log_int
	movl	$24601, %eax            # imm = 0x6019
	movl	%eax, %edi
	movl	$64, %eax
	movl	%eax, %esi
	movl	$1, %eax
	movl	%eax, %ecx
	movabsq	$.L.str.34, %r8
	xorl	%eax, %eax
	movl	%eax, %r9d
	movabsq	$.L.str.6, %rdx
	movq	-56(%rbp), %r10         # 8-byte Reload
	movq	%rdx, -80(%rbp)         # 8-byte Spill
	movq	%r10, %rdx
	movq	-80(%rbp), %r11         # 8-byte Reload
	movq	%r11, (%rsp)
	callq	trace_logger_log_ptr
	movq	$-1, %rdi
	movabsq	$.L.str.122, %rsi
	movabsq	$.L.str.3, %rdx
	movabsq	$.L.str.78, %rcx
	movl	$38, %eax
	movl	%eax, %r8d
	xorl	%r9d, %r9d
	movl	$1, %eax
	#DEBUG_VALUE: populateNeighborList:currDist <- [DW_OP_constu 32, DW_OP_minus] [%rbp+0]
	#DEBUG_VALUE: populateNeighborList:currList <- [DW_OP_constu 40, DW_OP_minus] [%rbp+0]
	#DEBUG_VALUE: populateNeighborList:i <- [DW_OP_constu 44, DW_OP_minus] [%rbp+0]
	#DEBUG_VALUE: populateNeighborList:NL <- [DW_OP_constu 56, DW_OP_minus] [%rbp+0]
.Ltmp72:
	#DEBUG_VALUE: populateNeighborList:idx <- 0
	#DEBUG_VALUE: populateNeighborList:validPairs <- 0
	#DEBUG_VALUE: populateNeighborList:neighborIter <- 0
	.loc	1 0 31 is_stmt 0        # md.c:0:31
	movl	$1, (%rsp)
	movl	%eax, -84(%rbp)         # 4-byte Spill
	callq	trace_logger_log0
	movl	$1, %eax
	movl	%eax, %ecx
	movl	$32, %eax
	movl	%eax, %esi
	movabsq	$.L.str.27, %r8
	xorl	%eax, %eax
	movl	%eax, %r9d
	movabsq	$.L.str.6, %rdx
	movl	-44(%rbp), %eax         # 4-byte Reload
	movl	%eax, %r15d
	movl	%r15d, %edi
	movq	%rdi, -96(%rbp)         # 8-byte Spill
	movq	%rcx, %rdi
	movq	-96(%rbp), %r10         # 8-byte Reload
	movq	%rdx, -104(%rbp)        # 8-byte Spill
	movq	%r10, %rdx
	movq	-104(%rbp), %r11        # 8-byte Reload
	movq	%r11, (%rsp)
	callq	trace_logger_log_int
	movl	$19134, %eax            # imm = 0x4ABE
	movl	%eax, %edi
	movl	$64, %eax
	movl	%eax, %esi
	movl	$1, %eax
	movl	%eax, %ecx
	movabsq	$.L.str.78, %r8
	xorl	%eax, %eax
	movl	%eax, %r9d
	movabsq	$.L.str.6, %rdx
	movl	-44(%rbp), %eax         # 4-byte Reload
	movslq	%eax, %r10
.Ltmp73:
	.loc	1 142 2 is_stmt 1       # md.c:142:2
	movq	%rdx, -112(%rbp)        # 8-byte Spill
	movq	%r10, %rdx
	movq	-112(%rbp), %r11        # 8-byte Reload
	movq	%r11, (%rsp)
	movq	%r10, -120(%rbp)        # 8-byte Spill
	callq	trace_logger_log_int
	movl	$142, %eax
	movl	%eax, %edi
	movabsq	$.L.str.122, %rsi
	movabsq	$.L.str.3, %rdx
	movabsq	$.L.str.130, %rcx
	movl	$2, %eax
	movl	%eax, %r8d
	xorl	%r9d, %r9d
	movl	$1, %eax
	movl	$1, (%rsp)
	movl	%eax, -124(%rbp)        # 4-byte Spill
	callq	trace_logger_log0
	movl	$1, %eax
	movl	%eax, %ecx
	xorl	%eax, %eax
	movl	%eax, %edx
	movabsq	$.L.str.5, %r8
	movabsq	$.L.str.6, %rsi
	movq	%rcx, %rdi
	movq	%rsi, -136(%rbp)        # 8-byte Spill
	movq	%rdx, %rsi
	movq	%rdx, -144(%rbp)        # 8-byte Spill
	movq	-144(%rbp), %r9         # 8-byte Reload
	movq	-136(%rbp), %r10        # 8-byte Reload
	movq	%r10, (%rsp)
	callq	trace_logger_log_int
	xorl	%eax, %eax
	movl	%eax, %ecx
	movq	%rcx, -152(%rbp)        # 8-byte Spill
.Ltmp74:
.LBB3_1:                                # =>This Inner Loop Header: Depth=1
	#DEBUG_VALUE: populateNeighborList:NL <- [DW_OP_constu 56, DW_OP_minus] [%rbp+0]
	#DEBUG_VALUE: populateNeighborList:i <- [DW_OP_constu 44, DW_OP_minus] [%rbp+0]
	#DEBUG_VALUE: populateNeighborList:currList <- [DW_OP_constu 40, DW_OP_minus] [%rbp+0]
	#DEBUG_VALUE: populateNeighborList:currDist <- [DW_OP_constu 32, DW_OP_minus] [%rbp+0]
	.loc	1 0 2 is_stmt 0         # md.c:0:2
	movq	-152(%rbp), %rax        # 8-byte Reload
	movq	$-1, %rdi
	movabsq	$.L.str.122, %rsi
	movabsq	$.L.str.5, %rdx
	movabsq	$.L.str.23, %rcx
	movl	$53, %r8d
                                        # kill: def %r8 killed %r8d
	xorl	%r9d, %r9d
	movl	$1, %r10d
	.loc	1 139 11 is_stmt 1      # md.c:139:11
	movl	$1, (%rsp)
	movq	%rax, -160(%rbp)        # 8-byte Spill
	movl	%r10d, -164(%rbp)       # 4-byte Spill
	callq	trace_logger_log0
	movl	$2, %r9d
	movl	%r9d, %edi
	movl	$64, %r9d
	movl	%r9d, %esi
	xorl	%r9d, %r9d
	movl	%r9d, %edx
	movl	$1, %r9d
	movl	%r9d, %eax
	movabsq	$.L.str.24, %r8
	movabsq	$.L.str.5, %rcx
	movq	%rcx, -176(%rbp)        # 8-byte Spill
	movq	%rax, %rcx
	movq	%rax, %r9
	movq	-176(%rbp), %rax        # 8-byte Reload
	movq	%rax, (%rsp)
	callq	trace_logger_log_int
	movl	$1, %r10d
	movl	%r10d, %eax
	movl	$64, %r10d
	movl	%r10d, %esi
	xorl	%r10d, %r10d
	movl	%r10d, %ecx
	movabsq	$.L.str.10, %r8
	movabsq	$.L.str.3, %rdx
	movq	%rax, %rdi
	movq	%rdx, -184(%rbp)        # 8-byte Spill
	movq	%rcx, %rdx
	movq	%rax, %r9
	movq	-184(%rbp), %rax        # 8-byte Reload
	movq	%rax, (%rsp)
	callq	trace_logger_log_int
	movl	$19134, %r10d           # imm = 0x4ABE
	movl	%r10d, %edi
	movl	$64, %r10d
	movl	%r10d, %esi
	movl	$1, %r10d
	movl	%r10d, %ecx
	movabsq	$.L.str.23, %r8
	xorl	%r10d, %r10d
	movl	%r10d, %r9d
	movabsq	$.L.str.3, %rax
	movq	-160(%rbp), %rdx        # 8-byte Reload
	movq	%rax, (%rsp)
	callq	trace_logger_log_int
	movl	$146, %r10d
	movl	%r10d, %edi
	movabsq	$.L.str.122, %rsi
	movabsq	$.L.str.5, %rdx
	movabsq	$.L.str.11, %rcx
	movl	$32, %r10d
	movl	%r10d, %r8d
	xorl	%r9d, %r9d
	movl	$1, %r10d
.Ltmp75:
	#DEBUG_VALUE: populateNeighborList:neighborIter <- [DW_OP_constu 160, DW_OP_minus] [%rbp+0]
	.loc	1 146 25                # md.c:146:25
	movl	$1, (%rsp)
	movl	%r10d, -188(%rbp)       # 4-byte Spill
	callq	trace_logger_log0
	movl	$2, %r9d
	movl	%r9d, %edi
	movl	$64, %r9d
	movl	%r9d, %esi
	movl	$1, %r9d
	movl	%r9d, %ecx
	movabsq	$.L.str.23, %r8
	xorl	%r9d, %r9d
                                        # kill: def %r9 killed %r9d
	movabsq	$.L.str.6, %rax
	movq	-160(%rbp), %rdx        # 8-byte Reload
	movq	%rax, (%rsp)
	callq	trace_logger_log_int
	movl	$1, %r10d
	movl	%r10d, %eax
	movl	$64, %r10d
	movl	%r10d, %esi
	movabsq	$.L.str.94, %r8
	xorl	%r10d, %r10d
	movl	%r10d, %r9d
	movabsq	$.L.str.6, %rcx
	movq	%rax, %rdi
	movq	-40(%rbp), %rdx         # 8-byte Reload
	movq	%rcx, -200(%rbp)        # 8-byte Spill
	movq	%rax, %rcx
	movq	-200(%rbp), %rax        # 8-byte Reload
	movq	%rax, (%rsp)
	callq	trace_logger_log_ptr
	movl	$19134, %r10d           # imm = 0x4ABE
	movl	%r10d, %edi
	movl	$64, %r10d
	movl	%r10d, %esi
	movl	$1, %r10d
	movl	%r10d, %ecx
	movabsq	$.L.str.11, %r8
	xorl	%r10d, %r10d
	movl	%r10d, %r9d
	movabsq	$.L.str.6, %rax
	movq	-160(%rbp), %rdx        # 8-byte Reload
	shlq	$2, %rdx
	movq	-40(%rbp), %r11         # 8-byte Reload
	addq	%rdx, %r11
	movq	%r11, %rdx
	movq	%rax, (%rsp)
	movq	%r11, -208(%rbp)        # 8-byte Spill
	callq	trace_logger_log_ptr
	movl	$146, %r10d
	movl	%r10d, %edi
	movabsq	$.L.str.122, %rsi
	movabsq	$.L.str.5, %rdx
	movabsq	$.L.str.80, %rcx
	movl	$30, %r10d
	movl	%r10d, %r8d
	xorl	%r9d, %r9d
	movl	$1, %r10d
	movl	$1, (%rsp)
	movl	%r10d, -212(%rbp)       # 4-byte Spill
	callq	trace_logger_log0
	movl	$1, %r9d
	movl	%r9d, %eax
	movl	$64, %r9d
	movl	%r9d, %esi
	movabsq	$.L.str.11, %r8
	xorl	%r9d, %r9d
                                        # kill: def %r9 killed %r9d
	movabsq	$.L.str.6, %rcx
	movq	%rax, %rdi
	movq	-208(%rbp), %rdx        # 8-byte Reload
	movq	%rcx, -224(%rbp)        # 8-byte Spill
	movq	%rax, %rcx
	movq	-224(%rbp), %rax        # 8-byte Reload
	movq	%rax, (%rsp)
	callq	trace_logger_log_ptr
	movl	$19134, %r10d           # imm = 0x4ABE
	movl	%r10d, %edi
	movl	$32, %r10d
	movl	%r10d, %esi
	movl	$1, %r10d
	movl	%r10d, %ecx
	movabsq	$.L.str.80, %r8
	xorl	%r10d, %r10d
	movl	%r10d, %r9d
	movabsq	$.L.str.6, %rax
	movq	-40(%rbp), %rdx         # 8-byte Reload
	movq	-160(%rbp), %r11        # 8-byte Reload
	movl	(%rdx,%r11,4), %r10d
	.loc	1 146 3 is_stmt 0       # md.c:146:3
	movl	%r10d, %ebx
	movl	%ebx, %edx
	movq	%rax, (%rsp)
	movl	%r10d, -228(%rbp)       # 4-byte Spill
	callq	trace_logger_log_int
	movl	$146, %r10d
	movl	%r10d, %edi
	movabsq	$.L.str.122, %rsi
	movabsq	$.L.str.5, %rdx
	movabsq	$.L.str.17, %rcx
	movl	$32, %r10d
	movl	%r10d, %r8d
	xorl	%r9d, %r9d
	movl	$1, %r10d
	movl	$1, (%rsp)
	movl	%r10d, -232(%rbp)       # 4-byte Spill
	callq	trace_logger_log0
	movl	$3, %r9d
	movl	%r9d, %edi
	movl	$64, %r9d
	movl	%r9d, %esi
	movl	$1, %r9d
	movl	%r9d, %ecx
	movabsq	$.L.str.23, %r8
	xorl	%r9d, %r9d
                                        # kill: def %r9 killed %r9d
	movabsq	$.L.str.6, %rax
	movq	-160(%rbp), %rdx        # 8-byte Reload
	movq	%rax, (%rsp)
	callq	trace_logger_log_int
	movl	$2, %r10d
	movl	%r10d, %edi
	movl	$64, %r10d
	movl	%r10d, %esi
	movl	$1, %r10d
	movl	%r10d, %ecx
	movabsq	$.L.str.78, %r8
	xorl	%r10d, %r10d
	movl	%r10d, %r9d
	movabsq	$.L.str.6, %rax
	movq	-120(%rbp), %rdx        # 8-byte Reload
	movq	%rax, (%rsp)
	callq	trace_logger_log_int
	movl	$1, %r10d
	movl	%r10d, %eax
	movl	$64, %r10d
	movl	%r10d, %esi
	movabsq	$.L.str.34, %r8
	xorl	%r10d, %r10d
	movl	%r10d, %r9d
	movabsq	$.L.str.6, %rcx
	movq	%rax, %rdi
	movq	-56(%rbp), %rdx         # 8-byte Reload
	movq	%rcx, -240(%rbp)        # 8-byte Spill
	movq	%rax, %rcx
	movq	-240(%rbp), %rax        # 8-byte Reload
	movq	%rax, (%rsp)
	callq	trace_logger_log_ptr
	movl	$19134, %r10d           # imm = 0x4ABE
	movl	%r10d, %edi
	movl	$64, %r10d
	movl	%r10d, %esi
	movl	$1, %r10d
	movl	%r10d, %ecx
	movabsq	$.L.str.17, %r8
	xorl	%r10d, %r10d
	movl	%r10d, %r9d
	movabsq	$.L.str.6, %rax
	movq	-120(%rbp), %rdx        # 8-byte Reload
	shlq	$7, %rdx
	movq	-56(%rbp), %r11         # 8-byte Reload
	addq	%rdx, %r11
	movq	-160(%rbp), %rdx        # 8-byte Reload
	shlq	$2, %rdx
	addq	%rdx, %r11
	.loc	1 146 23                # md.c:146:23
	movq	%r11, %rdx
	movq	%rax, (%rsp)
	movq	%r11, -248(%rbp)        # 8-byte Spill
	callq	trace_logger_log_ptr
	movl	$146, %r10d
	movl	%r10d, %edi
	movabsq	$.L.str.122, %rsi
	movabsq	$.L.str.5, %rdx
	movabsq	$.L.str.131, %rcx
	movl	$31, %r10d
	movl	%r10d, %r8d
	xorl	%r9d, %r9d
	movl	$1, %r10d
	movl	$1, (%rsp)
	movl	%r10d, -252(%rbp)       # 4-byte Spill
	callq	trace_logger_log0
	movl	$2, %r9d
	movl	%r9d, %edi
	movl	$64, %r9d
	movl	%r9d, %esi
	movl	$1, %r9d
	movl	%r9d, %ecx
	movabsq	$.L.str.17, %r8
	xorl	%r9d, %r9d
                                        # kill: def %r9 killed %r9d
	movabsq	$.L.str.6, %rax
	movq	-248(%rbp), %rdx        # 8-byte Reload
	movq	%rax, (%rsp)
	callq	trace_logger_log_ptr
	movl	$1, %r10d
	movl	%r10d, %eax
	movl	$32, %r10d
	movl	%r10d, %esi
	movabsq	$.L.str.80, %r8
	xorl	%r10d, %r10d
	movl	%r10d, %r9d
	movabsq	$.L.str.6, %rcx
	movl	-228(%rbp), %r10d       # 4-byte Reload
	movl	%r10d, %ebx
	movl	%ebx, %edx
	movq	%rax, %rdi
	movq	%rcx, -264(%rbp)        # 8-byte Spill
	movq	%rax, %rcx
	movq	-264(%rbp), %rax        # 8-byte Reload
	movq	%rax, (%rsp)
	callq	trace_logger_log_int
	movl	$142, %r10d
	movl	%r10d, %edi
	movabsq	$.L.str.122, %rsi
	movabsq	$.L.str.5, %rdx
	movabsq	$.L.str.24, %rcx
	movl	$11, %r10d
	movl	%r10d, %r8d
	xorl	%r9d, %r9d
	movl	$1, %r10d
	movq	-248(%rbp), %rax        # 8-byte Reload
	movl	-228(%rbp), %ebx        # 4-byte Reload
	movl	%ebx, (%rax)
.Ltmp76:
	.loc	1 142 66 is_stmt 1      # md.c:142:66
	movl	$1, (%rsp)
	movl	%r10d, -268(%rbp)       # 4-byte Spill
	callq	trace_logger_log0
	movl	$2, %r9d
	movl	%r9d, %edi
	movl	$64, %r9d
	movl	%r9d, %esi
	movl	$1, %r9d
	movl	%r9d, %edx
	xorl	%r9d, %r9d
	movl	%r9d, %eax
	movabsq	$.L.str.10, %r8
	movabsq	$.L.str.6, %rcx
	movq	%rcx, -280(%rbp)        # 8-byte Spill
	movq	%rax, %rcx
	movq	%rax, %r9
	movq	-280(%rbp), %rax        # 8-byte Reload
	movq	%rax, (%rsp)
	callq	trace_logger_log_int
	movl	$1, %r10d
	movl	%r10d, %eax
	movl	$64, %r10d
	movl	%r10d, %esi
	movabsq	$.L.str.23, %r8
	xorl	%r10d, %r10d
	movl	%r10d, %r9d
	movabsq	$.L.str.6, %rcx
	movq	%rax, %rdi
	movq	-160(%rbp), %rdx        # 8-byte Reload
	movq	%rcx, -288(%rbp)        # 8-byte Spill
	movq	%rax, %rcx
	movq	-288(%rbp), %rax        # 8-byte Reload
	movq	%rax, (%rsp)
	callq	trace_logger_log_int
	movl	$19134, %r10d           # imm = 0x4ABE
	movl	%r10d, %edi
	movl	$64, %r10d
	movl	%r10d, %esi
	movl	$1, %r10d
	movl	%r10d, %ecx
	movabsq	$.L.str.24, %r8
	xorl	%r10d, %r10d
	movl	%r10d, %r9d
	movabsq	$.L.str.6, %rax
	movq	-160(%rbp), %rdx        # 8-byte Reload
	addq	$1, %rdx
	.loc	1 142 38 is_stmt 0      # md.c:142:38
	movq	%rdx, -296(%rbp)        # 8-byte Spill
	movq	%rax, (%rsp)
	callq	trace_logger_log_int
	movl	$142, %r10d
	movl	%r10d, %edi
	movabsq	$.L.str.122, %rsi
	movabsq	$.L.str.5, %rdx
	movabsq	$.L.str.60, %rcx
	movl	$51, %r10d
	movl	%r10d, %r8d
	xorl	%r9d, %r9d
	movl	$1, %r10d
	movl	$1, (%rsp)
	movl	%r10d, -300(%rbp)       # 4-byte Spill
	callq	trace_logger_log0
	movl	$2, %r9d
	movl	%r9d, %edi
	movl	$64, %r9d
	movl	%r9d, %esi
	movl	$32, %r9d
	movl	%r9d, %edx
	xorl	%r9d, %r9d
	movl	%r9d, %eax
	movabsq	$.L.str.10, %r8
	movabsq	$.L.str.6, %rcx
	movq	%rcx, -312(%rbp)        # 8-byte Spill
	movq	%rax, %rcx
	movq	%rax, %r9
	movq	-312(%rbp), %rax        # 8-byte Reload
	movq	%rax, (%rsp)
	callq	trace_logger_log_int
	movl	$1, %r10d
	movl	%r10d, %eax
	movl	$64, %r10d
	movl	%r10d, %esi
	movabsq	$.L.str.24, %r8
	xorl	%r10d, %r10d
	movl	%r10d, %r9d
	movabsq	$.L.str.6, %rcx
	movq	%rax, %rdi
	movq	-296(%rbp), %rdx        # 8-byte Reload
	movq	%rcx, -320(%rbp)        # 8-byte Spill
	movq	%rax, %rcx
	movq	-320(%rbp), %rax        # 8-byte Reload
	movq	%rax, (%rsp)
	callq	trace_logger_log_int
	movl	$19134, %r10d           # imm = 0x4ABE
	movl	%r10d, %edi
	movl	$1, %r10d
	movl	%r10d, %eax
	movabsq	$.L.str.60, %r8
	xorl	%r10d, %r10d
	movl	%r10d, %r9d
	movabsq	$.L.str.6, %rcx
	movq	-296(%rbp), %rdx        # 8-byte Reload
	cmpq	$32, %rdx
	sete	%r14b
.Ltmp77:
	.loc	1 142 2                 # md.c:142:2
	movb	%r14b, %r15b
	andb	$1, %r15b
	movzbl	%r15b, %r10d
	movl	%r10d, %edx
	movq	%rax, %rsi
	movq	%rcx, -328(%rbp)        # 8-byte Spill
	movq	%rax, %rcx
	movq	-328(%rbp), %rax        # 8-byte Reload
	movq	%rax, (%rsp)
	movb	%r14b, -329(%rbp)       # 1-byte Spill
	callq	trace_logger_log_int
	movl	$142, %r10d
	movl	%r10d, %edi
	movabsq	$.L.str.122, %rsi
	movabsq	$.L.str.5, %rdx
	movabsq	$.L.str.132, %rcx
	movl	$2, %r10d
	movl	%r10d, %r8d
	xorl	%r9d, %r9d
	movl	$1, %r10d
	movl	$1, (%rsp)
	movl	%r10d, -336(%rbp)       # 4-byte Spill
	callq	trace_logger_log0
	movl	$3, %r9d
	movl	%r9d, %edi
	xorl	%r9d, %r9d
	movl	%r9d, %eax
	movl	$1, %r9d
	movl	%r9d, %ecx
	movabsq	$.L.str.133, %r8
	movabsq	$.L.str.6, %rdx
	movq	%rax, %rsi
	movq	%rdx, -344(%rbp)        # 8-byte Spill
	movq	%rax, %rdx
	movq	%rax, %r9
	movq	-344(%rbp), %rax        # 8-byte Reload
	movq	%rax, (%rsp)
	callq	trace_logger_log_int
	movl	$2, %r10d
	movl	%r10d, %edi
	xorl	%r10d, %r10d
	movl	%r10d, %eax
	movl	$1, %r10d
	movl	%r10d, %ecx
	movabsq	$.L.str.5, %r8
	movabsq	$.L.str.6, %rdx
	movq	%rax, %rsi
	movq	%rdx, -352(%rbp)        # 8-byte Spill
	movq	%rax, %rdx
	movq	%rax, %r9
	movq	-352(%rbp), %rax        # 8-byte Reload
	movq	%rax, (%rsp)
	callq	trace_logger_log_int
	movl	$1, %r10d
	movl	%r10d, %eax
	movabsq	$.L.str.60, %r8
	xorl	%r10d, %r10d
	movl	%r10d, %r9d
	movabsq	$.L.str.6, %rcx
	movb	-329(%rbp), %r14b       # 1-byte Reload
	andb	$1, %r14b
	movzbl	%r14b, %r10d
	movl	%r10d, %edx
	movq	%rax, %rdi
	movq	%rax, %rsi
	movq	%rcx, -360(%rbp)        # 8-byte Spill
	movq	%rax, %rcx
	movq	-360(%rbp), %rax        # 8-byte Reload
	movq	%rax, (%rsp)
	callq	trace_logger_log_int
	movb	-329(%rbp), %r14b       # 1-byte Reload
	testb	$1, %r14b
	movq	-296(%rbp), %rax        # 8-byte Reload
	movq	%rax, -152(%rbp)        # 8-byte Spill
	jne	.LBB3_2
	jmp	.LBB3_1
.Ltmp78:
.LBB3_2:
	#DEBUG_VALUE: populateNeighborList:neighborIter <- [DW_OP_constu 160, DW_OP_minus] [%rbp+0]
	#DEBUG_VALUE: populateNeighborList:NL <- [DW_OP_constu 56, DW_OP_minus] [%rbp+0]
	#DEBUG_VALUE: populateNeighborList:i <- [DW_OP_constu 44, DW_OP_minus] [%rbp+0]
	#DEBUG_VALUE: populateNeighborList:currList <- [DW_OP_constu 40, DW_OP_minus] [%rbp+0]
	#DEBUG_VALUE: populateNeighborList:currDist <- [DW_OP_constu 32, DW_OP_minus] [%rbp+0]
	.loc	1 0 2                   # md.c:0:2
	movl	$152, %eax
	movl	%eax, %edi
	movabsq	$.L.str.122, %rsi
	movabsq	$.L.str.133, %rdx
	movabsq	$.L.str.134, %rcx
	movl	$1, %eax
	movl	%eax, %r8d
	xorl	%r9d, %r9d
	movl	$1, %eax
	.loc	1 152 2 is_stmt 1       # md.c:152:2
	movl	$1, (%rsp)
	movl	%eax, -364(%rbp)        # 4-byte Spill
	callq	trace_logger_log0
	movl	$1, %eax
	movl	%eax, %edi
	movl	$32, %eax
	movl	%eax, %ecx
	xorl	%eax, %eax
	movl	%eax, %edx
	movabsq	$.L.str.10, %r8
	movabsq	$.L.str.6, %rsi
	movq	%rsi, -376(%rbp)        # 8-byte Spill
	movq	%rcx, %rsi
	movq	%rdx, -384(%rbp)        # 8-byte Spill
	movq	%rcx, %rdx
	movq	-384(%rbp), %rcx        # 8-byte Reload
	movq	-384(%rbp), %r9         # 8-byte Reload
	movq	-376(%rbp), %r10        # 8-byte Reload
	movq	%r10, (%rsp)
	callq	trace_logger_log_int
	movabsq	$.L.str.122, %rdi
	movl	$1, %eax
	movl	%eax, %esi
	xorl	%edx, %edx
	movl	$1, %ecx
	callq	trace_logger_update_status
	movl	$32, %eax
	addq	$376, %rsp              # imm = 0x178
	popq	%rbx
	popq	%r14
	popq	%r15
	popq	%rbp
	retq
.Ltmp79:
.Lfunc_end3:
	.size	populateNeighborList, .Lfunc_end3-populateNeighborList
	.cfi_endproc
                                        # -- End function
	.globl	main                    # -- Begin function main
	.p2align	4, 0x90
	.type	main,@function
main:                                   # @main
.Lfunc_begin4:
	.loc	1 155 0                 # md.c:155:0
	.cfi_startproc
# %bb.0:
	pushq	%rbp
	.cfi_def_cfa_offset 16
	.cfi_offset %rbp, -16
	movq	%rsp, %rbp
	.cfi_def_cfa_register %rbp
	pushq	%r15
	pushq	%r14
	pushq	%r12
	pushq	%rbx
	subq	$12032, %rsp            # imm = 0x2F00
	.cfi_offset %rbx, -48
	.cfi_offset %r12, -40
	.cfi_offset %r14, -32
	.cfi_offset %r15, -24
	callq	trace_logger_init
	movabsq	$.L.str.215, %rdi
	movl	$26, %eax
	movl	%eax, %esi
	callq	trace_logger_register_labelmap
	movq	$-1, %rdi
	movabsq	$.L.str.136, %rsi
	movabsq	$.L.str.3, %rdx
	movabsq	$.L.str.12, %rcx
	movl	$29, %eax
	movl	%eax, %r8d
	xorl	%r9d, %r9d
	movl	$1, %eax
	movl	$1, (%rsp)
	movl	%eax, -8996(%rbp)       # 4-byte Spill
	callq	trace_logger_log0
	movl	$1, %eax
	movl	%eax, %ecx
	movl	$32, %eax
	movl	%eax, %esi
	movabsq	$.L.str.137, %r8
	xorl	%eax, %eax
	movl	%eax, %r9d
	movabsq	$.L.str.6, %rdx
	movq	%rcx, %rdi
	movq	%rdx, -9008(%rbp)       # 8-byte Spill
	movq	%rcx, %rdx
	movq	-9008(%rbp), %r10       # 8-byte Reload
	movq	%r10, (%rsp)
	callq	trace_logger_log_int
	movl	$19134, %eax            # imm = 0x4ABE
	movl	%eax, %edi
	movl	$64, %eax
	movl	%eax, %esi
	movl	$1, %eax
	movl	%eax, %ecx
	movabsq	$.L.str.12, %r8
	xorl	%eax, %eax
	movl	%eax, %r9d
	movabsq	$.L.str.6, %rdx
	leaq	-160(%rbp), %r10
	movq	%rdx, -9016(%rbp)       # 8-byte Spill
	movq	%r10, %rdx
	movq	-9016(%rbp), %r10       # 8-byte Reload
	movq	%r10, (%rsp)
	callq	trace_logger_log_ptr
	movq	$-1, %rdi
	movabsq	$.L.str.136, %rsi
	movabsq	$.L.str.3, %rdx
	movabsq	$.L.str.15, %rcx
	movl	$29, %eax
	movl	%eax, %r8d
	xorl	%r9d, %r9d
	movl	$1, %eax
	movl	$1, (%rsp)
	movl	%eax, -9020(%rbp)       # 4-byte Spill
	callq	trace_logger_log0
	movl	$1, %eax
	movl	%eax, %ecx
	movl	$32, %eax
	movl	%eax, %esi
	movabsq	$.L.str.137, %r8
	xorl	%eax, %eax
	movl	%eax, %r9d
	movabsq	$.L.str.6, %rdx
	movq	%rcx, %rdi
	movq	%rdx, -9032(%rbp)       # 8-byte Spill
	movq	%rcx, %rdx
	movq	-9032(%rbp), %r10       # 8-byte Reload
	movq	%r10, (%rsp)
	callq	trace_logger_log_int
	movl	$19134, %eax            # imm = 0x4ABE
	movl	%eax, %edi
	movl	$64, %eax
	movl	%eax, %esi
	movl	$1, %eax
	movl	%eax, %ecx
	movabsq	$.L.str.15, %r8
	xorl	%eax, %eax
	movl	%eax, %r9d
	movabsq	$.L.str.6, %rdx
	leaq	-288(%rbp), %r10
	movq	%rdx, -9040(%rbp)       # 8-byte Spill
	movq	%r10, %rdx
	movq	-9040(%rbp), %r10       # 8-byte Reload
	movq	%r10, (%rsp)
	callq	trace_logger_log_ptr
	movq	$-1, %rdi
	movabsq	$.L.str.136, %rsi
	movabsq	$.L.str.3, %rdx
	movabsq	$.L.str.18, %rcx
	movl	$29, %eax
	movl	%eax, %r8d
	xorl	%r9d, %r9d
	movl	$1, %eax
	movl	$1, (%rsp)
	movl	%eax, -9044(%rbp)       # 4-byte Spill
	callq	trace_logger_log0
	movl	$1, %eax
	movl	%eax, %ecx
	movl	$32, %eax
	movl	%eax, %esi
	movabsq	$.L.str.137, %r8
	xorl	%eax, %eax
	movl	%eax, %r9d
	movabsq	$.L.str.6, %rdx
	movq	%rcx, %rdi
	movq	%rdx, -9056(%rbp)       # 8-byte Spill
	movq	%rcx, %rdx
	movq	-9056(%rbp), %r10       # 8-byte Reload
	movq	%r10, (%rsp)
	callq	trace_logger_log_int
	movl	$19134, %eax            # imm = 0x4ABE
	movl	%eax, %edi
	movl	$64, %eax
	movl	%eax, %esi
	movl	$1, %eax
	movl	%eax, %ecx
	movabsq	$.L.str.18, %r8
	xorl	%eax, %eax
	movl	%eax, %r9d
	movabsq	$.L.str.6, %rdx
	leaq	-416(%rbp), %r10
	movq	%rdx, -9064(%rbp)       # 8-byte Spill
	movq	%r10, %rdx
	movq	-9064(%rbp), %r10       # 8-byte Reload
	movq	%r10, (%rsp)
	callq	trace_logger_log_ptr
	movq	$-1, %rdi
	movabsq	$.L.str.136, %rsi
	movabsq	$.L.str.3, %rdx
	movabsq	$.L.str.138, %rcx
	movl	$29, %eax
	movl	%eax, %r8d
	xorl	%r9d, %r9d
	movl	$1, %eax
	movl	$1, (%rsp)
	movl	%eax, -9068(%rbp)       # 4-byte Spill
	callq	trace_logger_log0
	movl	$1, %eax
	movl	%eax, %ecx
	movl	$32, %eax
	movl	%eax, %esi
	movabsq	$.L.str.137, %r8
	xorl	%eax, %eax
	movl	%eax, %r9d
	movabsq	$.L.str.6, %rdx
	movq	%rcx, %rdi
	movq	%rdx, -9080(%rbp)       # 8-byte Spill
	movq	%rcx, %rdx
	movq	-9080(%rbp), %r10       # 8-byte Reload
	movq	%r10, (%rsp)
	callq	trace_logger_log_int
	movl	$19134, %eax            # imm = 0x4ABE
	movl	%eax, %edi
	movl	$64, %eax
	movl	%eax, %esi
	movl	$1, %eax
	movl	%eax, %ecx
	movabsq	$.L.str.138, %r8
	xorl	%eax, %eax
	movl	%eax, %r9d
	movabsq	$.L.str.6, %rdx
	leaq	-544(%rbp), %r10
	movq	%rdx, -9088(%rbp)       # 8-byte Spill
	movq	%r10, %rdx
	movq	-9088(%rbp), %r10       # 8-byte Reload
	movq	%r10, (%rsp)
	callq	trace_logger_log_ptr
	movq	$-1, %rdi
	movabsq	$.L.str.136, %rsi
	movabsq	$.L.str.3, %rdx
	movabsq	$.L.str.139, %rcx
	movl	$29, %eax
	movl	%eax, %r8d
	xorl	%r9d, %r9d
	movl	$1, %eax
	movl	$1, (%rsp)
	movl	%eax, -9092(%rbp)       # 4-byte Spill
	callq	trace_logger_log0
	movl	$1, %eax
	movl	%eax, %ecx
	movl	$32, %eax
	movl	%eax, %esi
	movabsq	$.L.str.137, %r8
	xorl	%eax, %eax
	movl	%eax, %r9d
	movabsq	$.L.str.6, %rdx
	movq	%rcx, %rdi
	movq	%rdx, -9104(%rbp)       # 8-byte Spill
	movq	%rcx, %rdx
	movq	-9104(%rbp), %r10       # 8-byte Reload
	movq	%r10, (%rsp)
	callq	trace_logger_log_int
	movl	$19134, %eax            # imm = 0x4ABE
	movl	%eax, %edi
	movl	$64, %eax
	movl	%eax, %esi
	movl	$1, %eax
	movl	%eax, %ecx
	movabsq	$.L.str.139, %r8
	xorl	%eax, %eax
	movl	%eax, %r9d
	movabsq	$.L.str.6, %rdx
	leaq	-672(%rbp), %r10
	movq	%rdx, -9112(%rbp)       # 8-byte Spill
	movq	%r10, %rdx
	movq	-9112(%rbp), %r10       # 8-byte Reload
	movq	%r10, (%rsp)
	callq	trace_logger_log_ptr
	movq	$-1, %rdi
	movabsq	$.L.str.136, %rsi
	movabsq	$.L.str.3, %rdx
	movabsq	$.L.str.140, %rcx
	movl	$29, %eax
	movl	%eax, %r8d
	xorl	%r9d, %r9d
	movl	$1, %eax
	movl	$1, (%rsp)
	movl	%eax, -9116(%rbp)       # 4-byte Spill
	callq	trace_logger_log0
	movl	$1, %eax
	movl	%eax, %ecx
	movl	$32, %eax
	movl	%eax, %esi
	movabsq	$.L.str.137, %r8
	xorl	%eax, %eax
	movl	%eax, %r9d
	movabsq	$.L.str.6, %rdx
	movq	%rcx, %rdi
	movq	%rdx, -9128(%rbp)       # 8-byte Spill
	movq	%rcx, %rdx
	movq	-9128(%rbp), %r10       # 8-byte Reload
	movq	%r10, (%rsp)
	callq	trace_logger_log_int
	movl	$19134, %eax            # imm = 0x4ABE
	movl	%eax, %edi
	movl	$64, %eax
	movl	%eax, %esi
	movl	$1, %eax
	movl	%eax, %ecx
	movabsq	$.L.str.140, %r8
	xorl	%eax, %eax
	movl	%eax, %r9d
	movabsq	$.L.str.6, %rdx
	leaq	-800(%rbp), %r10
	movq	%rdx, -9136(%rbp)       # 8-byte Spill
	movq	%r10, %rdx
	movq	-9136(%rbp), %r10       # 8-byte Reload
	movq	%r10, (%rsp)
	callq	trace_logger_log_ptr
	movq	$-1, %rdi
	movabsq	$.L.str.136, %rsi
	movabsq	$.L.str.3, %rdx
	movabsq	$.L.str.34, %rcx
	movl	$29, %eax
	movl	%eax, %r8d
	xorl	%r9d, %r9d
	movl	$1, %eax
	movl	$1, (%rsp)
	movl	%eax, -9140(%rbp)       # 4-byte Spill
	callq	trace_logger_log0
	movl	$1, %eax
	movl	%eax, %ecx
	movl	$32, %eax
	movl	%eax, %esi
	movabsq	$.L.str.137, %r8
	xorl	%eax, %eax
	movl	%eax, %r9d
	movabsq	$.L.str.6, %rdx
	movq	%rcx, %rdi
	movq	%rdx, -9152(%rbp)       # 8-byte Spill
	movq	%rcx, %rdx
	movq	-9152(%rbp), %r10       # 8-byte Reload
	movq	%r10, (%rsp)
	callq	trace_logger_log_int
	movl	$19134, %eax            # imm = 0x4ABE
	movl	%eax, %edi
	movl	$64, %eax
	movl	%eax, %esi
	movl	$1, %eax
	movl	%eax, %ecx
	movabsq	$.L.str.34, %r8
	xorl	%eax, %eax
	movl	%eax, %r9d
	movabsq	$.L.str.6, %rdx
	leaq	-4896(%rbp), %r10
	movq	%rdx, -9160(%rbp)       # 8-byte Spill
	movq	%r10, %rdx
	movq	-9160(%rbp), %r10       # 8-byte Reload
	movq	%r10, (%rsp)
	callq	trace_logger_log_ptr
	movq	$-1, %rdi
	movabsq	$.L.str.136, %rsi
	movabsq	$.L.str.3, %rdx
	movabsq	$.L.str.141, %rcx
	movl	$29, %eax
	movl	%eax, %r8d
	xorl	%r9d, %r9d
	movl	$1, %eax
	movl	$1, (%rsp)
	movl	%eax, -9164(%rbp)       # 4-byte Spill
	callq	trace_logger_log0
	movl	$1, %eax
	movl	%eax, %ecx
	movl	$32, %eax
	movl	%eax, %esi
	movabsq	$.L.str.137, %r8
	xorl	%eax, %eax
	movl	%eax, %r9d
	movabsq	$.L.str.6, %rdx
	movq	%rcx, %rdi
	movq	%rdx, -9176(%rbp)       # 8-byte Spill
	movq	%rcx, %rdx
	movq	-9176(%rbp), %r10       # 8-byte Reload
	movq	%r10, (%rsp)
	callq	trace_logger_log_int
	movl	$19134, %eax            # imm = 0x4ABE
	movl	%eax, %edi
	movl	$64, %eax
	movl	%eax, %esi
	movl	$1, %eax
	movl	%eax, %ecx
	movabsq	$.L.str.141, %r8
	xorl	%eax, %eax
	movl	%eax, %r9d
	movabsq	$.L.str.6, %rdx
	leaq	-8992(%rbp), %r10
.Ltmp80:
	.loc	1 156 6 prologue_end    # md.c:156:6
	movq	%rdx, -9184(%rbp)       # 8-byte Spill
	movq	%r10, %rdx
	movq	-9184(%rbp), %r10       # 8-byte Reload
	movq	%r10, (%rsp)
	callq	trace_logger_log_ptr
	movl	$159, %eax
	movl	%eax, %edi
	movabsq	$.L.str.136, %rsi
	movabsq	$.L.str.3, %rdx
	movabsq	$.L.str.96, %rcx
	movl	$54, %eax
	movl	%eax, %r8d
	xorl	%r9d, %r9d
	movl	$1, %eax
.Ltmp81:
	#DEBUG_VALUE: main:sizeClass <- 1
	#DEBUG_VALUE: main:passes <- 1
	#DEBUG_VALUE: main:iter <- 1
	#DEBUG_VALUE: main:err <- 0
	#DEBUG_VALUE: main:localSize <- 128
	#DEBUG_VALUE: main:globalSize <- 32
	.loc	1 159 2                 # md.c:159:2
	movl	$1, (%rsp)
	movl	%eax, -9188(%rbp)       # 4-byte Spill
	callq	trace_logger_log0
	movl	$2, %eax
	movl	%eax, %edi
	movl	$64, %eax
	movl	%eax, %esi
	movabsq	$srand, %rdx
	movl	$1, %eax
	movl	%eax, %ecx
	movabsq	$.L.str.142, %r8
	xorl	%eax, %eax
	movl	%eax, %r9d
	movabsq	$.L.str.6, %r10
	movq	%r10, (%rsp)
	callq	trace_logger_log_ptr
	movl	$1, %eax
	movl	%eax, %edi
	movl	$32, %eax
	movl	%eax, %esi
	movl	$8650341, %eax          # imm = 0x83FE65
	movl	%eax, %edx
	xorl	%eax, %eax
	movl	%eax, %ecx
	movabsq	$.L.str.10, %r8
	movabsq	$.L.str.6, %r9
	movq	%rcx, -9200(%rbp)       # 8-byte Spill
	movq	-9200(%rbp), %r10       # 8-byte Reload
	movq	%r9, -9208(%rbp)        # 8-byte Spill
	movq	%r10, %r9
	movq	-9208(%rbp), %r11       # 8-byte Reload
	movq	%r11, (%rsp)
	callq	trace_logger_log_int
	movl	$8650341, %edi          # imm = 0x83FE65
	callq	srand
	movl	$161, %eax
	movl	%eax, %edi
	movabsq	$.L.str.136, %rsi
	movabsq	$.L.str.3, %rdx
	movabsq	$.L.str.77, %rcx
	movl	$47, %eax
	movl	%eax, %r8d
	xorl	%r9d, %r9d
	movl	$1, %eax
	.loc	1 161 2                 # md.c:161:2
	movl	$1, (%rsp)
	movl	%eax, -9212(%rbp)       # 4-byte Spill
	callq	trace_logger_log0
	movl	$1, %eax
	movl	%eax, %ecx
	movl	$64, %eax
	movl	%eax, %esi
	movabsq	$.L.str.12, %r8
	xorl	%eax, %eax
	movl	%eax, %r9d
	movabsq	$.L.str.6, %rdx
	leaq	-160(%rbp), %rdi
	movq	%rdi, -9224(%rbp)       # 8-byte Spill
	movq	%rcx, %rdi
	movq	-9224(%rbp), %r10       # 8-byte Reload
	movq	%rdx, -9232(%rbp)       # 8-byte Spill
	movq	%r10, %rdx
	movq	-9232(%rbp), %r11       # 8-byte Reload
	movq	%r11, (%rsp)
	callq	trace_logger_log_ptr
	movl	$19134, %eax            # imm = 0x4ABE
	movl	%eax, %edi
	movl	$64, %eax
	movl	%eax, %esi
	movl	$1, %eax
	movl	%eax, %ecx
	movabsq	$.L.str.12, %r8
	xorl	%eax, %eax
	movl	%eax, %r9d
	movabsq	$.L.str.6, %rdx
	leaq	-160(%rbp), %r10
	movq	%rdx, -9240(%rbp)       # 8-byte Spill
	movq	%r10, %rdx
	movq	-9240(%rbp), %r10       # 8-byte Reload
	movq	%r10, (%rsp)
	callq	trace_logger_log_ptr
	movl	$162, %eax
	movl	%eax, %edi
	movabsq	$.L.str.136, %rsi
	movabsq	$.L.str.3, %rdx
	movabsq	$.L.str.80, %rcx
	movl	$47, %eax
	movl	%eax, %r8d
	xorl	%r9d, %r9d
	movl	$1, %eax
	.loc	1 162 2                 # md.c:162:2
	movl	$1, (%rsp)
	movl	%eax, -9244(%rbp)       # 4-byte Spill
	callq	trace_logger_log0
	movl	$1, %eax
	movl	%eax, %ecx
	movl	$64, %eax
	movl	%eax, %esi
	movabsq	$.L.str.15, %r8
	xorl	%eax, %eax
	movl	%eax, %r9d
	movabsq	$.L.str.6, %rdx
	leaq	-288(%rbp), %rdi
	movq	%rdi, -9256(%rbp)       # 8-byte Spill
	movq	%rcx, %rdi
	movq	-9256(%rbp), %r10       # 8-byte Reload
	movq	%rdx, -9264(%rbp)       # 8-byte Spill
	movq	%r10, %rdx
	movq	-9264(%rbp), %r11       # 8-byte Reload
	movq	%r11, (%rsp)
	callq	trace_logger_log_ptr
	movl	$19134, %eax            # imm = 0x4ABE
	movl	%eax, %edi
	movl	$64, %eax
	movl	%eax, %esi
	movl	$1, %eax
	movl	%eax, %ecx
	movabsq	$.L.str.15, %r8
	xorl	%eax, %eax
	movl	%eax, %r9d
	movabsq	$.L.str.6, %rdx
	leaq	-288(%rbp), %r10
	movq	%rdx, -9272(%rbp)       # 8-byte Spill
	movq	%r10, %rdx
	movq	-9272(%rbp), %r10       # 8-byte Reload
	movq	%r10, (%rsp)
	callq	trace_logger_log_ptr
	movl	$163, %eax
	movl	%eax, %edi
	movabsq	$.L.str.136, %rsi
	movabsq	$.L.str.3, %rdx
	movabsq	$.L.str.81, %rcx
	movl	$47, %eax
	movl	%eax, %r8d
	xorl	%r9d, %r9d
	movl	$1, %eax
	.loc	1 163 2                 # md.c:163:2
	movl	$1, (%rsp)
	movl	%eax, -9276(%rbp)       # 4-byte Spill
	callq	trace_logger_log0
	movl	$1, %eax
	movl	%eax, %ecx
	movl	$64, %eax
	movl	%eax, %esi
	movabsq	$.L.str.18, %r8
	xorl	%eax, %eax
	movl	%eax, %r9d
	movabsq	$.L.str.6, %rdx
	leaq	-416(%rbp), %rdi
	movq	%rdi, -9288(%rbp)       # 8-byte Spill
	movq	%rcx, %rdi
	movq	-9288(%rbp), %r10       # 8-byte Reload
	movq	%rdx, -9296(%rbp)       # 8-byte Spill
	movq	%r10, %rdx
	movq	-9296(%rbp), %r11       # 8-byte Reload
	movq	%r11, (%rsp)
	callq	trace_logger_log_ptr
	movl	$19134, %eax            # imm = 0x4ABE
	movl	%eax, %edi
	movl	$64, %eax
	movl	%eax, %esi
	movl	$1, %eax
	movl	%eax, %ecx
	movabsq	$.L.str.18, %r8
	xorl	%eax, %eax
	movl	%eax, %r9d
	movabsq	$.L.str.6, %rdx
	leaq	-416(%rbp), %r10
	movq	%rdx, -9304(%rbp)       # 8-byte Spill
	movq	%r10, %rdx
	movq	-9304(%rbp), %r10       # 8-byte Reload
	movq	%r10, (%rsp)
	callq	trace_logger_log_ptr
	movl	$164, %eax
	movl	%eax, %edi
	movabsq	$.L.str.136, %rsi
	movabsq	$.L.str.3, %rdx
	movabsq	$.L.str.83, %rcx
	movl	$47, %eax
	movl	%eax, %r8d
	xorl	%r9d, %r9d
	movl	$1, %eax
	.loc	1 164 2                 # md.c:164:2
	movl	$1, (%rsp)
	movl	%eax, -9308(%rbp)       # 4-byte Spill
	callq	trace_logger_log0
	movl	$1, %eax
	movl	%eax, %ecx
	movl	$64, %eax
	movl	%eax, %esi
	movabsq	$.L.str.138, %r8
	xorl	%eax, %eax
	movl	%eax, %r9d
	movabsq	$.L.str.6, %rdx
	leaq	-544(%rbp), %rdi
	movq	%rdi, -9320(%rbp)       # 8-byte Spill
	movq	%rcx, %rdi
	movq	-9320(%rbp), %r10       # 8-byte Reload
	movq	%rdx, -9328(%rbp)       # 8-byte Spill
	movq	%r10, %rdx
	movq	-9328(%rbp), %r11       # 8-byte Reload
	movq	%r11, (%rsp)
	callq	trace_logger_log_ptr
	movl	$19134, %eax            # imm = 0x4ABE
	movl	%eax, %edi
	movl	$64, %eax
	movl	%eax, %esi
	movl	$1, %eax
	movl	%eax, %ecx
	movabsq	$.L.str.138, %r8
	xorl	%eax, %eax
	movl	%eax, %r9d
	movabsq	$.L.str.6, %rdx
	leaq	-544(%rbp), %r10
	movq	%rdx, -9336(%rbp)       # 8-byte Spill
	movq	%r10, %rdx
	movq	-9336(%rbp), %r10       # 8-byte Reload
	movq	%r10, (%rsp)
	callq	trace_logger_log_ptr
	movl	$165, %eax
	movl	%eax, %edi
	movabsq	$.L.str.136, %rsi
	movabsq	$.L.str.3, %rdx
	movabsq	$.L.str.20, %rcx
	movl	$47, %eax
	movl	%eax, %r8d
	xorl	%r9d, %r9d
	movl	$1, %eax
	.loc	1 165 2                 # md.c:165:2
	movl	$1, (%rsp)
	movl	%eax, -9340(%rbp)       # 4-byte Spill
	callq	trace_logger_log0
	movl	$1, %eax
	movl	%eax, %ecx
	movl	$64, %eax
	movl	%eax, %esi
	movabsq	$.L.str.139, %r8
	xorl	%eax, %eax
	movl	%eax, %r9d
	movabsq	$.L.str.6, %rdx
	leaq	-672(%rbp), %rdi
	movq	%rdi, -9352(%rbp)       # 8-byte Spill
	movq	%rcx, %rdi
	movq	-9352(%rbp), %r10       # 8-byte Reload
	movq	%rdx, -9360(%rbp)       # 8-byte Spill
	movq	%r10, %rdx
	movq	-9360(%rbp), %r11       # 8-byte Reload
	movq	%r11, (%rsp)
	callq	trace_logger_log_ptr
	movl	$19134, %eax            # imm = 0x4ABE
	movl	%eax, %edi
	movl	$64, %eax
	movl	%eax, %esi
	movl	$1, %eax
	movl	%eax, %ecx
	movabsq	$.L.str.139, %r8
	xorl	%eax, %eax
	movl	%eax, %r9d
	movabsq	$.L.str.6, %rdx
	leaq	-672(%rbp), %r10
	movq	%rdx, -9368(%rbp)       # 8-byte Spill
	movq	%r10, %rdx
	movq	-9368(%rbp), %r10       # 8-byte Reload
	movq	%r10, (%rsp)
	callq	trace_logger_log_ptr
	movl	$166, %eax
	movl	%eax, %edi
	movabsq	$.L.str.136, %rsi
	movabsq	$.L.str.3, %rdx
	movabsq	$.L.str.85, %rcx
	movl	$47, %eax
	movl	%eax, %r8d
	xorl	%r9d, %r9d
	movl	$1, %eax
	.loc	1 166 2                 # md.c:166:2
	movl	$1, (%rsp)
	movl	%eax, -9372(%rbp)       # 4-byte Spill
	callq	trace_logger_log0
	movl	$1, %eax
	movl	%eax, %ecx
	movl	$64, %eax
	movl	%eax, %esi
	movabsq	$.L.str.140, %r8
	xorl	%eax, %eax
	movl	%eax, %r9d
	movabsq	$.L.str.6, %rdx
	leaq	-800(%rbp), %rdi
	movq	%rdi, -9384(%rbp)       # 8-byte Spill
	movq	%rcx, %rdi
	movq	-9384(%rbp), %r10       # 8-byte Reload
	movq	%rdx, -9392(%rbp)       # 8-byte Spill
	movq	%r10, %rdx
	movq	-9392(%rbp), %r11       # 8-byte Reload
	movq	%r11, (%rsp)
	callq	trace_logger_log_ptr
	movl	$19134, %eax            # imm = 0x4ABE
	movl	%eax, %edi
	movl	$64, %eax
	movl	%eax, %esi
	movl	$1, %eax
	movl	%eax, %ecx
	movabsq	$.L.str.140, %r8
	xorl	%eax, %eax
	movl	%eax, %r9d
	movabsq	$.L.str.6, %rdx
	leaq	-800(%rbp), %r10
	movq	%rdx, -9400(%rbp)       # 8-byte Spill
	movq	%r10, %rdx
	movq	-9400(%rbp), %r10       # 8-byte Reload
	movq	%r10, (%rsp)
	callq	trace_logger_log_ptr
	movl	$167, %eax
	movl	%eax, %edi
	movabsq	$.L.str.136, %rsi
	movabsq	$.L.str.3, %rdx
	movabsq	$.L.str.32, %rcx
	movl	$47, %eax
	movl	%eax, %r8d
	xorl	%r9d, %r9d
	movl	$1, %eax
	.loc	1 167 2                 # md.c:167:2
	movl	$1, (%rsp)
	movl	%eax, -9404(%rbp)       # 4-byte Spill
	callq	trace_logger_log0
	movl	$1, %eax
	movl	%eax, %ecx
	movl	$64, %eax
	movl	%eax, %esi
	movabsq	$.L.str.34, %r8
	xorl	%eax, %eax
	movl	%eax, %r9d
	movabsq	$.L.str.6, %rdx
	leaq	-4896(%rbp), %rdi
	movq	%rdi, -9416(%rbp)       # 8-byte Spill
	movq	%rcx, %rdi
	movq	-9416(%rbp), %r10       # 8-byte Reload
	movq	%rdx, -9424(%rbp)       # 8-byte Spill
	movq	%r10, %rdx
	movq	-9424(%rbp), %r11       # 8-byte Reload
	movq	%r11, (%rsp)
	callq	trace_logger_log_ptr
	movl	$19134, %eax            # imm = 0x4ABE
	movl	%eax, %edi
	movl	$64, %eax
	movl	%eax, %esi
	movl	$1, %eax
	movl	%eax, %ecx
	movabsq	$.L.str.34, %r8
	xorl	%eax, %eax
	movl	%eax, %r9d
	movabsq	$.L.str.6, %rdx
	leaq	-4896(%rbp), %r10
	movq	%rdx, -9432(%rbp)       # 8-byte Spill
	movq	%r10, %rdx
	movq	-9432(%rbp), %r10       # 8-byte Reload
	movq	%r10, (%rsp)
	callq	trace_logger_log_ptr
	movl	$168, %eax
	movl	%eax, %edi
	movabsq	$.L.str.136, %rsi
	movabsq	$.L.str.3, %rdx
	movabsq	$.L.str.143, %rcx
	movl	$47, %eax
	movl	%eax, %r8d
	xorl	%r9d, %r9d
	movl	$1, %eax
	.loc	1 168 3                 # md.c:168:3
	movl	$1, (%rsp)
	movl	%eax, -9436(%rbp)       # 4-byte Spill
	callq	trace_logger_log0
	movl	$1, %eax
	movl	%eax, %ecx
	movl	$64, %eax
	movl	%eax, %esi
	movabsq	$.L.str.141, %r8
	xorl	%eax, %eax
	movl	%eax, %r9d
	movabsq	$.L.str.6, %rdx
	leaq	-8992(%rbp), %rdi
	movq	%rdi, -9448(%rbp)       # 8-byte Spill
	movq	%rcx, %rdi
	movq	-9448(%rbp), %r10       # 8-byte Reload
	movq	%rdx, -9456(%rbp)       # 8-byte Spill
	movq	%r10, %rdx
	movq	-9456(%rbp), %r11       # 8-byte Reload
	movq	%r11, (%rsp)
	callq	trace_logger_log_ptr
	movl	$19134, %eax            # imm = 0x4ABE
	movl	%eax, %edi
	movl	$64, %eax
	movl	%eax, %esi
	movl	$1, %eax
	movl	%eax, %ecx
	movabsq	$.L.str.141, %r8
	xorl	%eax, %eax
	movl	%eax, %r9d
	movabsq	$.L.str.6, %rdx
	leaq	-8992(%rbp), %r10
	movq	%rdx, -9464(%rbp)       # 8-byte Spill
	movq	%r10, %rdx
	movq	-9464(%rbp), %r10       # 8-byte Reload
	movq	%r10, (%rsp)
	callq	trace_logger_log_ptr
	movl	$170, %eax
	movl	%eax, %edi
	movabsq	$.L.str.136, %rsi
	movabsq	$.L.str.3, %rdx
	movabsq	$.L.str.144, %rcx
	movl	$2, %eax
	movl	%eax, %r8d
	xorl	%r9d, %r9d
	movl	$1, %eax
.Ltmp82:
	#DEBUG_VALUE: main:i <- 0
	.loc	1 170 2                 # md.c:170:2
	movl	$1, (%rsp)
	movl	%eax, -9468(%rbp)       # 4-byte Spill
	callq	trace_logger_log0
	movl	$1, %eax
	movl	%eax, %ecx
	xorl	%eax, %eax
	movl	%eax, %edx
	movabsq	$.L.str.145, %r8
	movabsq	$.L.str.6, %rsi
	movq	%rcx, %rdi
	movq	%rsi, -9480(%rbp)       # 8-byte Spill
	movq	%rdx, %rsi
	movq	%rdx, -9488(%rbp)       # 8-byte Spill
	movq	-9488(%rbp), %r9        # 8-byte Reload
	movq	-9480(%rbp), %r10       # 8-byte Reload
	movq	%r10, (%rsp)
	callq	trace_logger_log_int
	xorl	%eax, %eax
	movl	%eax, %ecx
	movq	%rcx, -9496(%rbp)       # 8-byte Spill
.Ltmp83:
.LBB4_1:                                # =>This Inner Loop Header: Depth=1
	.loc	1 0 2 is_stmt 0         # md.c:0:2
	movq	-9496(%rbp), %rax       # 8-byte Reload
	movq	$-1, %rdi
	movabsq	$.L.str.136, %rsi
	movabsq	$.L.str.145, %rdx
	movabsq	$.L.str.146, %rcx
	movl	$53, %r8d
                                        # kill: def %r8 killed %r8d
	xorl	%r9d, %r9d
	movl	$1, %r10d
	.loc	1 156 66 is_stmt 1      # md.c:156:66
	movl	$1, (%rsp)
	movq	%rax, -9504(%rbp)       # 8-byte Spill
	movl	%r10d, -9508(%rbp)      # 4-byte Spill
	callq	trace_logger_log0
	movl	$2, %r9d
	movl	%r9d, %edi
	movl	$64, %r9d
	movl	%r9d, %esi
	xorl	%r9d, %r9d
	movl	%r9d, %edx
	movl	$1, %r9d
	movl	%r9d, %eax
	movabsq	$.L.str.147, %r8
	movabsq	$.L.str.145, %rcx
	movq	%rcx, -9520(%rbp)       # 8-byte Spill
	movq	%rax, %rcx
	movq	%rax, %r9
	movq	-9520(%rbp), %rax       # 8-byte Reload
	movq	%rax, (%rsp)
	callq	trace_logger_log_int
	movl	$1, %r10d
	movl	%r10d, %eax
	movl	$64, %r10d
	movl	%r10d, %esi
	xorl	%r10d, %r10d
	movl	%r10d, %ecx
	movabsq	$.L.str.10, %r8
	movabsq	$.L.str.3, %rdx
	movq	%rax, %rdi
	movq	%rdx, -9528(%rbp)       # 8-byte Spill
	movq	%rcx, %rdx
	movq	%rax, %r9
	movq	-9528(%rbp), %rax       # 8-byte Reload
	movq	%rax, (%rsp)
	callq	trace_logger_log_int
	movl	$19134, %r10d           # imm = 0x4ABE
	movl	%r10d, %edi
	movl	$64, %r10d
	movl	%r10d, %esi
	movl	$1, %r10d
	movl	%r10d, %ecx
	movabsq	$.L.str.146, %r8
	xorl	%r10d, %r10d
	movl	%r10d, %r9d
	movabsq	$.L.str.3, %rax
	movq	-9504(%rbp), %rdx       # 8-byte Reload
	movq	%rax, (%rsp)
	callq	trace_logger_log_int
	movl	$172, %r10d
	movl	%r10d, %edi
	movabsq	$.L.str.136, %rsi
	movabsq	$.L.str.145, %rdx
	movabsq	$.L.str.148, %rcx
	movl	$54, %r10d
	movl	%r10d, %r8d
	xorl	%r9d, %r9d
	movl	$1, %r10d
.Ltmp84:
	#DEBUG_VALUE: main:i <- [DW_OP_constu 9504, DW_OP_minus] [%rbp+0]
	.loc	1 172 19                # md.c:172:19
	movl	$1, (%rsp)
	movl	%r10d, -9532(%rbp)      # 4-byte Spill
	callq	trace_logger_log0
	movl	$1, %r9d
	movl	%r9d, %eax
	movl	$64, %r9d
	movl	%r9d, %esi
	movabsq	$rand, %rdx
	movabsq	$.L.str.149, %r8
	xorl	%r9d, %r9d
                                        # kill: def %r9 killed %r9d
	movabsq	$.L.str.6, %rcx
	movq	%rax, %rdi
	movq	%rcx, -9544(%rbp)       # 8-byte Spill
	movq	%rax, %rcx
	movq	-9544(%rbp), %rax       # 8-byte Reload
	movq	%rax, (%rsp)
	callq	trace_logger_log_ptr
	callq	rand
	movl	$19134, %r10d           # imm = 0x4ABE
	movl	%r10d, %edi
	movl	$32, %r10d
	movl	%r10d, %esi
	movl	$1, %r10d
	movl	%r10d, %ecx
	movabsq	$.L.str.148, %r8
	xorl	%r10d, %r10d
	movl	%r10d, %r9d
	movabsq	$.L.str.6, %rdx
	.loc	1 172 3 is_stmt 0       # md.c:172:3
	movl	%eax, %r10d
	movl	%r10d, %r11d
	movq	%rdx, -9552(%rbp)       # 8-byte Spill
	movq	%r11, %rdx
	movq	-9552(%rbp), %r11       # 8-byte Reload
	movq	%r11, (%rsp)
	movl	%eax, -9556(%rbp)       # 4-byte Spill
	callq	trace_logger_log_int
	movl	$172, %eax
	movl	%eax, %edi
	movabsq	$.L.str.136, %rsi
	movabsq	$.L.str.145, %rdx
	movabsq	$.L.str.11, %rcx
	movl	$32, %eax
	movl	%eax, %r8d
	xorl	%r9d, %r9d
	movl	$1, %eax
	movl	$1, (%rsp)
	movl	%eax, -9560(%rbp)       # 4-byte Spill
	callq	trace_logger_log0
	movl	$3, %eax
	movl	%eax, %edi
	movl	$64, %eax
	movl	%eax, %esi
	movl	$1, %eax
	movl	%eax, %ecx
	movabsq	$.L.str.146, %r8
	xorl	%eax, %eax
	movl	%eax, %r9d
	movabsq	$.L.str.6, %rdx
	movq	-9504(%rbp), %r11       # 8-byte Reload
	movq	%rdx, -9568(%rbp)       # 8-byte Spill
	movq	%r11, %rdx
	movq	-9568(%rbp), %rbx       # 8-byte Reload
	movq	%rbx, (%rsp)
	callq	trace_logger_log_int
	movl	$2, %eax
	movl	%eax, %edi
	movl	$64, %eax
	movl	%eax, %esi
	xorl	%eax, %eax
	movl	%eax, %ecx
	movabsq	$.L.str.10, %r8
	movabsq	$.L.str.6, %rdx
	movq	%rdx, -9576(%rbp)       # 8-byte Spill
	movq	%rcx, %rdx
	movq	%rcx, -9584(%rbp)       # 8-byte Spill
	movq	-9584(%rbp), %r9        # 8-byte Reload
	movq	-9576(%rbp), %r11       # 8-byte Reload
	movq	%r11, (%rsp)
	callq	trace_logger_log_int
	movl	$1, %eax
	movl	%eax, %ecx
	movl	$64, %eax
	movl	%eax, %esi
	movabsq	$.L.str.12, %r8
	xorl	%eax, %eax
	movl	%eax, %r9d
	movabsq	$.L.str.6, %rdx
	leaq	-160(%rbp), %rdi
	movq	%rdi, -9592(%rbp)       # 8-byte Spill
	movq	%rcx, %rdi
	movq	-9592(%rbp), %r11       # 8-byte Reload
	movq	%rdx, -9600(%rbp)       # 8-byte Spill
	movq	%r11, %rdx
	movq	-9600(%rbp), %rbx       # 8-byte Reload
	movq	%rbx, (%rsp)
	callq	trace_logger_log_ptr
	movl	$19134, %eax            # imm = 0x4ABE
	movl	%eax, %edi
	movl	$64, %eax
	movl	%eax, %esi
	movl	$1, %eax
	movl	%eax, %ecx
	movabsq	$.L.str.11, %r8
	xorl	%eax, %eax
	movl	%eax, %r9d
	movabsq	$.L.str.6, %rdx
	leaq	-160(%rbp), %r11
	movq	-9504(%rbp), %rbx       # 8-byte Reload
	shlq	$2, %rbx
	addq	%rbx, %r11
	.loc	1 172 17                # md.c:172:17
	movq	%rdx, -9608(%rbp)       # 8-byte Spill
	movq	%r11, %rdx
	movq	-9608(%rbp), %rbx       # 8-byte Reload
	movq	%rbx, (%rsp)
	movq	%r11, -9616(%rbp)       # 8-byte Spill
	callq	trace_logger_log_ptr
	movl	$172, %eax
	movl	%eax, %edi
	movabsq	$.L.str.136, %rsi
	movabsq	$.L.str.145, %rdx
	movabsq	$.L.str.150, %rcx
	movl	$31, %eax
	movl	%eax, %r8d
	xorl	%r9d, %r9d
	movl	$1, %eax
	movl	$1, (%rsp)
	movl	%eax, -9620(%rbp)       # 4-byte Spill
	callq	trace_logger_log0
	movl	$2, %eax
	movl	%eax, %edi
	movl	$64, %eax
	movl	%eax, %esi
	movl	$1, %eax
	movl	%eax, %ecx
	movabsq	$.L.str.11, %r8
	xorl	%eax, %eax
	movl	%eax, %r9d
	movabsq	$.L.str.6, %rdx
	movq	-9616(%rbp), %r11       # 8-byte Reload
	movq	%rdx, -9632(%rbp)       # 8-byte Spill
	movq	%r11, %rdx
	movq	-9632(%rbp), %rbx       # 8-byte Reload
	movq	%rbx, (%rsp)
	callq	trace_logger_log_ptr
	movl	$1, %eax
	movl	%eax, %ecx
	movl	$32, %eax
	movl	%eax, %esi
	movabsq	$.L.str.148, %r8
	xorl	%eax, %eax
	movl	%eax, %r9d
	movabsq	$.L.str.6, %rdx
	movl	-9556(%rbp), %eax       # 4-byte Reload
	movl	%eax, %r10d
	movl	%r10d, %edi
	movq	%rdi, -9640(%rbp)       # 8-byte Spill
	movq	%rcx, %rdi
	movq	-9640(%rbp), %r11       # 8-byte Reload
	movq	%rdx, -9648(%rbp)       # 8-byte Spill
	movq	%r11, %rdx
	movq	-9648(%rbp), %rbx       # 8-byte Reload
	movq	%rbx, (%rsp)
	callq	trace_logger_log_int
	movl	$173, %eax
	movl	%eax, %edi
	movabsq	$.L.str.136, %rsi
	movabsq	$.L.str.145, %rdx
	movabsq	$.L.str.151, %rcx
	movl	$54, %eax
	movl	%eax, %r8d
	xorl	%r9d, %r9d
	movl	$1, %eax
	movq	-9504(%rbp), %r11       # 8-byte Reload
	movl	-9556(%rbp), %r10d      # 4-byte Reload
	movl	%r10d, -160(%rbp,%r11,4)
	.loc	1 173 19 is_stmt 1      # md.c:173:19
	movl	$1, (%rsp)
	movl	%eax, -9652(%rbp)       # 4-byte Spill
	callq	trace_logger_log0
	movl	$1, %eax
	movl	%eax, %ecx
	movl	$64, %eax
	movl	%eax, %esi
	movabsq	$rand, %rdx
	movabsq	$.L.str.149, %r8
	xorl	%eax, %eax
	movl	%eax, %r9d
	movabsq	$.L.str.6, %rdi
	movq	%rdi, -9664(%rbp)       # 8-byte Spill
	movq	%rcx, %rdi
	movq	-9664(%rbp), %r11       # 8-byte Reload
	movq	%r11, (%rsp)
	callq	trace_logger_log_ptr
	callq	rand
	movl	$19134, %r10d           # imm = 0x4ABE
	movl	%r10d, %edi
	movl	$32, %r10d
	movl	%r10d, %esi
	movl	$1, %r10d
	movl	%r10d, %ecx
	movabsq	$.L.str.151, %r8
	xorl	%r10d, %r10d
	movl	%r10d, %r9d
	movabsq	$.L.str.6, %rdx
	.loc	1 173 3 is_stmt 0       # md.c:173:3
	movl	%eax, %r10d
	movl	%r10d, %r11d
	movq	%rdx, -9672(%rbp)       # 8-byte Spill
	movq	%r11, %rdx
	movq	-9672(%rbp), %r11       # 8-byte Reload
	movq	%r11, (%rsp)
	movl	%eax, -9676(%rbp)       # 4-byte Spill
	callq	trace_logger_log_int
	movl	$173, %eax
	movl	%eax, %edi
	movabsq	$.L.str.136, %rsi
	movabsq	$.L.str.145, %rdx
	movabsq	$.L.str.152, %rcx
	movl	$32, %eax
	movl	%eax, %r8d
	xorl	%r9d, %r9d
	movl	$1, %eax
	movl	$1, (%rsp)
	movl	%eax, -9680(%rbp)       # 4-byte Spill
	callq	trace_logger_log0
	movl	$3, %eax
	movl	%eax, %edi
	movl	$64, %eax
	movl	%eax, %esi
	movl	$1, %eax
	movl	%eax, %ecx
	movabsq	$.L.str.146, %r8
	xorl	%eax, %eax
	movl	%eax, %r9d
	movabsq	$.L.str.6, %rdx
	movq	-9504(%rbp), %r11       # 8-byte Reload
	movq	%rdx, -9688(%rbp)       # 8-byte Spill
	movq	%r11, %rdx
	movq	-9688(%rbp), %rbx       # 8-byte Reload
	movq	%rbx, (%rsp)
	callq	trace_logger_log_int
	movl	$2, %eax
	movl	%eax, %edi
	movl	$64, %eax
	movl	%eax, %esi
	xorl	%eax, %eax
	movl	%eax, %ecx
	movabsq	$.L.str.10, %r8
	movabsq	$.L.str.6, %rdx
	movq	%rdx, -9696(%rbp)       # 8-byte Spill
	movq	%rcx, %rdx
	movq	%rcx, -9704(%rbp)       # 8-byte Spill
	movq	-9704(%rbp), %r9        # 8-byte Reload
	movq	-9696(%rbp), %r11       # 8-byte Reload
	movq	%r11, (%rsp)
	callq	trace_logger_log_int
	movl	$1, %eax
	movl	%eax, %ecx
	movl	$64, %eax
	movl	%eax, %esi
	movabsq	$.L.str.15, %r8
	xorl	%eax, %eax
	movl	%eax, %r9d
	movabsq	$.L.str.6, %rdx
	leaq	-288(%rbp), %rdi
	movq	%rdi, -9712(%rbp)       # 8-byte Spill
	movq	%rcx, %rdi
	movq	-9712(%rbp), %r11       # 8-byte Reload
	movq	%rdx, -9720(%rbp)       # 8-byte Spill
	movq	%r11, %rdx
	movq	-9720(%rbp), %rbx       # 8-byte Reload
	movq	%rbx, (%rsp)
	callq	trace_logger_log_ptr
	movl	$19134, %eax            # imm = 0x4ABE
	movl	%eax, %edi
	movl	$64, %eax
	movl	%eax, %esi
	movl	$1, %eax
	movl	%eax, %ecx
	movabsq	$.L.str.152, %r8
	xorl	%eax, %eax
	movl	%eax, %r9d
	movabsq	$.L.str.6, %rdx
	leaq	-288(%rbp), %r11
	movq	-9504(%rbp), %rbx       # 8-byte Reload
	shlq	$2, %rbx
	addq	%rbx, %r11
	.loc	1 173 17                # md.c:173:17
	movq	%rdx, -9728(%rbp)       # 8-byte Spill
	movq	%r11, %rdx
	movq	-9728(%rbp), %rbx       # 8-byte Reload
	movq	%rbx, (%rsp)
	movq	%r11, -9736(%rbp)       # 8-byte Spill
	callq	trace_logger_log_ptr
	movl	$173, %eax
	movl	%eax, %edi
	movabsq	$.L.str.136, %rsi
	movabsq	$.L.str.145, %rdx
	movabsq	$.L.str.153, %rcx
	movl	$31, %eax
	movl	%eax, %r8d
	xorl	%r9d, %r9d
	movl	$1, %eax
	movl	$1, (%rsp)
	movl	%eax, -9740(%rbp)       # 4-byte Spill
	callq	trace_logger_log0
	movl	$2, %eax
	movl	%eax, %edi
	movl	$64, %eax
	movl	%eax, %esi
	movl	$1, %eax
	movl	%eax, %ecx
	movabsq	$.L.str.152, %r8
	xorl	%eax, %eax
	movl	%eax, %r9d
	movabsq	$.L.str.6, %rdx
	movq	-9736(%rbp), %r11       # 8-byte Reload
	movq	%rdx, -9752(%rbp)       # 8-byte Spill
	movq	%r11, %rdx
	movq	-9752(%rbp), %rbx       # 8-byte Reload
	movq	%rbx, (%rsp)
	callq	trace_logger_log_ptr
	movl	$1, %eax
	movl	%eax, %ecx
	movl	$32, %eax
	movl	%eax, %esi
	movabsq	$.L.str.151, %r8
	xorl	%eax, %eax
	movl	%eax, %r9d
	movabsq	$.L.str.6, %rdx
	movl	-9676(%rbp), %eax       # 4-byte Reload
	movl	%eax, %r10d
	movl	%r10d, %edi
	movq	%rdi, -9760(%rbp)       # 8-byte Spill
	movq	%rcx, %rdi
	movq	-9760(%rbp), %r11       # 8-byte Reload
	movq	%rdx, -9768(%rbp)       # 8-byte Spill
	movq	%r11, %rdx
	movq	-9768(%rbp), %rbx       # 8-byte Reload
	movq	%rbx, (%rsp)
	callq	trace_logger_log_int
	movl	$174, %eax
	movl	%eax, %edi
	movabsq	$.L.str.136, %rsi
	movabsq	$.L.str.145, %rdx
	movabsq	$.L.str.154, %rcx
	movl	$54, %eax
	movl	%eax, %r8d
	xorl	%r9d, %r9d
	movl	$1, %eax
	movq	-9504(%rbp), %r11       # 8-byte Reload
	movl	-9676(%rbp), %r10d      # 4-byte Reload
	movl	%r10d, -288(%rbp,%r11,4)
	.loc	1 174 19 is_stmt 1      # md.c:174:19
	movl	$1, (%rsp)
	movl	%eax, -9772(%rbp)       # 4-byte Spill
	callq	trace_logger_log0
	movl	$1, %eax
	movl	%eax, %ecx
	movl	$64, %eax
	movl	%eax, %esi
	movabsq	$rand, %rdx
	movabsq	$.L.str.149, %r8
	xorl	%eax, %eax
	movl	%eax, %r9d
	movabsq	$.L.str.6, %rdi
	movq	%rdi, -9784(%rbp)       # 8-byte Spill
	movq	%rcx, %rdi
	movq	-9784(%rbp), %r11       # 8-byte Reload
	movq	%r11, (%rsp)
	callq	trace_logger_log_ptr
	callq	rand
	movl	$19134, %r10d           # imm = 0x4ABE
	movl	%r10d, %edi
	movl	$32, %r10d
	movl	%r10d, %esi
	movl	$1, %r10d
	movl	%r10d, %ecx
	movabsq	$.L.str.154, %r8
	xorl	%r10d, %r10d
	movl	%r10d, %r9d
	movabsq	$.L.str.6, %rdx
	.loc	1 174 3 is_stmt 0       # md.c:174:3
	movl	%eax, %r10d
	movl	%r10d, %r11d
	movq	%rdx, -9792(%rbp)       # 8-byte Spill
	movq	%r11, %rdx
	movq	-9792(%rbp), %r11       # 8-byte Reload
	movq	%r11, (%rsp)
	movl	%eax, -9796(%rbp)       # 4-byte Spill
	callq	trace_logger_log_int
	movl	$174, %eax
	movl	%eax, %edi
	movabsq	$.L.str.136, %rsi
	movabsq	$.L.str.145, %rdx
	movabsq	$.L.str.82, %rcx
	movl	$32, %eax
	movl	%eax, %r8d
	xorl	%r9d, %r9d
	movl	$1, %eax
	movl	$1, (%rsp)
	movl	%eax, -9800(%rbp)       # 4-byte Spill
	callq	trace_logger_log0
	movl	$3, %eax
	movl	%eax, %edi
	movl	$64, %eax
	movl	%eax, %esi
	movl	$1, %eax
	movl	%eax, %ecx
	movabsq	$.L.str.146, %r8
	xorl	%eax, %eax
	movl	%eax, %r9d
	movabsq	$.L.str.6, %rdx
	movq	-9504(%rbp), %r11       # 8-byte Reload
	movq	%rdx, -9808(%rbp)       # 8-byte Spill
	movq	%r11, %rdx
	movq	-9808(%rbp), %rbx       # 8-byte Reload
	movq	%rbx, (%rsp)
	callq	trace_logger_log_int
	movl	$2, %eax
	movl	%eax, %edi
	movl	$64, %eax
	movl	%eax, %esi
	xorl	%eax, %eax
	movl	%eax, %ecx
	movabsq	$.L.str.10, %r8
	movabsq	$.L.str.6, %rdx
	movq	%rdx, -9816(%rbp)       # 8-byte Spill
	movq	%rcx, %rdx
	movq	%rcx, -9824(%rbp)       # 8-byte Spill
	movq	-9824(%rbp), %r9        # 8-byte Reload
	movq	-9816(%rbp), %r11       # 8-byte Reload
	movq	%r11, (%rsp)
	callq	trace_logger_log_int
	movl	$1, %eax
	movl	%eax, %ecx
	movl	$64, %eax
	movl	%eax, %esi
	movabsq	$.L.str.18, %r8
	xorl	%eax, %eax
	movl	%eax, %r9d
	movabsq	$.L.str.6, %rdx
	leaq	-416(%rbp), %rdi
	movq	%rdi, -9832(%rbp)       # 8-byte Spill
	movq	%rcx, %rdi
	movq	-9832(%rbp), %r11       # 8-byte Reload
	movq	%rdx, -9840(%rbp)       # 8-byte Spill
	movq	%r11, %rdx
	movq	-9840(%rbp), %rbx       # 8-byte Reload
	movq	%rbx, (%rsp)
	callq	trace_logger_log_ptr
	movl	$19134, %eax            # imm = 0x4ABE
	movl	%eax, %edi
	movl	$64, %eax
	movl	%eax, %esi
	movl	$1, %eax
	movl	%eax, %ecx
	movabsq	$.L.str.82, %r8
	xorl	%eax, %eax
	movl	%eax, %r9d
	movabsq	$.L.str.6, %rdx
	leaq	-416(%rbp), %r11
	movq	-9504(%rbp), %rbx       # 8-byte Reload
	shlq	$2, %rbx
	addq	%rbx, %r11
	.loc	1 174 17                # md.c:174:17
	movq	%rdx, -9848(%rbp)       # 8-byte Spill
	movq	%r11, %rdx
	movq	-9848(%rbp), %rbx       # 8-byte Reload
	movq	%rbx, (%rsp)
	movq	%r11, -9856(%rbp)       # 8-byte Spill
	callq	trace_logger_log_ptr
	movl	$174, %eax
	movl	%eax, %edi
	movabsq	$.L.str.136, %rsi
	movabsq	$.L.str.145, %rdx
	movabsq	$.L.str.155, %rcx
	movl	$31, %eax
	movl	%eax, %r8d
	xorl	%r9d, %r9d
	movl	$1, %eax
	movl	$1, (%rsp)
	movl	%eax, -9860(%rbp)       # 4-byte Spill
	callq	trace_logger_log0
	movl	$2, %eax
	movl	%eax, %edi
	movl	$64, %eax
	movl	%eax, %esi
	movl	$1, %eax
	movl	%eax, %ecx
	movabsq	$.L.str.82, %r8
	xorl	%eax, %eax
	movl	%eax, %r9d
	movabsq	$.L.str.6, %rdx
	movq	-9856(%rbp), %r11       # 8-byte Reload
	movq	%rdx, -9872(%rbp)       # 8-byte Spill
	movq	%r11, %rdx
	movq	-9872(%rbp), %rbx       # 8-byte Reload
	movq	%rbx, (%rsp)
	callq	trace_logger_log_ptr
	movl	$1, %eax
	movl	%eax, %ecx
	movl	$32, %eax
	movl	%eax, %esi
	movabsq	$.L.str.154, %r8
	xorl	%eax, %eax
	movl	%eax, %r9d
	movabsq	$.L.str.6, %rdx
	movl	-9796(%rbp), %eax       # 4-byte Reload
	movl	%eax, %r10d
	movl	%r10d, %edi
	movq	%rdi, -9880(%rbp)       # 8-byte Spill
	movq	%rcx, %rdi
	movq	-9880(%rbp), %r11       # 8-byte Reload
	movq	%rdx, -9888(%rbp)       # 8-byte Spill
	movq	%r11, %rdx
	movq	-9888(%rbp), %rbx       # 8-byte Reload
	movq	%rbx, (%rsp)
	callq	trace_logger_log_int
	movl	$170, %eax
	movl	%eax, %edi
	movabsq	$.L.str.136, %rsi
	movabsq	$.L.str.145, %rdx
	movabsq	$.L.str.147, %rcx
	movl	$11, %eax
	movl	%eax, %r8d
	xorl	%r9d, %r9d
	movl	$1, %eax
	movq	-9504(%rbp), %r11       # 8-byte Reload
	movl	-9796(%rbp), %r10d      # 4-byte Reload
	movl	%r10d, -416(%rbp,%r11,4)
.Ltmp85:
	.loc	1 170 28 is_stmt 1      # md.c:170:28
	movl	$1, (%rsp)
	movl	%eax, -9892(%rbp)       # 4-byte Spill
	callq	trace_logger_log0
	movl	$2, %eax
	movl	%eax, %edi
	movl	$64, %eax
	movl	%eax, %esi
	movl	$1, %eax
	movl	%eax, %edx
	xorl	%eax, %eax
	movl	%eax, %ecx
	movabsq	$.L.str.10, %r8
	movabsq	$.L.str.6, %r11
	movq	%rcx, -9904(%rbp)       # 8-byte Spill
	movq	-9904(%rbp), %r9        # 8-byte Reload
	movq	%r11, (%rsp)
	callq	trace_logger_log_int
	movl	$1, %eax
	movl	%eax, %ecx
	movl	$64, %eax
	movl	%eax, %esi
	movabsq	$.L.str.146, %r8
	xorl	%eax, %eax
	movl	%eax, %r9d
	movabsq	$.L.str.6, %rdx
	movq	%rcx, %rdi
	movq	-9504(%rbp), %r11       # 8-byte Reload
	movq	%rdx, -9912(%rbp)       # 8-byte Spill
	movq	%r11, %rdx
	movq	-9912(%rbp), %rbx       # 8-byte Reload
	movq	%rbx, (%rsp)
	callq	trace_logger_log_int
	movl	$19134, %eax            # imm = 0x4ABE
	movl	%eax, %edi
	movl	$64, %eax
	movl	%eax, %esi
	movl	$1, %eax
	movl	%eax, %ecx
	movabsq	$.L.str.147, %r8
	xorl	%eax, %eax
	movl	%eax, %r9d
	movabsq	$.L.str.6, %rdx
	movq	-9504(%rbp), %r11       # 8-byte Reload
	addq	$1, %r11
	.loc	1 170 17 is_stmt 0      # md.c:170:17
	movq	%rdx, -9920(%rbp)       # 8-byte Spill
	movq	%r11, %rdx
	movq	-9920(%rbp), %rbx       # 8-byte Reload
	movq	%rbx, (%rsp)
	movq	%r11, -9928(%rbp)       # 8-byte Spill
	callq	trace_logger_log_int
	movl	$170, %eax
	movl	%eax, %edi
	movabsq	$.L.str.136, %rsi
	movabsq	$.L.str.145, %rdx
	movabsq	$.L.str.156, %rcx
	movl	$51, %eax
	movl	%eax, %r8d
	xorl	%r9d, %r9d
	movl	$1, %eax
	movl	$1, (%rsp)
	movl	%eax, -9932(%rbp)       # 4-byte Spill
	callq	trace_logger_log0
	movl	$2, %eax
	movl	%eax, %edi
	movl	$64, %eax
	movl	%eax, %esi
	movl	$32, %eax
	movl	%eax, %edx
	xorl	%eax, %eax
	movl	%eax, %ecx
	movabsq	$.L.str.10, %r8
	movabsq	$.L.str.6, %r11
	movq	%rcx, -9944(%rbp)       # 8-byte Spill
	movq	-9944(%rbp), %r9        # 8-byte Reload
	movq	%r11, (%rsp)
	callq	trace_logger_log_int
	movl	$1, %eax
	movl	%eax, %ecx
	movl	$64, %eax
	movl	%eax, %esi
	movabsq	$.L.str.147, %r8
	xorl	%eax, %eax
	movl	%eax, %r9d
	movabsq	$.L.str.6, %rdx
	movq	%rcx, %rdi
	movq	-9928(%rbp), %r11       # 8-byte Reload
	movq	%rdx, -9952(%rbp)       # 8-byte Spill
	movq	%r11, %rdx
	movq	-9952(%rbp), %rbx       # 8-byte Reload
	movq	%rbx, (%rsp)
	callq	trace_logger_log_int
	movl	$19134, %eax            # imm = 0x4ABE
	movl	%eax, %edi
	movl	$1, %eax
	movl	%eax, %ecx
	movabsq	$.L.str.156, %r8
	xorl	%eax, %eax
	movl	%eax, %r9d
	movabsq	$.L.str.6, %rdx
	movq	-9928(%rbp), %rsi       # 8-byte Reload
	cmpq	$32, %rsi
	sete	%r14b
.Ltmp86:
	.loc	1 170 2                 # md.c:170:2
	movb	%r14b, %r15b
	andb	$1, %r15b
	movzbl	%r15b, %eax
	movl	%eax, %r11d
	movq	%rcx, %rsi
	movq	%rdx, -9960(%rbp)       # 8-byte Spill
	movq	%r11, %rdx
	movq	-9960(%rbp), %r11       # 8-byte Reload
	movq	%r11, (%rsp)
	movb	%r14b, -9961(%rbp)      # 1-byte Spill
	callq	trace_logger_log_int
	movl	$170, %eax
	movl	%eax, %edi
	movabsq	$.L.str.136, %rsi
	movabsq	$.L.str.145, %rdx
	movabsq	$.L.str.157, %rcx
	movl	$2, %eax
	movl	%eax, %r8d
	xorl	%r9d, %r9d
	movl	$1, %eax
	movl	$1, (%rsp)
	movl	%eax, -9968(%rbp)       # 4-byte Spill
	callq	trace_logger_log0
	movl	$3, %eax
	movl	%eax, %edi
	xorl	%eax, %eax
	movl	%eax, %ecx
	movl	$1, %eax
	movl	%eax, %edx
	movabsq	$.L.str.158, %r8
	movabsq	$.L.str.6, %rsi
	movq	%rsi, -9976(%rbp)       # 8-byte Spill
	movq	%rcx, %rsi
	movq	%rdx, -9984(%rbp)       # 8-byte Spill
	movq	%rcx, %rdx
	movq	-9984(%rbp), %r11       # 8-byte Reload
	movq	%rcx, -9992(%rbp)       # 8-byte Spill
	movq	%r11, %rcx
	movq	-9992(%rbp), %r9        # 8-byte Reload
	movq	-9976(%rbp), %rbx       # 8-byte Reload
	movq	%rbx, (%rsp)
	callq	trace_logger_log_int
	movl	$2, %eax
	movl	%eax, %edi
	xorl	%eax, %eax
	movl	%eax, %ecx
	movl	$1, %eax
	movl	%eax, %edx
	movabsq	$.L.str.145, %r8
	movabsq	$.L.str.6, %rsi
	movq	%rsi, -10000(%rbp)      # 8-byte Spill
	movq	%rcx, %rsi
	movq	%rdx, -10008(%rbp)      # 8-byte Spill
	movq	%rcx, %rdx
	movq	-10008(%rbp), %r9       # 8-byte Reload
	movq	%rcx, -10016(%rbp)      # 8-byte Spill
	movq	%r9, %rcx
	movq	-10016(%rbp), %r9       # 8-byte Reload
	movq	-10000(%rbp), %r11      # 8-byte Reload
	movq	%r11, (%rsp)
	callq	trace_logger_log_int
	movl	$1, %eax
	movl	%eax, %ecx
	movabsq	$.L.str.156, %r8
	xorl	%eax, %eax
	movl	%eax, %r9d
	movabsq	$.L.str.6, %rdx
	movb	-9961(%rbp), %r14b      # 1-byte Reload
	andb	$1, %r14b
	movzbl	%r14b, %eax
	movl	%eax, %esi
	movq	%rcx, %rdi
	movq	%rsi, -10024(%rbp)      # 8-byte Spill
	movq	%rcx, %rsi
	movq	-10024(%rbp), %r11      # 8-byte Reload
	movq	%rdx, -10032(%rbp)      # 8-byte Spill
	movq	%r11, %rdx
	movq	-10032(%rbp), %rbx      # 8-byte Reload
	movq	%rbx, (%rsp)
	callq	trace_logger_log_int
	movb	-9961(%rbp), %r14b      # 1-byte Reload
	testb	$1, %r14b
	movq	-9928(%rbp), %rcx       # 8-byte Reload
	movq	%rcx, -9496(%rbp)       # 8-byte Spill
	jne	.LBB4_2
	jmp	.LBB4_1
.Ltmp87:
.LBB4_2:                                # %.preheader
	#DEBUG_VALUE: main:i <- [DW_OP_constu 9504, DW_OP_minus] [%rbp+0]
	.loc	1 0 2                   # md.c:0:2
	movl	$180, %eax
	movl	%eax, %edi
	movabsq	$.L.str.136, %rsi
	movabsq	$.L.str.158, %rdx
	movabsq	$.L.str.159, %rcx
	movl	$2, %eax
	movl	%eax, %r8d
	xorl	%r9d, %r9d
	movl	$1, %eax
.Ltmp88:
	.loc	1 181 3 is_stmt 1       # md.c:181:3
	movl	$1, (%rsp)
	movl	%eax, -10036(%rbp)      # 4-byte Spill
	callq	trace_logger_log0
	movl	$1, %eax
	movl	%eax, %ecx
	xorl	%eax, %eax
	movl	%eax, %edx
	movabsq	$.L.str.160, %r8
	movabsq	$.L.str.6, %rsi
	movq	%rcx, %rdi
	movq	%rsi, -10048(%rbp)      # 8-byte Spill
	movq	%rdx, %rsi
	movq	%rdx, -10056(%rbp)      # 8-byte Spill
	movq	-10056(%rbp), %r9       # 8-byte Reload
	movq	-10048(%rbp), %r10      # 8-byte Reload
	movq	%r10, (%rsp)
	callq	trace_logger_log_int
	xorl	%eax, %eax
	movl	%eax, %ecx
	movq	%rcx, -10064(%rbp)      # 8-byte Spill
.Ltmp89:
.LBB4_3:                                # =>This Loop Header: Depth=1
                                        #     Child Loop BB4_4 Depth 2
	#DEBUG_VALUE: main:i <- [DW_OP_constu 9504, DW_OP_minus] [%rbp+0]
