	.text
	.file	"llvm-link"
	.globl	print                   # -- Begin function print
	.p2align	4, 0x90
	.type	print,@function
print:                                  # @print
.Lfunc_begin0:
	.file	1 "pp_scan.c"
	.loc	1 8 0                   # pp_scan.c:8:0
	.cfi_startproc
# %bb.0:
	pushq	%rbp
	.cfi_def_cfa_offset 16
	.cfi_offset %rbp, -16
	movq	%rsp, %rbp
	.cfi_def_cfa_register %rbp
	pushq	%r15
	pushq	%r14
	pushq	%r12
	pushq	%rbx
	subq	$480, %rsp              # imm = 0x1E0
	.cfi_offset %rbx, -48
	.cfi_offset %r12, -40
	.cfi_offset %r14, -32
	.cfi_offset %r15, -24
	movl	$24601, %eax            # imm = 0x6019
	movl	%eax, %ecx
	movl	$64, %eax
	movl	%eax, %edx
	movl	$1, %eax
	movl	%eax, %r8d
	movabsq	$.L.str.18, %r9
	xorl	%eax, %eax
	movl	%eax, %r10d
	movabsq	$.L.str.6, %r11
.Ltmp0:
	.loc	1 7 17 prologue_end     # pp_scan.c:7:17
	movq	%rdi, -40(%rbp)         # 8-byte Spill
	movq	%rcx, %rdi
	movl	%esi, -44(%rbp)         # 4-byte Spill
	movq	%rdx, %rsi
	movq	-40(%rbp), %rdx         # 8-byte Reload
	movq	%r8, %rcx
	movq	%r9, %r8
	movq	%r10, %r9
	movq	%r11, (%rsp)
	callq	trace_logger_log_ptr
	movl	$24601, %eax            # imm = 0x6019
	movl	%eax, %edi
	movl	$32, %eax
	movl	%eax, %esi
	movl	$1, %eax
	movl	%eax, %ecx
	movabsq	$.L.str.7, %r8
	xorl	%eax, %eax
	movl	%eax, %r9d
	movabsq	$.L.str.6, %rdx
	movl	-44(%rbp), %eax         # 4-byte Reload
	movl	%eax, %ebx
	movl	%ebx, %r10d
	movq	%rdx, -56(%rbp)         # 8-byte Spill
	movq	%r10, %rdx
	movq	-56(%rbp), %r10         # 8-byte Reload
	movq	%r10, (%rsp)
	callq	trace_logger_log_int
	movl	$10, %eax
	movl	%eax, %edi
	movabsq	$.L.str.2, %rsi
	movabsq	$.L.str.3, %rdx
	movabsq	$.L.str.4, %rcx
	movl	$51, %eax
	movl	%eax, %r8d
	xorl	%r9d, %r9d
	movl	$1, %eax
	#DEBUG_VALUE: print:a <- [DW_OP_constu 40, DW_OP_minus] [%rbp+0]
	#DEBUG_VALUE: print:size <- [DW_OP_constu 44, DW_OP_minus] [%rbp+0]
.Ltmp1:
	#DEBUG_VALUE: print:i <- 0
	.loc	1 10 16                 # pp_scan.c:10:16
	movl	$1, (%rsp)
	movl	%eax, -60(%rbp)         # 4-byte Spill
	callq	trace_logger_log0
	movl	$2, %eax
	movl	%eax, %edi
	movl	$32, %eax
	movl	%eax, %esi
	xorl	%eax, %eax
	movl	%eax, %ecx
	movl	$1, %eax
	movl	%eax, %edx
	movabsq	$.L.str.5, %r8
	movabsq	$.L.str.6, %r10
	movq	%rdx, -72(%rbp)         # 8-byte Spill
	movq	%rcx, %rdx
	movq	-72(%rbp), %r11         # 8-byte Reload
	movq	%rcx, -80(%rbp)         # 8-byte Spill
	movq	%r11, %rcx
	movq	-80(%rbp), %r9          # 8-byte Reload
	movq	%r10, (%rsp)
	callq	trace_logger_log_int
	movl	$1, %eax
	movl	%eax, %ecx
	movl	$32, %eax
	movl	%eax, %esi
	movabsq	$.L.str.7, %r8
	xorl	%eax, %eax
	movl	%eax, %r9d
	movabsq	$.L.str.6, %rdx
	movl	-44(%rbp), %eax         # 4-byte Reload
	movl	%eax, %ebx
	movl	%ebx, %edi
	movq	%rdi, -88(%rbp)         # 8-byte Spill
	movq	%rcx, %rdi
	movq	-88(%rbp), %r10         # 8-byte Reload
	movq	%rdx, -96(%rbp)         # 8-byte Spill
	movq	%r10, %rdx
	movq	-96(%rbp), %r11         # 8-byte Reload
	movq	%r11, (%rsp)
	callq	trace_logger_log_int
	movl	$19134, %eax            # imm = 0x4ABE
	movl	%eax, %edi
	movl	$1, %eax
	movl	%eax, %ecx
	movabsq	$.L.str.4, %r8
	xorl	%eax, %eax
	movl	%eax, %r9d
	movabsq	$.L.str.6, %rdx
	movl	-44(%rbp), %eax         # 4-byte Reload
	cmpl	$0, %eax
	setg	%r14b
.Ltmp2:
	.loc	1 10 2 is_stmt 0        # pp_scan.c:10:2
	movb	%r14b, %r15b
	andb	$1, %r15b
	movzbl	%r15b, %ebx
	movl	%ebx, %esi
	movq	%rsi, -104(%rbp)        # 8-byte Spill
	movq	%rcx, %rsi
	movq	-104(%rbp), %r10        # 8-byte Reload
	movq	%rdx, -112(%rbp)        # 8-byte Spill
	movq	%r10, %rdx
	movq	-112(%rbp), %r11        # 8-byte Reload
	movq	%r11, (%rsp)
	movb	%r14b, -113(%rbp)       # 1-byte Spill
	callq	trace_logger_log_int
	movl	$10, %eax
	movl	%eax, %edi
	movabsq	$.L.str.2, %rsi
	movabsq	$.L.str.3, %rdx
	movabsq	$.L.str.8, %rcx
	movl	$2, %eax
	movl	%eax, %r8d
	xorl	%r9d, %r9d
	movl	$1, %eax
	movl	$1, (%rsp)
	movl	%eax, -120(%rbp)        # 4-byte Spill
	callq	trace_logger_log0
	movl	$3, %eax
	movl	%eax, %edi
	xorl	%eax, %eax
	movl	%eax, %ecx
	movl	$1, %eax
	movl	%eax, %edx
	movabsq	$.L.str.9, %r8
	movabsq	$.L.str.6, %rsi
	movq	%rsi, -128(%rbp)        # 8-byte Spill
	movq	%rcx, %rsi
	movq	%rdx, -136(%rbp)        # 8-byte Spill
	movq	%rcx, %rdx
	movq	-136(%rbp), %r10        # 8-byte Reload
	movq	%rcx, -144(%rbp)        # 8-byte Spill
	movq	%r10, %rcx
	movq	-144(%rbp), %r9         # 8-byte Reload
	movq	-128(%rbp), %r11        # 8-byte Reload
	movq	%r11, (%rsp)
	callq	trace_logger_log_int
	movl	$2, %eax
	movl	%eax, %edi
	xorl	%eax, %eax
	movl	%eax, %ecx
	movl	$1, %eax
	movl	%eax, %edx
	movabsq	$.L.str.10, %r8
	movabsq	$.L.str.6, %rsi
	movq	%rsi, -152(%rbp)        # 8-byte Spill
	movq	%rcx, %rsi
	movq	%rdx, -160(%rbp)        # 8-byte Spill
	movq	%rcx, %rdx
	movq	-160(%rbp), %r9         # 8-byte Reload
	movq	%rcx, -168(%rbp)        # 8-byte Spill
	movq	%r9, %rcx
	movq	-168(%rbp), %r9         # 8-byte Reload
	movq	-152(%rbp), %r10        # 8-byte Reload
	movq	%r10, (%rsp)
	callq	trace_logger_log_int
	movl	$1, %eax
	movl	%eax, %ecx
	movabsq	$.L.str.4, %r8
	xorl	%eax, %eax
	movl	%eax, %r9d
	movabsq	$.L.str.6, %rdx
	movb	-113(%rbp), %r14b       # 1-byte Reload
	andb	$1, %r14b
	movzbl	%r14b, %eax
	movl	%eax, %esi
	movq	%rcx, %rdi
	movq	%rsi, -176(%rbp)        # 8-byte Spill
	movq	%rcx, %rsi
	movq	-176(%rbp), %r10        # 8-byte Reload
	movq	%rdx, -184(%rbp)        # 8-byte Spill
	movq	%r10, %rdx
	movq	-184(%rbp), %r11        # 8-byte Reload
	movq	%r11, (%rsp)
	callq	trace_logger_log_int
	movb	-113(%rbp), %r14b       # 1-byte Reload
	testb	$1, %r14b
	jne	.LBB0_1
	jmp	.LBB0_3
.LBB0_1:                                # %.lr.ph
	#DEBUG_VALUE: print:size <- [DW_OP_constu 44, DW_OP_minus] [%rbp+0]
	#DEBUG_VALUE: print:a <- [DW_OP_constu 40, DW_OP_minus] [%rbp+0]
	.loc	1 0 2                   # pp_scan.c:0:2
	movq	$-1, %rdi
	movabsq	$.L.str.2, %rsi
	movabsq	$.L.str.9, %rdx
	movabsq	$.L.str.11, %rcx
	movl	$37, %eax
	movl	%eax, %r8d
	xorl	%r9d, %r9d
	movl	$1, %eax
	movl	$1, (%rsp)
	movl	%eax, -188(%rbp)        # 4-byte Spill
	callq	trace_logger_log0
	movl	$1, %eax
	movl	%eax, %ecx
	movl	$32, %eax
	movl	%eax, %esi
	movabsq	$.L.str.7, %r8
	xorl	%eax, %eax
	movl	%eax, %r9d
	movabsq	$.L.str.6, %rdx
	movl	-44(%rbp), %eax         # 4-byte Reload
	movl	%eax, %r10d
	movl	%r10d, %edi
	movq	%rdi, -200(%rbp)        # 8-byte Spill
	movq	%rcx, %rdi
	movq	-200(%rbp), %r11        # 8-byte Reload
	movq	%rdx, -208(%rbp)        # 8-byte Spill
	movq	%r11, %rdx
	movq	-208(%rbp), %rbx        # 8-byte Reload
	movq	%rbx, (%rsp)
	callq	trace_logger_log_int
	movl	$19134, %eax            # imm = 0x4ABE
	movl	%eax, %edi
	movl	$64, %eax
	movl	%eax, %esi
	movl	$1, %eax
	movl	%eax, %ecx
	movabsq	$.L.str.11, %r8
	xorl	%eax, %eax
	movl	%eax, %r9d
	movabsq	$.L.str.6, %rdx
	movl	-44(%rbp), %eax         # 4-byte Reload
	movl	%eax, %r10d
	movl	%r10d, %r11d
	.loc	1 10 2                  # pp_scan.c:10:2
	movq	%rdx, -216(%rbp)        # 8-byte Spill
	movq	%r11, %rdx
	movq	-216(%rbp), %rbx        # 8-byte Reload
	movq	%rbx, (%rsp)
	movq	%r11, -224(%rbp)        # 8-byte Spill
	callq	trace_logger_log_int
	movl	$10, %eax
	movl	%eax, %edi
	movabsq	$.L.str.2, %rsi
	movabsq	$.L.str.9, %rdx
	movabsq	$.L.str.12, %rcx
	movl	$2, %eax
	movl	%eax, %r8d
	xorl	%r9d, %r9d
	movl	$1, %eax
	movl	$1, (%rsp)
	movl	%eax, -228(%rbp)        # 4-byte Spill
	callq	trace_logger_log0
	movl	$1, %eax
	movl	%eax, %ecx
	xorl	%eax, %eax
	movl	%eax, %edx
	movabsq	$.L.str.13, %r8
	movabsq	$.L.str.6, %rsi
	movq	%rcx, %rdi
	movq	%rsi, -240(%rbp)        # 8-byte Spill
	movq	%rdx, %rsi
	movq	%rdx, -248(%rbp)        # 8-byte Spill
	movq	-248(%rbp), %r9         # 8-byte Reload
	movq	-240(%rbp), %r11        # 8-byte Reload
	movq	%r11, (%rsp)
	callq	trace_logger_log_int
	xorl	%eax, %eax
	movl	%eax, %ecx
	movq	%rcx, -256(%rbp)        # 8-byte Spill
.Ltmp3:
.LBB0_2:                                # =>This Inner Loop Header: Depth=1
	#DEBUG_VALUE: print:size <- [DW_OP_constu 44, DW_OP_minus] [%rbp+0]
	#DEBUG_VALUE: print:a <- [DW_OP_constu 40, DW_OP_minus] [%rbp+0]
	.loc	1 0 2                   # pp_scan.c:0:2
	movq	-256(%rbp), %rax        # 8-byte Reload
	movq	$-1, %rdi
	movabsq	$.L.str.2, %rsi
	movabsq	$.L.str.13, %rdx
	movabsq	$.L.str.14, %rcx
	movl	$53, %r8d
                                        # kill: def %r8 killed %r8d
	xorl	%r9d, %r9d
	movl	$1, %r10d
	.loc	1 9 6 is_stmt 1         # pp_scan.c:9:6
	movl	$1, (%rsp)
	movq	%rax, -264(%rbp)        # 8-byte Spill
	movl	%r10d, -268(%rbp)       # 4-byte Spill
	callq	trace_logger_log0
	movl	$2, %r9d
	movl	%r9d, %edi
	movl	$64, %r9d
	movl	%r9d, %esi
	xorl	%r9d, %r9d
	movl	%r9d, %edx
	movl	$1, %r9d
	movl	%r9d, %eax
	movabsq	$.L.str.15, %r8
	movabsq	$.L.str.13, %rcx
	movq	%rcx, -280(%rbp)        # 8-byte Spill
	movq	%rax, %rcx
	movq	%rax, %r9
	movq	-280(%rbp), %rax        # 8-byte Reload
	movq	%rax, (%rsp)
	callq	trace_logger_log_int
	movl	$1, %r10d
	movl	%r10d, %eax
	movl	$64, %r10d
	movl	%r10d, %esi
	xorl	%r10d, %r10d
	movl	%r10d, %ecx
	movabsq	$.L.str.16, %r8
	movabsq	$.L.str.9, %rdx
	movq	%rax, %rdi
	movq	%rdx, -288(%rbp)        # 8-byte Spill
	movq	%rcx, %rdx
	movq	%rax, %r9
	movq	-288(%rbp), %rax        # 8-byte Reload
	movq	%rax, (%rsp)
	callq	trace_logger_log_int
	movl	$19134, %r10d           # imm = 0x4ABE
	movl	%r10d, %edi
	movl	$64, %r10d
	movl	%r10d, %esi
	movl	$1, %r10d
	movl	%r10d, %ecx
	movabsq	$.L.str.14, %r8
	xorl	%r10d, %r10d
	movl	%r10d, %r9d
	movabsq	$.L.str.9, %rax
	movq	-264(%rbp), %rdx        # 8-byte Reload
	movq	%rax, (%rsp)
	callq	trace_logger_log_int
	movl	$11, %r10d
	movl	%r10d, %edi
	movabsq	$.L.str.2, %rsi
	movabsq	$.L.str.13, %rdx
	movabsq	$.L.str.17, %rcx
	movl	$32, %r10d
	movl	%r10d, %r8d
	xorl	%r9d, %r9d
	movl	$1, %r10d
.Ltmp4:
	#DEBUG_VALUE: print:i <- [DW_OP_constu 264, DW_OP_minus] [%rbp+0]
	.loc	1 11 18                 # pp_scan.c:11:18
	movl	$1, (%rsp)
	movl	%r10d, -292(%rbp)       # 4-byte Spill
	callq	trace_logger_log0
	movl	$2, %r9d
	movl	%r9d, %edi
	movl	$64, %r9d
	movl	%r9d, %esi
	movl	$1, %r9d
	movl	%r9d, %ecx
	movabsq	$.L.str.14, %r8
	xorl	%r9d, %r9d
                                        # kill: def %r9 killed %r9d
	movabsq	$.L.str.6, %rax
	movq	-264(%rbp), %rdx        # 8-byte Reload
	movq	%rax, (%rsp)
	callq	trace_logger_log_int
	movl	$1, %r10d
	movl	%r10d, %eax
	movl	$64, %r10d
	movl	%r10d, %esi
	movabsq	$.L.str.18, %r8
	xorl	%r10d, %r10d
	movl	%r10d, %r9d
	movabsq	$.L.str.6, %rcx
	movq	%rax, %rdi
	movq	-40(%rbp), %rdx         # 8-byte Reload
	movq	%rcx, -304(%rbp)        # 8-byte Spill
	movq	%rax, %rcx
	movq	-304(%rbp), %rax        # 8-byte Reload
	movq	%rax, (%rsp)
	callq	trace_logger_log_ptr
	movl	$19134, %r10d           # imm = 0x4ABE
	movl	%r10d, %edi
	movl	$64, %r10d
	movl	%r10d, %esi
	movl	$1, %r10d
	movl	%r10d, %ecx
	movabsq	$.L.str.17, %r8
	xorl	%r10d, %r10d
	movl	%r10d, %r9d
	movabsq	$.L.str.6, %rax
	movq	-264(%rbp), %rdx        # 8-byte Reload
	shlq	$2, %rdx
	movq	-40(%rbp), %r11         # 8-byte Reload
	addq	%rdx, %r11
	movq	%r11, %rdx
	movq	%rax, (%rsp)
	movq	%r11, -312(%rbp)        # 8-byte Spill
	callq	trace_logger_log_ptr
	movl	$11, %r10d
	movl	%r10d, %edi
	movabsq	$.L.str.2, %rsi
	movabsq	$.L.str.13, %rdx
	movabsq	$.L.str.19, %rcx
	movl	$30, %r10d
	movl	%r10d, %r8d
	xorl	%r9d, %r9d
	movl	$1, %r10d
	movl	$1, (%rsp)
	movl	%r10d, -316(%rbp)       # 4-byte Spill
	callq	trace_logger_log0
	movl	$1, %r9d
	movl	%r9d, %eax
	movl	$64, %r9d
	movl	%r9d, %esi
	movabsq	$.L.str.17, %r8
	xorl	%r9d, %r9d
                                        # kill: def %r9 killed %r9d
	movabsq	$.L.str.6, %rcx
	movq	%rax, %rdi
	movq	-312(%rbp), %rdx        # 8-byte Reload
	movq	%rcx, -328(%rbp)        # 8-byte Spill
	movq	%rax, %rcx
	movq	-328(%rbp), %rax        # 8-byte Reload
	movq	%rax, (%rsp)
	callq	trace_logger_log_ptr
	movl	$19134, %r10d           # imm = 0x4ABE
	movl	%r10d, %edi
	movl	$32, %r10d
	movl	%r10d, %esi
	movl	$1, %r10d
	movl	%r10d, %ecx
	movabsq	$.L.str.19, %r8
	xorl	%r10d, %r10d
	movl	%r10d, %r9d
	movabsq	$.L.str.6, %rax
	movq	-40(%rbp), %rdx         # 8-byte Reload
	movq	-264(%rbp), %r11        # 8-byte Reload
	movl	(%rdx,%r11,4), %r10d
	.loc	1 11 3 is_stmt 0        # pp_scan.c:11:3
	movl	%r10d, %ebx
	movl	%ebx, %edx
	movq	%rax, (%rsp)
	movl	%r10d, -332(%rbp)       # 4-byte Spill
	callq	trace_logger_log_int
	movl	$11, %r10d
	movl	%r10d, %edi
	movabsq	$.L.str.2, %rsi
	movabsq	$.L.str.13, %rdx
	movabsq	$.L.str.20, %rcx
	movl	$54, %r10d
	movl	%r10d, %r8d
	xorl	%r9d, %r9d
	movl	$1, %r10d
	movl	$1, (%rsp)
	movl	%r10d, -336(%rbp)       # 4-byte Spill
	callq	trace_logger_log0
	movl	$3, %r9d
	movl	%r9d, %edi
	movl	$64, %r9d
	movl	%r9d, %esi
	movabsq	$printf, %rdx
	movl	$1, %r9d
	movl	%r9d, %ecx
	movabsq	$.L.str.21, %r8
	xorl	%r9d, %r9d
                                        # kill: def %r9 killed %r9d
	movabsq	$.L.str.6, %rax
	movq	%rax, (%rsp)
	callq	trace_logger_log_ptr
	movl	$1, %r10d
	movl	%r10d, %edi
	movl	$64, %r10d
	movl	%r10d, %esi
	movabsq	$.L.str.22, %rdx
	xorl	%r10d, %r10d
	movl	%r10d, %eax
	movabsq	$.L.str.16, %r8
	movabsq	$.L.str.6, %rcx
	movq	%rcx, -344(%rbp)        # 8-byte Spill
	movq	%rax, %rcx
	movq	%rax, %r9
	movq	-344(%rbp), %rax        # 8-byte Reload
	movq	%rax, (%rsp)
	callq	trace_logger_log_string
	movabsq	$.L.str, %rdi
	movl	-332(%rbp), %esi        # 4-byte Reload
	movb	$0, %al
	callq	printf
	movl	$19134, %esi            # imm = 0x4ABE
	movl	%esi, %edi
	movl	$32, %esi
                                        # kill: def %rsi killed %esi
	movl	$1, %r10d
	movl	%r10d, %ecx
	movabsq	$.L.str.20, %r8
	xorl	%r10d, %r10d
	movl	%r10d, %r9d
	movabsq	$.L.str.6, %rdx
	.loc	1 10 25 is_stmt 1       # pp_scan.c:10:25
	movl	%eax, %eax
	movl	%eax, %r11d
	movq	%rdx, -352(%rbp)        # 8-byte Spill
	movq	%r11, %rdx
	movq	-352(%rbp), %r11        # 8-byte Reload
	movq	%r11, (%rsp)
	callq	trace_logger_log_int
	movl	$10, %eax
	movl	%eax, %edi
	movabsq	$.L.str.2, %rsi
	movabsq	$.L.str.13, %rdx
	movabsq	$.L.str.15, %rcx
	movl	$11, %eax
	movl	%eax, %r8d
	xorl	%r9d, %r9d
	movl	$1, %eax
	movl	$1, (%rsp)
	movl	%eax, -356(%rbp)        # 4-byte Spill
	callq	trace_logger_log0
	movl	$2, %eax
	movl	%eax, %edi
	movl	$64, %eax
	movl	%eax, %esi
	movl	$1, %eax
	movl	%eax, %edx
	xorl	%eax, %eax
	movl	%eax, %ecx
	movabsq	$.L.str.16, %r8
	movabsq	$.L.str.6, %r11
	movq	%rcx, -368(%rbp)        # 8-byte Spill
	movq	-368(%rbp), %r9         # 8-byte Reload
	movq	%r11, (%rsp)
	callq	trace_logger_log_int
	movl	$1, %eax
	movl	%eax, %ecx
	movl	$64, %eax
	movl	%eax, %esi
	movabsq	$.L.str.14, %r8
	xorl	%eax, %eax
	movl	%eax, %r9d
	movabsq	$.L.str.6, %rdx
	movq	%rcx, %rdi
	movq	-264(%rbp), %r11        # 8-byte Reload
	movq	%rdx, -376(%rbp)        # 8-byte Spill
	movq	%r11, %rdx
	movq	-376(%rbp), %r14        # 8-byte Reload
	movq	%r14, (%rsp)
	callq	trace_logger_log_int
	movl	$19134, %eax            # imm = 0x4ABE
	movl	%eax, %edi
	movl	$64, %eax
	movl	%eax, %esi
	movl	$1, %eax
	movl	%eax, %ecx
	movabsq	$.L.str.15, %r8
	xorl	%eax, %eax
	movl	%eax, %r9d
	movabsq	$.L.str.6, %rdx
	movq	-264(%rbp), %r11        # 8-byte Reload
	addq	$1, %r11
	.loc	1 10 16 is_stmt 0       # pp_scan.c:10:16
	movq	%rdx, -384(%rbp)        # 8-byte Spill
	movq	%r11, %rdx
	movq	-384(%rbp), %r14        # 8-byte Reload
	movq	%r14, (%rsp)
	movq	%r11, -392(%rbp)        # 8-byte Spill
	callq	trace_logger_log_int
	movl	$10, %eax
	movl	%eax, %edi
	movabsq	$.L.str.2, %rsi
	movabsq	$.L.str.13, %rdx
	movabsq	$.L.str.23, %rcx
	movl	$51, %eax
	movl	%eax, %r8d
	xorl	%r9d, %r9d
	movl	$1, %eax
	movl	$1, (%rsp)
	movl	%eax, -396(%rbp)        # 4-byte Spill
	callq	trace_logger_log0
	movl	$2, %eax
	movl	%eax, %edi
	movl	$64, %eax
	movl	%eax, %esi
	movl	$1, %eax
	movl	%eax, %ecx
	movabsq	$.L.str.11, %r8
	xorl	%eax, %eax
	movl	%eax, %r9d
	movabsq	$.L.str.6, %rdx
	movq	-224(%rbp), %r11        # 8-byte Reload
	movq	%rdx, -408(%rbp)        # 8-byte Spill
	movq	%r11, %rdx
	movq	-408(%rbp), %r14        # 8-byte Reload
	movq	%r14, (%rsp)
	callq	trace_logger_log_int
	movl	$1, %eax
	movl	%eax, %ecx
	movl	$64, %eax
	movl	%eax, %esi
	movabsq	$.L.str.15, %r8
	xorl	%eax, %eax
	movl	%eax, %r9d
	movabsq	$.L.str.6, %rdx
	movq	%rcx, %rdi
	movq	-392(%rbp), %r11        # 8-byte Reload
	movq	%rdx, -416(%rbp)        # 8-byte Spill
	movq	%r11, %rdx
	movq	-416(%rbp), %r14        # 8-byte Reload
	movq	%r14, (%rsp)
	callq	trace_logger_log_int
	movl	$19134, %eax            # imm = 0x4ABE
	movl	%eax, %edi
	movl	$1, %eax
	movl	%eax, %ecx
	movabsq	$.L.str.23, %r8
	xorl	%eax, %eax
	movl	%eax, %r9d
	movabsq	$.L.str.6, %rdx
	movq	-392(%rbp), %rsi        # 8-byte Reload
	movq	-224(%rbp), %r11        # 8-byte Reload
	cmpq	%r11, %rsi
	sete	%r15b
.Ltmp5:
	.loc	1 10 2                  # pp_scan.c:10:2
	movb	%r15b, %r12b
	andb	$1, %r12b
	movzbl	%r12b, %eax
	movl	%eax, %r14d
	movq	%rcx, %rsi
	movq	%rdx, -424(%rbp)        # 8-byte Spill
	movq	%r14, %rdx
	movq	-424(%rbp), %r14        # 8-byte Reload
	movq	%r14, (%rsp)
	movb	%r15b, -425(%rbp)       # 1-byte Spill
	callq	trace_logger_log_int
	movl	$10, %eax
	movl	%eax, %edi
	movabsq	$.L.str.2, %rsi
	movabsq	$.L.str.13, %rdx
	movabsq	$.L.str.24, %rcx
	movl	$2, %eax
	movl	%eax, %r8d
	xorl	%r9d, %r9d
	movl	$1, %eax
	movl	$1, (%rsp)
	movl	%eax, -432(%rbp)        # 4-byte Spill
	callq	trace_logger_log0
	movl	$3, %eax
	movl	%eax, %edi
	xorl	%eax, %eax
	movl	%eax, %ecx
	movl	$1, %eax
	movl	%eax, %edx
	movabsq	$.L.str.10, %r8
	movabsq	$.L.str.6, %rsi
	movq	%rsi, -440(%rbp)        # 8-byte Spill
	movq	%rcx, %rsi
	movq	%rdx, -448(%rbp)        # 8-byte Spill
	movq	%rcx, %rdx
	movq	-448(%rbp), %r11        # 8-byte Reload
	movq	%rcx, -456(%rbp)        # 8-byte Spill
	movq	%r11, %rcx
	movq	-456(%rbp), %r9         # 8-byte Reload
	movq	-440(%rbp), %r14        # 8-byte Reload
	movq	%r14, (%rsp)
	callq	trace_logger_log_int
	movl	$2, %eax
	movl	%eax, %edi
	xorl	%eax, %eax
	movl	%eax, %ecx
	movl	$1, %eax
	movl	%eax, %edx
	movabsq	$.L.str.13, %r8
	movabsq	$.L.str.6, %rsi
	movq	%rsi, -464(%rbp)        # 8-byte Spill
	movq	%rcx, %rsi
	movq	%rdx, -472(%rbp)        # 8-byte Spill
	movq	%rcx, %rdx
	movq	-472(%rbp), %r9         # 8-byte Reload
	movq	%rcx, -480(%rbp)        # 8-byte Spill
	movq	%r9, %rcx
	movq	-480(%rbp), %r9         # 8-byte Reload
	movq	-464(%rbp), %r11        # 8-byte Reload
	movq	%r11, (%rsp)
	callq	trace_logger_log_int
	movl	$1, %eax
	movl	%eax, %ecx
	movabsq	$.L.str.23, %r8
	xorl	%eax, %eax
	movl	%eax, %r9d
	movabsq	$.L.str.6, %rdx
	movb	-425(%rbp), %r15b       # 1-byte Reload
	andb	$1, %r15b
	movzbl	%r15b, %eax
	movl	%eax, %esi
	movq	%rcx, %rdi
	movq	%rsi, -488(%rbp)        # 8-byte Spill
	movq	%rcx, %rsi
	movq	-488(%rbp), %r11        # 8-byte Reload
	movq	%rdx, -496(%rbp)        # 8-byte Spill
	movq	%r11, %rdx
	movq	-496(%rbp), %r14        # 8-byte Reload
	movq	%r14, (%rsp)
	callq	trace_logger_log_int
	movb	-425(%rbp), %r15b       # 1-byte Reload
	testb	$1, %r15b
	movq	-392(%rbp), %rcx        # 8-byte Reload
	movq	%rcx, -256(%rbp)        # 8-byte Spill
	jne	.LBB0_3
	jmp	.LBB0_2
.Ltmp6:
.LBB0_3:                                # %._crit_edge
	#DEBUG_VALUE: print:size <- [DW_OP_constu 44, DW_OP_minus] [%rbp+0]
	#DEBUG_VALUE: print:a <- [DW_OP_constu 40, DW_OP_minus] [%rbp+0]
	.loc	1 0 2                   # pp_scan.c:0:2
	movl	$12, %eax
	movl	%eax, %edi
	movabsq	$.L.str.2, %rsi
	movabsq	$.L.str.10, %rdx
	movabsq	$.L.str.25, %rcx
	movl	$1, %eax
	movl	%eax, %r8d
	xorl	%r9d, %r9d
	movl	$1, %eax
	.loc	1 12 1 is_stmt 1        # pp_scan.c:12:1
	movl	$1, (%rsp)
	movl	%eax, -500(%rbp)        # 4-byte Spill
	callq	trace_logger_log0
	movabsq	$.L.str.2, %rdi
	movl	$1, %eax
	movl	%eax, %esi
	xorl	%edx, %edx
	movl	$1, %ecx
	callq	trace_logger_update_status
	addq	$480, %rsp              # imm = 0x1E0
	popq	%rbx
	popq	%r12
	popq	%r14
	popq	%r15
	popq	%rbp
	retq
.Ltmp7:
.Lfunc_end0:
	.size	print, .Lfunc_end0-print
	.cfi_endproc
                                        # -- End function
	.globl	local_scan              # -- Begin function local_scan
	.p2align	4, 0x90
	.type	local_scan,@function
local_scan:                             # @local_scan
.Lfunc_begin1:
	.loc	1 16 0                  # pp_scan.c:16:0
	.cfi_startproc
# %bb.0:
	pushq	%rbp
	.cfi_def_cfa_offset 16
	.cfi_offset %rbp, -16
	movq	%rsp, %rbp
	.cfi_def_cfa_register %rbp
	pushq	%r15
	pushq	%r14
	pushq	%r12
	pushq	%rbx
	subq	$640, %rsp              # imm = 0x280
	.cfi_offset %rbx, -48
	.cfi_offset %r12, -40
	.cfi_offset %r14, -32
	.cfi_offset %r15, -24
	movl	$24601, %eax            # imm = 0x6019
	movl	%eax, %ecx
	movl	$64, %eax
	movl	%eax, %esi
	movl	$1, %eax
	movl	%eax, %edx
	movabsq	$.L.str.32, %r8
	xorl	%eax, %eax
	movl	%eax, %r9d
	movabsq	$.L.str.6, %r10
.Ltmp8:
	.loc	1 15 21 prologue_end    # pp_scan.c:15:21
	movq	%rdi, -40(%rbp)         # 8-byte Spill
	movq	%rcx, %rdi
	movq	-40(%rbp), %rcx         # 8-byte Reload
	movq	%rdx, -48(%rbp)         # 8-byte Spill
	movq	%rcx, %rdx
	movq	-48(%rbp), %rcx         # 8-byte Reload
	movq	%r10, (%rsp)
	callq	trace_logger_log_ptr
	movl	$18, %eax
	movl	%eax, %edi
	movabsq	$.L.str.26, %rsi
	movabsq	$.L.str.3, %rdx
	movabsq	$.L.str.27, %rcx
	movl	$2, %eax
	movl	%eax, %r8d
	xorl	%r9d, %r9d
	movl	$1, %eax
	#DEBUG_VALUE: local_scan:bucket <- [DW_OP_constu 40, DW_OP_minus] [%rbp+0]
.Ltmp9:
	#DEBUG_VALUE: local_scan:radixID <- 0
	.loc	1 18 15                 # pp_scan.c:18:15
	movl	$1, (%rsp)
	movl	%eax, -52(%rbp)         # 4-byte Spill
	callq	trace_logger_log0
	movl	$1, %eax
	movl	%eax, %ecx
	xorl	%eax, %eax
	movl	%eax, %edx
	movabsq	$.L.str.13, %r8
	movabsq	$.L.str.6, %rsi
	movq	%rcx, %rdi
	movq	%rsi, -64(%rbp)         # 8-byte Spill
	movq	%rdx, %rsi
	movq	%rdx, -72(%rbp)         # 8-byte Spill
	movq	-72(%rbp), %r9          # 8-byte Reload
	movq	-64(%rbp), %r10         # 8-byte Reload
	movq	%r10, (%rsp)
	callq	trace_logger_log_int
	xorl	%eax, %eax
	movl	%eax, %ecx
	movq	%rcx, -80(%rbp)         # 8-byte Spill
.Ltmp10:
.LBB1_1:                                # =>This Loop Header: Depth=1
                                        #     Child Loop BB1_2 Depth 2
	#DEBUG_VALUE: local_scan:bucket <- [DW_OP_constu 40, DW_OP_minus] [%rbp+0]
	.loc	1 0 15 is_stmt 0        # pp_scan.c:0:15
	movq	-80(%rbp), %rax         # 8-byte Reload
	movq	$-1, %rdi
	movabsq	$.L.str.26, %rsi
	movabsq	$.L.str.13, %rdx
	movabsq	$.L.str.28, %rcx
	movl	$53, %r8d
                                        # kill: def %r8 killed %r8d
	xorl	%r9d, %r9d
	movl	$1, %r10d
	.loc	1 17 16 is_stmt 1       # pp_scan.c:17:16
	movl	$1, (%rsp)
	movq	%rax, -88(%rbp)         # 8-byte Spill
	movl	%r10d, -92(%rbp)        # 4-byte Spill
	callq	trace_logger_log0
	movl	$2, %r9d
	movl	%r9d, %edi
	movl	$64, %r9d
	movl	%r9d, %esi
	xorl	%r9d, %r9d
	movl	%r9d, %edx
	movl	$1, %r9d
	movl	%r9d, %eax
	movabsq	$.L.str.29, %r8
	movabsq	$.L.str.30, %rcx
	movq	%rcx, -104(%rbp)        # 8-byte Spill
	movq	%rax, %rcx
	movq	%rax, %r9
	movq	-104(%rbp), %rax        # 8-byte Reload
	movq	%rax, (%rsp)
	callq	trace_logger_log_int
	movl	$1, %r10d
	movl	%r10d, %eax
	movl	$64, %r10d
	movl	%r10d, %esi
	xorl	%r10d, %r10d
	movl	%r10d, %ecx
	movabsq	$.L.str.16, %r8
	movabsq	$.L.str.3, %rdx
	movq	%rax, %rdi
	movq	%rdx, -112(%rbp)        # 8-byte Spill
	movq	%rcx, %rdx
	movq	%rax, %r9
	movq	-112(%rbp), %rax        # 8-byte Reload
	movq	%rax, (%rsp)
	callq	trace_logger_log_int
	movl	$19134, %r10d           # imm = 0x4ABE
	movl	%r10d, %edi
	movl	$64, %r10d
	movl	%r10d, %esi
	movl	$1, %r10d
	movl	%r10d, %ecx
	movabsq	$.L.str.28, %r8
	xorl	%r10d, %r10d
	movl	%r10d, %r9d
	movabsq	$.L.str.3, %rax
	movq	-88(%rbp), %rdx         # 8-byte Reload
	movq	%rax, (%rsp)
	callq	trace_logger_log_int
	movq	$-1, %rdi
	movabsq	$.L.str.26, %rsi
	movabsq	$.L.str.13, %rdx
	movabsq	$.L.str.19, %rcx
	movl	$23, %r10d
	movl	%r10d, %r8d
	xorl	%r9d, %r9d
	movl	$1, %r10d
.Ltmp11:
	#DEBUG_VALUE: local_scan:i <- 1
	#DEBUG_VALUE: local_scan:radixID <- [DW_OP_constu 88, DW_OP_minus] [%rbp+0]
	.loc	1 0 16 is_stmt 0        # pp_scan.c:0:16
	movl	$1, (%rsp)
	movl	%r10d, -116(%rbp)       # 4-byte Spill
	callq	trace_logger_log0
	movl	$2, %r9d
	movl	%r9d, %edi
	movl	$64, %r9d
	movl	%r9d, %esi
	movl	$4, %r9d
	movl	%r9d, %edx
	xorl	%r9d, %r9d
	movl	%r9d, %eax
	movabsq	$.L.str.16, %r8
	movabsq	$.L.str.6, %rcx
	movq	%rcx, -128(%rbp)        # 8-byte Spill
	movq	%rax, %rcx
	movq	%rax, %r9
	movq	-128(%rbp), %rax        # 8-byte Reload
	movq	%rax, (%rsp)
	callq	trace_logger_log_int
	movl	$1, %r10d
	movl	%r10d, %eax
	movl	$64, %r10d
	movl	%r10d, %esi
	movabsq	$.L.str.28, %r8
	xorl	%r10d, %r10d
	movl	%r10d, %r9d
	movabsq	$.L.str.6, %rcx
	movq	%rax, %rdi
	movq	-88(%rbp), %rdx         # 8-byte Reload
	movq	%rcx, -136(%rbp)        # 8-byte Spill
	movq	%rax, %rcx
	movq	-136(%rbp), %rax        # 8-byte Reload
	movq	%rax, (%rsp)
	callq	trace_logger_log_int
	movl	$19134, %r10d           # imm = 0x4ABE
	movl	%r10d, %edi
	movl	$64, %r10d
	movl	%r10d, %esi
	movl	$1, %r10d
	movl	%r10d, %ecx
	movabsq	$.L.str.19, %r8
	xorl	%r10d, %r10d
	movl	%r10d, %r9d
	movabsq	$.L.str.6, %rax
	movq	-88(%rbp), %rdx         # 8-byte Reload
	shlq	$4, %rdx
	movq	%rdx, -144(%rbp)        # 8-byte Spill
	movq	%rax, (%rsp)
	callq	trace_logger_log_int
	movq	$-1, %rdi
	movabsq	$.L.str.26, %rsi
	movabsq	$.L.str.13, %rdx
	movabsq	$.L.str.31, %rcx
	movl	$32, %r10d
	movl	%r10d, %r8d
	xorl	%r9d, %r9d
	movl	$1, %r10d
	movl	$1, (%rsp)
	movl	%r10d, -148(%rbp)       # 4-byte Spill
	callq	trace_logger_log0
	movl	$2, %r9d
	movl	%r9d, %edi
	movl	$64, %r9d
	movl	%r9d, %esi
	movl	$1, %r9d
	movl	%r9d, %ecx
	movabsq	$.L.str.19, %r8
	xorl	%r9d, %r9d
                                        # kill: def %r9 killed %r9d
	movabsq	$.L.str.6, %rax
	movq	-144(%rbp), %rdx        # 8-byte Reload
	movq	%rax, (%rsp)
	callq	trace_logger_log_int
	movl	$1, %r10d
	movl	%r10d, %eax
	movl	$64, %r10d
	movl	%r10d, %esi
	movabsq	$.L.str.32, %r8
	xorl	%r10d, %r10d
	movl	%r10d, %r9d
	movabsq	$.L.str.6, %rcx
	movq	%rax, %rdi
	movq	-40(%rbp), %rdx         # 8-byte Reload
	movq	%rcx, -160(%rbp)        # 8-byte Spill
	movq	%rax, %rcx
	movq	-160(%rbp), %rax        # 8-byte Reload
	movq	%rax, (%rsp)
	callq	trace_logger_log_ptr
	movl	$19134, %r10d           # imm = 0x4ABE
	movl	%r10d, %edi
	movl	$64, %r10d
	movl	%r10d, %esi
	movl	$1, %r10d
	movl	%r10d, %ecx
	movabsq	$.L.str.31, %r8
	xorl	%r10d, %r10d
	movl	%r10d, %r9d
	movabsq	$.L.str.6, %rax
	movq	-144(%rbp), %rdx        # 8-byte Reload
	shlq	$2, %rdx
	movq	-40(%rbp), %r11         # 8-byte Reload
	addq	%rdx, %r11
	movq	%r11, %rdx
	movq	%rax, (%rsp)
	movq	%r11, -168(%rbp)        # 8-byte Spill
	callq	trace_logger_log_ptr
	movq	$-1, %rdi
	movabsq	$.L.str.26, %rsi
	movabsq	$.L.str.13, %rdx
	movabsq	$.L.str.33, %rcx
	movl	$23, %r10d
	movl	%r10d, %r8d
	xorl	%r9d, %r9d
	movl	$1, %r10d
	movl	$1, (%rsp)
	movl	%r10d, -172(%rbp)       # 4-byte Spill
	callq	trace_logger_log0
	movl	$2, %r9d
	movl	%r9d, %edi
	movl	$64, %r9d
	movl	%r9d, %esi
	movl	$4, %r9d
	movl	%r9d, %edx
	xorl	%r9d, %r9d
	movl	%r9d, %eax
	movabsq	$.L.str.16, %r8
	movabsq	$.L.str.6, %rcx
	movq	%rcx, -184(%rbp)        # 8-byte Spill
	movq	%rax, %rcx
	movq	%rax, %r9
	movq	-184(%rbp), %rax        # 8-byte Reload
	movq	%rax, (%rsp)
	callq	trace_logger_log_int
	movl	$1, %r10d
	movl	%r10d, %eax
	movl	$64, %r10d
	movl	%r10d, %esi
	movabsq	$.L.str.28, %r8
	xorl	%r10d, %r10d
	movl	%r10d, %r9d
	movabsq	$.L.str.6, %rcx
	movq	%rax, %rdi
	movq	-88(%rbp), %rdx         # 8-byte Reload
	movq	%rcx, -192(%rbp)        # 8-byte Spill
	movq	%rax, %rcx
	movq	-192(%rbp), %rax        # 8-byte Reload
	movq	%rax, (%rsp)
	callq	trace_logger_log_int
	movl	$19134, %r10d           # imm = 0x4ABE
	movl	%r10d, %edi
	movl	$64, %r10d
	movl	%r10d, %esi
	movl	$1, %r10d
	movl	%r10d, %ecx
	movabsq	$.L.str.33, %r8
	xorl	%r10d, %r10d
	movl	%r10d, %r9d
	movabsq	$.L.str.6, %rax
	movq	-88(%rbp), %rdx         # 8-byte Reload
	shlq	$4, %rdx
	movq	%rdx, -200(%rbp)        # 8-byte Spill
	movq	%rax, (%rsp)
	callq	trace_logger_log_int
	movq	$-1, %rdi
	movabsq	$.L.str.26, %rsi
	movabsq	$.L.str.13, %rdx
	movabsq	$.L.str.34, %rcx
	movl	$30, %r10d
	movl	%r10d, %r8d
	xorl	%r9d, %r9d
	movl	$1, %r10d
	movl	$1, (%rsp)
	movl	%r10d, -204(%rbp)       # 4-byte Spill
	callq	trace_logger_log0
	movl	$1, %r9d
	movl	%r9d, %eax
	movl	$64, %r9d
	movl	%r9d, %esi
	movabsq	$.L.str.31, %r8
	xorl	%r9d, %r9d
                                        # kill: def %r9 killed %r9d
	movabsq	$.L.str.6, %rcx
	movq	%rax, %rdi
	movq	-168(%rbp), %rdx        # 8-byte Reload
	movq	%rcx, -216(%rbp)        # 8-byte Spill
	movq	%rax, %rcx
	movq	-216(%rbp), %rax        # 8-byte Reload
	movq	%rax, (%rsp)
	callq	trace_logger_log_ptr
	movl	$19134, %r10d           # imm = 0x4ABE
	movl	%r10d, %edi
	movl	$32, %r10d
	movl	%r10d, %esi
	movl	$1, %r10d
	movl	%r10d, %ecx
	movabsq	$.L.str.34, %r8
	xorl	%r10d, %r10d
	movl	%r10d, %r9d
	movabsq	$.L.str.6, %rax
	movq	-40(%rbp), %rdx         # 8-byte Reload
	movq	-144(%rbp), %r11        # 8-byte Reload
	movl	(%rdx,%r11,4), %r10d
.Ltmp12:
	.loc	1 19 17 is_stmt 1       # pp_scan.c:19:17
	movl	%r10d, %ebx
	movl	%ebx, %edx
	movq	%rax, (%rsp)
	movl	%r10d, -220(%rbp)       # 4-byte Spill
	callq	trace_logger_log_int
	movl	$19, %r10d
	movl	%r10d, %edi
	movabsq	$.L.str.26, %rsi
	movabsq	$.L.str.13, %rdx
	movabsq	$.L.str.35, %rcx
	movl	$2, %r10d
	movl	%r10d, %r8d
	xorl	%r9d, %r9d
	movl	$1, %r10d
	movl	$1, (%rsp)
	movl	%r10d, -224(%rbp)       # 4-byte Spill
	callq	trace_logger_log0
	movl	$1, %r9d
	movl	%r9d, %eax
	xorl	%r9d, %r9d
	movl	%r9d, %ecx
	movabsq	$.L.str.36, %r8
	movabsq	$.L.str.6, %rdx
	movq	%rax, %rdi
	movq	%rcx, %rsi
	movq	%rdx, -232(%rbp)        # 8-byte Spill
	movq	%rcx, %rdx
	movq	%rcx, -240(%rbp)        # 8-byte Spill
	movq	%rax, %rcx
	movq	-240(%rbp), %r9         # 8-byte Reload
	movq	-232(%rbp), %rax        # 8-byte Reload
	movq	%rax, (%rsp)
	callq	trace_logger_log_int
	movl	$1, %r10d
	movl	%r10d, %eax
	movl	-220(%rbp), %r10d       # 4-byte Reload
	movl	%r10d, -244(%rbp)       # 4-byte Spill
	movq	%rax, -256(%rbp)        # 8-byte Spill
.Ltmp13:
.LBB1_2:                                #   Parent Loop BB1_1 Depth=1
                                        # =>  This Inner Loop Header: Depth=2
	#DEBUG_VALUE: local_scan:radixID <- [DW_OP_constu 88, DW_OP_minus] [%rbp+0]
	#DEBUG_VALUE: local_scan:bucket <- [DW_OP_constu 40, DW_OP_minus] [%rbp+0]
	.loc	1 0 17 is_stmt 0        # pp_scan.c:0:17
	movq	-256(%rbp), %rax        # 8-byte Reload
	movl	-244(%rbp), %ecx        # 4-byte Reload
	movq	$-1, %rdi
	movabsq	$.L.str.26, %rsi
	movabsq	$.L.str.36, %rdx
	movabsq	$.L.str.37, %r8
	movl	$53, %r9d
	movl	%r9d, %r10d
	xorl	%r9d, %r9d
	movl	$1, %r11d
	.loc	1 17 16 is_stmt 1       # pp_scan.c:17:16
	movl	%ecx, -260(%rbp)        # 4-byte Spill
	movq	%r8, %rcx
	movq	%r10, %r8
	movl	$1, (%rsp)
	movq	%rax, -272(%rbp)        # 8-byte Spill
	movl	%r11d, -276(%rbp)       # 4-byte Spill
	callq	trace_logger_log0
	movl	$2, %r9d
	movl	%r9d, %edi
	movl	$32, %r9d
	movl	%r9d, %esi
	xorl	%r9d, %r9d
	movl	%r9d, %edx
	movl	$1, %r9d
	movl	%r9d, %eax
	movabsq	$.L.str.38, %r8
	movabsq	$.L.str.36, %rcx
	movq	%rcx, -288(%rbp)        # 8-byte Spill
	movq	%rax, %rcx
	movq	%rax, %r9
	movq	-288(%rbp), %rax        # 8-byte Reload
	movq	%rax, (%rsp)
	callq	trace_logger_log_int
	movl	$1, %r11d
	movl	%r11d, %eax
	movl	$32, %r11d
	movl	%r11d, %esi
	xorl	%r11d, %r11d
	movl	%r11d, %edx
	movabsq	$.L.str.34, %r8
	movabsq	$.L.str.13, %rcx
	movq	%rax, %rdi
	movq	%rcx, -296(%rbp)        # 8-byte Spill
	movq	%rax, %rcx
	movq	%rax, %r9
	movq	-296(%rbp), %rax        # 8-byte Reload
	movq	%rax, (%rsp)
	callq	trace_logger_log_int
	movl	$19134, %r11d           # imm = 0x4ABE
	movl	%r11d, %edi
	movl	$32, %r11d
	movl	%r11d, %esi
	movl	$1, %r11d
	movl	%r11d, %ecx
	movabsq	$.L.str.37, %r8
	xorl	%r11d, %r11d
	movl	%r11d, %r9d
	movabsq	$.L.str.13, %rax
	movl	-260(%rbp), %r11d       # 4-byte Reload
	movl	%r11d, %ebx
	movl	%ebx, %edx
	movq	%rax, (%rsp)
	callq	trace_logger_log_int
	movq	$-1, %rdi
	movabsq	$.L.str.26, %rsi
	movabsq	$.L.str.36, %rdx
	movabsq	$.L.str.14, %rcx
	movl	$53, %r11d
	movl	%r11d, %r8d
	xorl	%r9d, %r9d
	movl	$1, %r11d
	movl	$1, (%rsp)
	movl	%r11d, -300(%rbp)       # 4-byte Spill
	callq	trace_logger_log0
	movl	$2, %r9d
	movl	%r9d, %edi
	movl	$64, %r9d
	movl	%r9d, %esi
	xorl	%r9d, %r9d
	movl	%r9d, %edx
	movl	$1, %r9d
	movl	%r9d, %eax
	movabsq	$.L.str.15, %r8
	movabsq	$.L.str.36, %rcx
	movq	%rcx, -312(%rbp)        # 8-byte Spill
	movq	%rax, %rcx
	movq	%rax, %r9
	movq	-312(%rbp), %rax        # 8-byte Reload
	movq	%rax, (%rsp)
	callq	trace_logger_log_int
	movl	$1, %r11d
	movl	%r11d, %eax
	movl	$64, %r11d
	movl	%r11d, %esi
	xorl	%r11d, %r11d
	movl	%r11d, %ecx
	movabsq	$.L.str.16, %r8
	movabsq	$.L.str.13, %rdx
	movq	%rax, %rdi
	movq	%rdx, -320(%rbp)        # 8-byte Spill
	movq	%rax, %rdx
	movq	%rax, %r9
	movq	-320(%rbp), %rax        # 8-byte Reload
	movq	%rax, (%rsp)
	callq	trace_logger_log_int
	movl	$19134, %r11d           # imm = 0x4ABE
	movl	%r11d, %edi
	movl	$64, %r11d
	movl	%r11d, %esi
	movl	$1, %r11d
	movl	%r11d, %ecx
	movabsq	$.L.str.14, %r8
	xorl	%r11d, %r11d
	movl	%r11d, %r9d
	movabsq	$.L.str.13, %rax
	movq	-272(%rbp), %rdx        # 8-byte Reload
	movq	%rax, (%rsp)
	callq	trace_logger_log_int
	movl	$21, %r11d
	movl	%r11d, %edi
	movabsq	$.L.str.26, %rsi
	movabsq	$.L.str.36, %rdx
	movabsq	$.L.str.39, %rcx
	movl	$11, %r11d
	movl	%r11d, %r8d
	xorl	%r9d, %r9d
	movl	$1, %r11d
.Ltmp14:
	#DEBUG_VALUE: local_scan:i <- [DW_OP_constu 272, DW_OP_minus] [%rbp+0]
	.loc	1 21 71                 # pp_scan.c:21:71
	movl	$1, (%rsp)
	movl	%r11d, -324(%rbp)       # 4-byte Spill
	callq	trace_logger_log0
	movl	$2, %r9d
	movl	%r9d, %edi
	movl	$64, %r9d
	movl	%r9d, %esi
	movl	$1, %r9d
	movl	%r9d, %ecx
	movabsq	$.L.str.33, %r8
	xorl	%r9d, %r9d
                                        # kill: def %r9 killed %r9d
	movabsq	$.L.str.6, %rax
	movq	-200(%rbp), %rdx        # 8-byte Reload
	movq	%rax, (%rsp)
	callq	trace_logger_log_int
	movl	$1, %r11d
	movl	%r11d, %eax
	movl	$64, %r11d
	movl	%r11d, %esi
	movabsq	$.L.str.14, %r8
	xorl	%r11d, %r11d
	movl	%r11d, %r9d
	movabsq	$.L.str.6, %rcx
	movq	%rax, %rdi
	movq	-272(%rbp), %rdx        # 8-byte Reload
	movq	%rcx, -336(%rbp)        # 8-byte Spill
	movq	%rax, %rcx
	movq	-336(%rbp), %rax        # 8-byte Reload
	movq	%rax, (%rsp)
	callq	trace_logger_log_int
	movl	$19134, %r11d           # imm = 0x4ABE
	movl	%r11d, %edi
	movl	$64, %r11d
	movl	%r11d, %esi
	movl	$1, %r11d
	movl	%r11d, %ecx
	movabsq	$.L.str.39, %r8
	xorl	%r11d, %r11d
	movl	%r11d, %r9d
	movabsq	$.L.str.6, %rax
	movq	-272(%rbp), %rdx        # 8-byte Reload
	movq	-200(%rbp), %r10        # 8-byte Reload
	addq	%r10, %rdx
	.loc	1 21 7 is_stmt 0        # pp_scan.c:21:7
	movq	%rdx, -344(%rbp)        # 8-byte Spill
	movq	%rax, (%rsp)
	callq	trace_logger_log_int
	movl	$21, %r11d
	movl	%r11d, %edi
	movabsq	$.L.str.26, %rsi
	movabsq	$.L.str.36, %rdx
	movabsq	$.L.str.40, %rcx
	movl	$32, %r11d
	movl	%r11d, %r8d
	xorl	%r9d, %r9d
	movl	$1, %r11d
	movl	$1, (%rsp)
	movl	%r11d, -348(%rbp)       # 4-byte Spill
	callq	trace_logger_log0
	movl	$2, %r9d
	movl	%r9d, %edi
	movl	$64, %r9d
	movl	%r9d, %esi
	movl	$1, %r9d
	movl	%r9d, %ecx
	movabsq	$.L.str.39, %r8
	xorl	%r9d, %r9d
                                        # kill: def %r9 killed %r9d
	movabsq	$.L.str.6, %rax
	movq	-344(%rbp), %rdx        # 8-byte Reload
	movq	%rax, (%rsp)
	callq	trace_logger_log_int
	movl	$1, %r11d
	movl	%r11d, %eax
	movl	$64, %r11d
	movl	%r11d, %esi
	movabsq	$.L.str.32, %r8
	xorl	%r11d, %r11d
	movl	%r11d, %r9d
	movabsq	$.L.str.6, %rcx
	movq	%rax, %rdi
	movq	-40(%rbp), %rdx         # 8-byte Reload
	movq	%rcx, -360(%rbp)        # 8-byte Spill
	movq	%rax, %rcx
	movq	-360(%rbp), %rax        # 8-byte Reload
	movq	%rax, (%rsp)
	callq	trace_logger_log_ptr
	movl	$19134, %r11d           # imm = 0x4ABE
	movl	%r11d, %edi
	movl	$64, %r11d
	movl	%r11d, %esi
	movl	$1, %r11d
	movl	%r11d, %ecx
	movabsq	$.L.str.40, %r8
	xorl	%r11d, %r11d
	movl	%r11d, %r9d
	movabsq	$.L.str.6, %rax
	movq	-344(%rbp), %rdx        # 8-byte Reload
	shlq	$2, %rdx
	movq	-40(%rbp), %r10         # 8-byte Reload
	addq	%rdx, %r10
	.loc	1 21 40                 # pp_scan.c:21:40
	movq	%r10, %rdx
	movq	%rax, (%rsp)
	movq	%r10, -368(%rbp)        # 8-byte Spill
	callq	trace_logger_log_ptr
	movl	$21, %r11d
	movl	%r11d, %edi
	movabsq	$.L.str.26, %rsi
	movabsq	$.L.str.36, %rdx
	movabsq	$.L.str.41, %rcx
	movl	$30, %r11d
	movl	%r11d, %r8d
	xorl	%r9d, %r9d
	movl	$1, %r11d
	movl	$1, (%rsp)
	movl	%r11d, -372(%rbp)       # 4-byte Spill
	callq	trace_logger_log0
	movl	$1, %r9d
	movl	%r9d, %eax
	movl	$64, %r9d
	movl	%r9d, %esi
	movabsq	$.L.str.40, %r8
	xorl	%r9d, %r9d
                                        # kill: def %r9 killed %r9d
	movabsq	$.L.str.6, %rcx
	movq	%rax, %rdi
	movq	-368(%rbp), %rdx        # 8-byte Reload
	movq	%rcx, -384(%rbp)        # 8-byte Spill
	movq	%rax, %rcx
	movq	-384(%rbp), %rax        # 8-byte Reload
	movq	%rax, (%rsp)
	callq	trace_logger_log_ptr
	movl	$19134, %r11d           # imm = 0x4ABE
	movl	%r11d, %edi
	movl	$32, %r11d
	movl	%r11d, %esi
	movl	$1, %r11d
	movl	%r11d, %ecx
	movabsq	$.L.str.41, %r8
	xorl	%r11d, %r11d
	movl	%r11d, %r9d
	movabsq	$.L.str.6, %rax
	movq	-40(%rbp), %rdx         # 8-byte Reload
	movq	-344(%rbp), %r10        # 8-byte Reload
	movl	(%rdx,%r10,4), %r11d
	movl	%r11d, %ebx
	movl	%ebx, %edx
	movq	%rax, (%rsp)
	movl	%r11d, -388(%rbp)       # 4-byte Spill
	callq	trace_logger_log_int
	movl	$21, %r11d
	movl	%r11d, %edi
	movabsq	$.L.str.26, %rsi
	movabsq	$.L.str.36, %rdx
	movabsq	$.L.str.38, %rcx
	movl	$11, %r11d
	movl	%r11d, %r8d
	xorl	%r9d, %r9d
	movl	$1, %r11d
	movl	$1, (%rsp)
	movl	%r11d, -392(%rbp)       # 4-byte Spill
	callq	trace_logger_log0
	movl	$2, %r9d
	movl	%r9d, %edi
	movl	$32, %r9d
	movl	%r9d, %esi
	movl	$1, %r9d
	movl	%r9d, %ecx
	movabsq	$.L.str.37, %r8
	xorl	%r9d, %r9d
                                        # kill: def %r9 killed %r9d
	movabsq	$.L.str.6, %rax
	movl	-260(%rbp), %r11d       # 4-byte Reload
	movl	%r11d, %ebx
	movl	%ebx, %edx
	movq	%rax, (%rsp)
	callq	trace_logger_log_int
	movl	$1, %r11d
	movl	%r11d, %eax
	movl	$32, %r11d
	movl	%r11d, %esi
	movabsq	$.L.str.41, %r8
	xorl	%r11d, %r11d
	movl	%r11d, %r9d
	movabsq	$.L.str.6, %rcx
	movl	-388(%rbp), %r11d       # 4-byte Reload
	movl	%r11d, %ebx
	movl	%ebx, %edx
	movq	%rax, %rdi
	movq	%rcx, -400(%rbp)        # 8-byte Spill
	movq	%rax, %rcx
	movq	-400(%rbp), %rax        # 8-byte Reload
	movq	%rax, (%rsp)
	callq	trace_logger_log_int
	movl	$19134, %r11d           # imm = 0x4ABE
	movl	%r11d, %edi
	movl	$32, %r11d
	movl	%r11d, %esi
	movl	$1, %r11d
	movl	%r11d, %ecx
	movabsq	$.L.str.38, %r8
	xorl	%r11d, %r11d
	movl	%r11d, %r9d
	movabsq	$.L.str.6, %rax
	movl	-388(%rbp), %r11d       # 4-byte Reload
	movl	-260(%rbp), %ebx        # 4-byte Reload
	addl	%ebx, %r11d
	movl	%r11d, %r14d
	movl	%r14d, %edx
	movq	%rax, (%rsp)
	movl	%r11d, -404(%rbp)       # 4-byte Spill
	callq	trace_logger_log_int
	movl	$21, %r11d
	movl	%r11d, %edi
	movabsq	$.L.str.26, %rsi
	movabsq	$.L.str.36, %rdx
	movabsq	$.L.str.42, %rcx
	movl	$31, %r11d
	movl	%r11d, %r8d
	xorl	%r9d, %r9d
	movl	$1, %r11d
	movl	$1, (%rsp)
	movl	%r11d, -408(%rbp)       # 4-byte Spill
	callq	trace_logger_log0
	movl	$2, %r9d
	movl	%r9d, %edi
	movl	$64, %r9d
	movl	%r9d, %esi
	movl	$1, %r9d
	movl	%r9d, %ecx
	movabsq	$.L.str.40, %r8
	xorl	%r9d, %r9d
                                        # kill: def %r9 killed %r9d
	movabsq	$.L.str.6, %rax
	movq	-368(%rbp), %rdx        # 8-byte Reload
	movq	%rax, (%rsp)
	callq	trace_logger_log_ptr
	movl	$1, %r11d
	movl	%r11d, %eax
	movl	$32, %r11d
	movl	%r11d, %esi
	movabsq	$.L.str.38, %r8
	xorl	%r11d, %r11d
	movl	%r11d, %r9d
	movabsq	$.L.str.6, %rcx
	movl	-404(%rbp), %r11d       # 4-byte Reload
	movl	%r11d, %ebx
	movl	%ebx, %edx
	movq	%rax, %rdi
	movq	%rcx, -416(%rbp)        # 8-byte Spill
	movq	%rax, %rcx
	movq	-416(%rbp), %rax        # 8-byte Reload
	movq	%rax, (%rsp)
	callq	trace_logger_log_int
	movl	$19, %r11d
	movl	%r11d, %edi
	movabsq	$.L.str.26, %rsi
	movabsq	$.L.str.36, %rdx
	movabsq	$.L.str.15, %rcx
	movl	$11, %r11d
	movl	%r11d, %r8d
	xorl	%r9d, %r9d
	movl	$1, %r11d
	movq	-40(%rbp), %rax         # 8-byte Reload
	movq	-344(%rbp), %r10        # 8-byte Reload
	movl	-404(%rbp), %ebx        # 4-byte Reload
	movl	%ebx, (%rax,%r10,4)
.Ltmp15:
	.loc	1 19 45 is_stmt 1       # pp_scan.c:19:45
	movl	$1, (%rsp)
	movl	%r11d, -420(%rbp)       # 4-byte Spill
	callq	trace_logger_log0
	movl	$2, %r9d
	movl	%r9d, %edi
	movl	$64, %r9d
	movl	%r9d, %esi
	movl	$1, %r9d
	movl	%r9d, %edx
	xorl	%r9d, %r9d
	movl	%r9d, %eax
	movabsq	$.L.str.16, %r8
	movabsq	$.L.str.6, %rcx
	movq	%rcx, -432(%rbp)        # 8-byte Spill
	movq	%rax, %rcx
	movq	%rax, %r9
	movq	-432(%rbp), %rax        # 8-byte Reload
	movq	%rax, (%rsp)
	callq	trace_logger_log_int
	movl	$1, %r11d
	movl	%r11d, %eax
	movl	$64, %r11d
	movl	%r11d, %esi
	movabsq	$.L.str.14, %r8
	xorl	%r11d, %r11d
	movl	%r11d, %r9d
	movabsq	$.L.str.6, %rcx
	movq	%rax, %rdi
	movq	-272(%rbp), %rdx        # 8-byte Reload
	movq	%rcx, -440(%rbp)        # 8-byte Spill
	movq	%rax, %rcx
	movq	-440(%rbp), %rax        # 8-byte Reload
	movq	%rax, (%rsp)
	callq	trace_logger_log_int
	movl	$19134, %r11d           # imm = 0x4ABE
	movl	%r11d, %edi
	movl	$64, %r11d
	movl	%r11d, %esi
	movl	$1, %r11d
	movl	%r11d, %ecx
	movabsq	$.L.str.15, %r8
	xorl	%r11d, %r11d
	movl	%r11d, %r9d
	movabsq	$.L.str.6, %rax
	movq	-272(%rbp), %rdx        # 8-byte Reload
	addq	$1, %rdx
	.loc	1 19 31 is_stmt 0       # pp_scan.c:19:31
	movq	%rdx, -448(%rbp)        # 8-byte Spill
	movq	%rax, (%rsp)
	callq	trace_logger_log_int
	movl	$19, %r11d
	movl	%r11d, %edi
	movabsq	$.L.str.26, %rsi
	movabsq	$.L.str.36, %rdx
	movabsq	$.L.str.23, %rcx
	movl	$51, %r11d
	movl	%r11d, %r8d
	xorl	%r9d, %r9d
	movl	$1, %r11d
	movl	$1, (%rsp)
	movl	%r11d, -452(%rbp)       # 4-byte Spill
	callq	trace_logger_log0
	movl	$2, %r9d
	movl	%r9d, %edi
	movl	$64, %r9d
	movl	%r9d, %esi
	movl	$16, %r9d
	movl	%r9d, %edx
	xorl	%r9d, %r9d
	movl	%r9d, %eax
	movabsq	$.L.str.16, %r8
	movabsq	$.L.str.6, %rcx
	movq	%rcx, -464(%rbp)        # 8-byte Spill
	movq	%rax, %rcx
	movq	%rax, %r9
	movq	-464(%rbp), %rax        # 8-byte Reload
	movq	%rax, (%rsp)
	callq	trace_logger_log_int
	movl	$1, %r11d
	movl	%r11d, %eax
	movl	$64, %r11d
	movl	%r11d, %esi
	movabsq	$.L.str.15, %r8
	xorl	%r11d, %r11d
	movl	%r11d, %r9d
	movabsq	$.L.str.6, %rcx
	movq	%rax, %rdi
	movq	-448(%rbp), %rdx        # 8-byte Reload
	movq	%rcx, -472(%rbp)        # 8-byte Spill
	movq	%rax, %rcx
	movq	-472(%rbp), %rax        # 8-byte Reload
	movq	%rax, (%rsp)
	callq	trace_logger_log_int
	movl	$19134, %r11d           # imm = 0x4ABE
	movl	%r11d, %edi
	movl	$1, %r11d
	movl	%r11d, %eax
	movabsq	$.L.str.23, %r8
	xorl	%r11d, %r11d
	movl	%r11d, %r9d
	movabsq	$.L.str.6, %rcx
	movq	-448(%rbp), %rdx        # 8-byte Reload
	cmpq	$16, %rdx
	sete	%r15b
.Ltmp16:
	.loc	1 19 17                 # pp_scan.c:19:17
	movb	%r15b, %r12b
	andb	$1, %r12b
	movzbl	%r12b, %r11d
	movl	%r11d, %edx
	movq	%rax, %rsi
	movq	%rcx, -480(%rbp)        # 8-byte Spill
	movq	%rax, %rcx
	movq	-480(%rbp), %rax        # 8-byte Reload
	movq	%rax, (%rsp)
	movb	%r15b, -481(%rbp)       # 1-byte Spill
	callq	trace_logger_log_int
	movl	$19, %r11d
	movl	%r11d, %edi
	movabsq	$.L.str.26, %rsi
	movabsq	$.L.str.36, %rdx
	movabsq	$.L.str.43, %rcx
	movl	$2, %r11d
	movl	%r11d, %r8d
	xorl	%r9d, %r9d
	movl	$1, %r11d
	movl	$1, (%rsp)
	movl	%r11d, -488(%rbp)       # 4-byte Spill
	callq	trace_logger_log0
	movl	$3, %r9d
	movl	%r9d, %edi
	xorl	%r9d, %r9d
	movl	%r9d, %eax
	movl	$1, %r9d
	movl	%r9d, %ecx
	movabsq	$.L.str.30, %r8
	movabsq	$.L.str.6, %rdx
	movq	%rax, %rsi
	movq	%rdx, -496(%rbp)        # 8-byte Spill
	movq	%rax, %rdx
	movq	%rax, %r9
	movq	-496(%rbp), %rax        # 8-byte Reload
	movq	%rax, (%rsp)
	callq	trace_logger_log_int
	movl	$2, %r11d
	movl	%r11d, %edi
	xorl	%r11d, %r11d
	movl	%r11d, %eax
	movl	$1, %r11d
	movl	%r11d, %ecx
	movabsq	$.L.str.36, %r8
	movabsq	$.L.str.6, %rdx
	movq	%rax, %rsi
	movq	%rdx, -504(%rbp)        # 8-byte Spill
	movq	%rax, %rdx
	movq	%rax, %r9
	movq	-504(%rbp), %rax        # 8-byte Reload
	movq	%rax, (%rsp)
	callq	trace_logger_log_int
	movl	$1, %r11d
	movl	%r11d, %eax
	movabsq	$.L.str.23, %r8
	xorl	%r11d, %r11d
	movl	%r11d, %r9d
	movabsq	$.L.str.6, %rcx
	movb	-481(%rbp), %r15b       # 1-byte Reload
	andb	$1, %r15b
	movzbl	%r15b, %r11d
	movl	%r11d, %edx
	movq	%rax, %rdi
	movq	%rax, %rsi
	movq	%rcx, -512(%rbp)        # 8-byte Spill
	movq	%rax, %rcx
	movq	-512(%rbp), %rax        # 8-byte Reload
	movq	%rax, (%rsp)
	callq	trace_logger_log_int
	movb	-481(%rbp), %r15b       # 1-byte Reload
	testb	$1, %r15b
	movl	-404(%rbp), %r11d       # 4-byte Reload
	movq	-448(%rbp), %rax        # 8-byte Reload
	movl	%r11d, -244(%rbp)       # 4-byte Spill
	movq	%rax, -256(%rbp)        # 8-byte Spill
	jne	.LBB1_3
	jmp	.LBB1_2
.Ltmp17:
.LBB1_3:                                #   in Loop: Header=BB1_1 Depth=1
	#DEBUG_VALUE: local_scan:i <- [DW_OP_constu 272, DW_OP_minus] [%rbp+0]
	#DEBUG_VALUE: local_scan:radixID <- [DW_OP_constu 88, DW_OP_minus] [%rbp+0]
	#DEBUG_VALUE: local_scan:bucket <- [DW_OP_constu 40, DW_OP_minus] [%rbp+0]
	.loc	1 0 17                  # pp_scan.c:0:17
	movl	$18, %eax
	movl	%eax, %edi
	movabsq	$.L.str.26, %rsi
	movabsq	$.L.str.30, %rdx
	movabsq	$.L.str.29, %rcx
	movl	$11, %eax
	movl	%eax, %r8d
	xorl	%r9d, %r9d
	movl	$1, %eax
	.loc	1 18 55 is_stmt 1       # pp_scan.c:18:55
	movl	$1, (%rsp)
	movl	%eax, -516(%rbp)        # 4-byte Spill
	callq	trace_logger_log0
	movl	$2, %eax
	movl	%eax, %edi
	movl	$64, %eax
	movl	%eax, %esi
	movl	$1, %eax
	movl	%eax, %edx
	xorl	%eax, %eax
	movl	%eax, %ecx
	movabsq	$.L.str.16, %r8
	movabsq	$.L.str.6, %r10
	movq	%rcx, -528(%rbp)        # 8-byte Spill
	movq	-528(%rbp), %r9         # 8-byte Reload
	movq	%r10, (%rsp)
	callq	trace_logger_log_int
	movl	$1, %eax
	movl	%eax, %ecx
	movl	$64, %eax
	movl	%eax, %esi
	movabsq	$.L.str.28, %r8
	xorl	%eax, %eax
	movl	%eax, %r9d
	movabsq	$.L.str.6, %rdx
	movq	%rcx, %rdi
	movq	-88(%rbp), %r10         # 8-byte Reload
	movq	%rdx, -536(%rbp)        # 8-byte Spill
	movq	%r10, %rdx
	movq	-536(%rbp), %r11        # 8-byte Reload
	movq	%r11, (%rsp)
	callq	trace_logger_log_int
	movl	$19134, %eax            # imm = 0x4ABE
	movl	%eax, %edi
	movl	$64, %eax
	movl	%eax, %esi
	movl	$1, %eax
	movl	%eax, %ecx
	movabsq	$.L.str.29, %r8
	xorl	%eax, %eax
	movl	%eax, %r9d
	movabsq	$.L.str.6, %rdx
	movq	-88(%rbp), %r10         # 8-byte Reload
	addq	$1, %r10
	.loc	1 18 41 is_stmt 0       # pp_scan.c:18:41
	movq	%rdx, -544(%rbp)        # 8-byte Spill
	movq	%r10, %rdx
	movq	-544(%rbp), %r11        # 8-byte Reload
	movq	%r11, (%rsp)
	movq	%r10, -552(%rbp)        # 8-byte Spill
	callq	trace_logger_log_int
	movl	$18, %eax
	movl	%eax, %edi
	movabsq	$.L.str.26, %rsi
	movabsq	$.L.str.30, %rdx
	movabsq	$.L.str.44, %rcx
	movl	$51, %eax
	movl	%eax, %r8d
	xorl	%r9d, %r9d
	movl	$1, %eax
	movl	$1, (%rsp)
	movl	%eax, -556(%rbp)        # 4-byte Spill
	callq	trace_logger_log0
	movl	$2, %eax
	movl	%eax, %edi
	movl	$64, %eax
	movl	%eax, %esi
	movl	$128, %eax
	movl	%eax, %edx
	xorl	%eax, %eax
	movl	%eax, %ecx
	movabsq	$.L.str.16, %r8
	movabsq	$.L.str.6, %r10
	movq	%rcx, -568(%rbp)        # 8-byte Spill
	movq	-568(%rbp), %r9         # 8-byte Reload
	movq	%r10, (%rsp)
	callq	trace_logger_log_int
	movl	$1, %eax
	movl	%eax, %ecx
	movl	$64, %eax
	movl	%eax, %esi
	movabsq	$.L.str.29, %r8
	xorl	%eax, %eax
	movl	%eax, %r9d
	movabsq	$.L.str.6, %rdx
	movq	%rcx, %rdi
	movq	-552(%rbp), %r10        # 8-byte Reload
	movq	%rdx, -576(%rbp)        # 8-byte Spill
	movq	%r10, %rdx
	movq	-576(%rbp), %r11        # 8-byte Reload
	movq	%r11, (%rsp)
	callq	trace_logger_log_int
	movl	$19134, %eax            # imm = 0x4ABE
	movl	%eax, %edi
	movl	$1, %eax
	movl	%eax, %ecx
	movabsq	$.L.str.44, %r8
	xorl	%eax, %eax
	movl	%eax, %r9d
	movabsq	$.L.str.6, %rdx
	movq	-552(%rbp), %rsi        # 8-byte Reload
	cmpq	$128, %rsi
	sete	%bl
.Ltmp18:
	.loc	1 18 15                 # pp_scan.c:18:15
	movb	%bl, %r14b
	andb	$1, %r14b
	movzbl	%r14b, %eax
	movl	%eax, %r10d
	movq	%rcx, %rsi
	movq	%rdx, -584(%rbp)        # 8-byte Spill
	movq	%r10, %rdx
	movq	-584(%rbp), %r10        # 8-byte Reload
	movq	%r10, (%rsp)
	movb	%bl, -585(%rbp)         # 1-byte Spill
	callq	trace_logger_log_int
	movl	$18, %eax
	movl	%eax, %edi
	movabsq	$.L.str.26, %rsi
	movabsq	$.L.str.30, %rdx
	movabsq	$.L.str.45, %rcx
	movl	$2, %eax
	movl	%eax, %r8d
	xorl	%r9d, %r9d
	movl	$1, %eax
	movl	$1, (%rsp)
	movl	%eax, -592(%rbp)        # 4-byte Spill
	callq	trace_logger_log0
	movl	$3, %eax
	movl	%eax, %edi
	xorl	%eax, %eax
	movl	%eax, %ecx
	movl	$1, %eax
	movl	%eax, %edx
	movabsq	$.L.str.46, %r8
	movabsq	$.L.str.6, %rsi
	movq	%rsi, -600(%rbp)        # 8-byte Spill
	movq	%rcx, %rsi
	movq	%rdx, -608(%rbp)        # 8-byte Spill
	movq	%rcx, %rdx
	movq	-608(%rbp), %r10        # 8-byte Reload
	movq	%rcx, -616(%rbp)        # 8-byte Spill
	movq	%r10, %rcx
	movq	-616(%rbp), %r9         # 8-byte Reload
	movq	-600(%rbp), %r11        # 8-byte Reload
	movq	%r11, (%rsp)
	callq	trace_logger_log_int
	movl	$2, %eax
	movl	%eax, %edi
	xorl	%eax, %eax
	movl	%eax, %ecx
	movl	$1, %eax
	movl	%eax, %edx
	movabsq	$.L.str.13, %r8
	movabsq	$.L.str.6, %rsi
	movq	%rsi, -624(%rbp)        # 8-byte Spill
	movq	%rcx, %rsi
	movq	%rdx, -632(%rbp)        # 8-byte Spill
	movq	%rcx, %rdx
	movq	-632(%rbp), %r9         # 8-byte Reload
	movq	%rcx, -640(%rbp)        # 8-byte Spill
	movq	%r9, %rcx
	movq	-640(%rbp), %r9         # 8-byte Reload
	movq	-624(%rbp), %r10        # 8-byte Reload
	movq	%r10, (%rsp)
	callq	trace_logger_log_int
	movl	$1, %eax
	movl	%eax, %ecx
	movabsq	$.L.str.44, %r8
	xorl	%eax, %eax
	movl	%eax, %r9d
	movabsq	$.L.str.6, %rdx
	movb	-585(%rbp), %bl         # 1-byte Reload
	andb	$1, %bl
	movzbl	%bl, %eax
	movl	%eax, %esi
	movq	%rcx, %rdi
	movq	%rsi, -648(%rbp)        # 8-byte Spill
	movq	%rcx, %rsi
	movq	-648(%rbp), %r10        # 8-byte Reload
	movq	%rdx, -656(%rbp)        # 8-byte Spill
	movq	%r10, %rdx
	movq	-656(%rbp), %r11        # 8-byte Reload
	movq	%r11, (%rsp)
	callq	trace_logger_log_int
	movb	-585(%rbp), %bl         # 1-byte Reload
	testb	$1, %bl
	movq	-552(%rbp), %rcx        # 8-byte Reload
	movq	%rcx, -80(%rbp)         # 8-byte Spill
	jne	.LBB1_4
	jmp	.LBB1_1
.Ltmp19:
.LBB1_4:
	#DEBUG_VALUE: local_scan:i <- [DW_OP_constu 272, DW_OP_minus] [%rbp+0]
	#DEBUG_VALUE: local_scan:radixID <- [DW_OP_constu 88, DW_OP_minus] [%rbp+0]
	#DEBUG_VALUE: local_scan:bucket <- [DW_OP_constu 40, DW_OP_minus] [%rbp+0]
	.loc	1 0 15                  # pp_scan.c:0:15
	movl	$23, %eax
	movl	%eax, %edi
	movabsq	$.L.str.26, %rsi
	movabsq	$.L.str.46, %rdx
	movabsq	$.L.str.47, %rcx
	movl	$1, %eax
	movl	%eax, %r8d
	xorl	%r9d, %r9d
	movl	$1, %eax
	.loc	1 23 1 is_stmt 1        # pp_scan.c:23:1
	movl	$1, (%rsp)
	movl	%eax, -660(%rbp)        # 4-byte Spill
	callq	trace_logger_log0
	movabsq	$.L.str.26, %rdi
	movl	$1, %eax
	movl	%eax, %esi
	xorl	%edx, %edx
	movl	$1, %ecx
	callq	trace_logger_update_status
	addq	$640, %rsp              # imm = 0x280
	popq	%rbx
	popq	%r12
	popq	%r14
	popq	%r15
	popq	%rbp
	retq
.Ltmp20:
.Lfunc_end1:
	.size	local_scan, .Lfunc_end1-local_scan
	.cfi_endproc
                                        # -- End function
	.globl	sum_scan                # -- Begin function sum_scan
	.p2align	4, 0x90
	.type	sum_scan,@function
sum_scan:                               # @sum_scan
.Lfunc_begin2:
	.loc	1 26 0                  # pp_scan.c:26:0
	.cfi_startproc
# %bb.0:
	pushq	%rbp
	.cfi_def_cfa_offset 16
	.cfi_offset %rbp, -16
	movq	%rsp, %rbp
	.cfi_def_cfa_register %rbp
	pushq	%r15
	pushq	%r14
	pushq	%r12
	pushq	%rbx
	subq	$432, %rsp              # imm = 0x1B0
	.cfi_offset %rbx, -48
	.cfi_offset %r12, -40
	.cfi_offset %r14, -32
	.cfi_offset %r15, -24
	movl	$24601, %eax            # imm = 0x6019
	movl	%eax, %ecx
	movl	$64, %eax
	movl	%eax, %edx
	movl	$1, %eax
	movl	%eax, %r8d
	movabsq	$.L.str.49, %r9
	xorl	%eax, %eax
	movl	%eax, %r10d
	movabsq	$.L.str.6, %r11
.Ltmp21:
	.loc	1 25 19 prologue_end    # pp_scan.c:25:19
	movq	%rdi, -40(%rbp)         # 8-byte Spill
	movq	%rcx, %rdi
	movq	%rsi, -48(%rbp)         # 8-byte Spill
	movq	%rdx, %rsi
	movq	-40(%rbp), %rdx         # 8-byte Reload
	movq	%r8, %rcx
	movq	%r9, %r8
	movq	%r10, %r9
	movq	%r11, (%rsp)
	callq	trace_logger_log_ptr
	movl	$24601, %eax            # imm = 0x6019
	movl	%eax, %edi
	movl	$64, %eax
	movl	%eax, %esi
	movl	$1, %eax
	movl	%eax, %ecx
	movabsq	$.L.str.32, %r8
	xorl	%eax, %eax
	movl	%eax, %r9d
	movabsq	$.L.str.6, %rdx
	movq	-48(%rbp), %r10         # 8-byte Reload
	movq	%rdx, -56(%rbp)         # 8-byte Spill
	movq	%r10, %rdx
	movq	-56(%rbp), %r11         # 8-byte Reload
	movq	%r11, (%rsp)
	callq	trace_logger_log_ptr
	movl	$28, %eax
	movl	%eax, %edi
	movabsq	$.L.str.48, %rsi
	movabsq	$.L.str.3, %rdx
	movabsq	$.L.str.27, %rcx
	movl	$31, %eax
	movl	%eax, %r8d
	xorl	%r9d, %r9d
	movl	$1, %eax
	#DEBUG_VALUE: sum_scan:sum <- [DW_OP_constu 40, DW_OP_minus] [%rbp+0]
	#DEBUG_VALUE: sum_scan:bucket <- [DW_OP_constu 48, DW_OP_minus] [%rbp+0]
	.loc	1 28 10                 # pp_scan.c:28:10
	movl	$1, (%rsp)
	movl	%eax, -60(%rbp)         # 4-byte Spill
	callq	trace_logger_log0
	movl	$2, %eax
	movl	%eax, %edi
	movl	$64, %eax
	movl	%eax, %esi
	movl	$1, %eax
	movl	%eax, %ecx
	movabsq	$.L.str.49, %r8
	xorl	%eax, %eax
	movl	%eax, %r9d
	movabsq	$.L.str.6, %rdx
	movq	-40(%rbp), %r10         # 8-byte Reload
	movq	%rdx, -72(%rbp)         # 8-byte Spill
	movq	%r10, %rdx
	movq	-72(%rbp), %r11         # 8-byte Reload
	movq	%r11, (%rsp)
	callq	trace_logger_log_ptr
	movl	$1, %eax
	movl	%eax, %edi
	movl	$32, %eax
	movl	%eax, %esi
	xorl	%eax, %eax
	movl	%eax, %ecx
	movabsq	$.L.str.16, %r8
	movabsq	$.L.str.6, %rdx
	movq	%rdx, -80(%rbp)         # 8-byte Spill
	movq	%rcx, %rdx
	movq	%rcx, -88(%rbp)         # 8-byte Spill
	movq	-88(%rbp), %r9          # 8-byte Reload
	movq	-80(%rbp), %r10         # 8-byte Reload
	movq	%r10, (%rsp)
	callq	trace_logger_log_int
	movl	$29, %eax
	movl	%eax, %edi
	movabsq	$.L.str.48, %rsi
	movabsq	$.L.str.3, %rdx
	movabsq	$.L.str.50, %rcx
	movl	$2, %eax
	movl	%eax, %r8d
	xorl	%r9d, %r9d
	movl	$1, %eax
	movq	-40(%rbp), %r10         # 8-byte Reload
	movl	$0, (%r10)
.Ltmp22:
	#DEBUG_VALUE: sum_scan:radixID <- 1
	.loc	1 29 9                  # pp_scan.c:29:9
	movl	$1, (%rsp)
	movl	%eax, -92(%rbp)         # 4-byte Spill
	callq	trace_logger_log0
	movl	$1, %eax
	movl	%eax, %ecx
	xorl	%eax, %eax
	movl	%eax, %edx
	movabsq	$.L.str.13, %r8
	movabsq	$.L.str.6, %rsi
	movq	%rcx, %rdi
	movq	%rsi, -104(%rbp)        # 8-byte Spill
	movq	%rdx, %rsi
	movq	%rdx, -112(%rbp)        # 8-byte Spill
	movq	-112(%rbp), %r9         # 8-byte Reload
	movq	-104(%rbp), %r10        # 8-byte Reload
	movq	%r10, (%rsp)
	callq	trace_logger_log_int
	xorl	%eax, %eax
	movl	$1, %ebx
	movl	%ebx, %ecx
	movl	%eax, -116(%rbp)        # 4-byte Spill
	movq	%rcx, -128(%rbp)        # 8-byte Spill
.Ltmp23:
.LBB2_1:                                # =>This Inner Loop Header: Depth=1
	#DEBUG_VALUE: sum_scan:bucket <- [DW_OP_constu 48, DW_OP_minus] [%rbp+0]
	#DEBUG_VALUE: sum_scan:sum <- [DW_OP_constu 40, DW_OP_minus] [%rbp+0]
	.loc	1 0 9 is_stmt 0         # pp_scan.c:0:9
	movq	-128(%rbp), %rax        # 8-byte Reload
	movl	-116(%rbp), %ecx        # 4-byte Reload
	movq	$-1, %rdi
	movabsq	$.L.str.48, %rsi
	movabsq	$.L.str.13, %rdx
	movabsq	$.L.str.37, %r8
	movl	$53, %r9d
	movl	%r9d, %r10d
	xorl	%r9d, %r9d
	movl	$1, %r11d
	.loc	1 27 7 is_stmt 1        # pp_scan.c:27:7
	movl	%ecx, -132(%rbp)        # 4-byte Spill
	movq	%r8, %rcx
	movq	%r10, %r8
	movl	$1, (%rsp)
	movq	%rax, -144(%rbp)        # 8-byte Spill
	movl	%r11d, -148(%rbp)       # 4-byte Spill
	callq	trace_logger_log0
	movl	$2, %r9d
	movl	%r9d, %edi
	movl	$32, %r9d
	movl	%r9d, %esi
	xorl	%r9d, %r9d
	movl	%r9d, %edx
	movl	$1, %r9d
	movl	%r9d, %eax
	movabsq	$.L.str.51, %r8
	movabsq	$.L.str.13, %rcx
	movq	%rcx, -160(%rbp)        # 8-byte Spill
	movq	%rax, %rcx
	movq	%rax, %r9
	movq	-160(%rbp), %rax        # 8-byte Reload
	movq	%rax, (%rsp)
	callq	trace_logger_log_int
	movl	$1, %r11d
	movl	%r11d, %eax
	movl	$32, %r11d
	movl	%r11d, %esi
	xorl	%r11d, %r11d
	movl	%r11d, %ecx
	movabsq	$.L.str.16, %r8
	movabsq	$.L.str.3, %rdx
	movq	%rax, %rdi
	movq	%rdx, -168(%rbp)        # 8-byte Spill
	movq	%rcx, %rdx
	movq	%rax, %r9
	movq	-168(%rbp), %rax        # 8-byte Reload
	movq	%rax, (%rsp)
	callq	trace_logger_log_int
	movl	$19134, %r11d           # imm = 0x4ABE
	movl	%r11d, %edi
	movl	$32, %r11d
	movl	%r11d, %esi
	movl	$1, %r11d
	movl	%r11d, %ecx
	movabsq	$.L.str.37, %r8
	xorl	%r11d, %r11d
	movl	%r11d, %r9d
	movabsq	$.L.str.3, %rax
	movl	-132(%rbp), %r11d       # 4-byte Reload
	movl	%r11d, %ebx
	movl	%ebx, %edx
	movq	%rax, (%rsp)
	callq	trace_logger_log_int
	movq	$-1, %rdi
	movabsq	$.L.str.48, %rsi
	movabsq	$.L.str.13, %rdx
	movabsq	$.L.str.14, %rcx
	movl	$53, %r11d
	movl	%r11d, %r8d
	xorl	%r9d, %r9d
	movl	$1, %r11d
	movl	$1, (%rsp)
	movl	%r11d, -172(%rbp)       # 4-byte Spill
	callq	trace_logger_log0
	movl	$2, %r9d
	movl	%r9d, %edi
	movl	$64, %r9d
	movl	%r9d, %esi
	xorl	%r9d, %r9d
	movl	%r9d, %edx
	movl	$1, %r9d
	movl	%r9d, %eax
	movabsq	$.L.str.15, %r8
	movabsq	$.L.str.13, %rcx
	movq	%rcx, -184(%rbp)        # 8-byte Spill
	movq	%rax, %rcx
	movq	%rax, %r9
	movq	-184(%rbp), %rax        # 8-byte Reload
	movq	%rax, (%rsp)
	callq	trace_logger_log_int
	movl	$1, %r11d
	movl	%r11d, %eax
	movl	$64, %r11d
	movl	%r11d, %esi
	xorl	%r11d, %r11d
	movl	%r11d, %ecx
	movabsq	$.L.str.16, %r8
	movabsq	$.L.str.3, %rdx
	movq	%rax, %rdi
	movq	%rdx, -192(%rbp)        # 8-byte Spill
	movq	%rax, %rdx
	movq	%rax, %r9
	movq	-192(%rbp), %rax        # 8-byte Reload
	movq	%rax, (%rsp)
	callq	trace_logger_log_int
	movl	$19134, %r11d           # imm = 0x4ABE
	movl	%r11d, %edi
	movl	$64, %r11d
	movl	%r11d, %esi
	movl	$1, %r11d
	movl	%r11d, %ecx
	movabsq	$.L.str.14, %r8
	xorl	%r11d, %r11d
	movl	%r11d, %r9d
	movabsq	$.L.str.3, %rax
	movq	-144(%rbp), %rdx        # 8-byte Reload
	movq	%rax, (%rsp)
	callq	trace_logger_log_int
	movl	$30, %r11d
	movl	%r11d, %edi
	movabsq	$.L.str.48, %rsi
	movabsq	$.L.str.13, %rdx
	movabsq	$.L.str.19, %rcx
	movl	$23, %r11d
	movl	%r11d, %r8d
	xorl	%r9d, %r9d
	movl	$1, %r11d
.Ltmp24:
	#DEBUG_VALUE: sum_scan:radixID <- [DW_OP_constu 144, DW_OP_minus] [%rbp+0]
	.loc	1 30 53                 # pp_scan.c:30:53
	movl	$1, (%rsp)
	movl	%r11d, -196(%rbp)       # 4-byte Spill
	callq	trace_logger_log0
	movl	$2, %r9d
	movl	%r9d, %edi
	movl	$64, %r9d
	movl	%r9d, %esi
	movl	$4, %r9d
	movl	%r9d, %edx
	xorl	%r9d, %r9d
	movl	%r9d, %eax
	movabsq	$.L.str.16, %r8
	movabsq	$.L.str.6, %rcx
	movq	%rcx, -208(%rbp)        # 8-byte Spill
	movq	%rax, %rcx
	movq	%rax, %r9
	movq	-208(%rbp), %rax        # 8-byte Reload
	movq	%rax, (%rsp)
	callq	trace_logger_log_int
	movl	$1, %r11d
	movl	%r11d, %eax
	movl	$64, %r11d
	movl	%r11d, %esi
	movabsq	$.L.str.14, %r8
	xorl	%r11d, %r11d
	movl	%r11d, %r9d
	movabsq	$.L.str.6, %rcx
	movq	%rax, %rdi
	movq	-144(%rbp), %rdx        # 8-byte Reload
	movq	%rcx, -216(%rbp)        # 8-byte Spill
	movq	%rax, %rcx
	movq	-216(%rbp), %rax        # 8-byte Reload
	movq	%rax, (%rsp)
	callq	trace_logger_log_int
	movl	$19134, %r11d           # imm = 0x4ABE
	movl	%r11d, %edi
	movl	$64, %r11d
	movl	%r11d, %esi
	movl	$1, %r11d
	movl	%r11d, %ecx
	movabsq	$.L.str.19, %r8
	xorl	%r11d, %r11d
	movl	%r11d, %r9d
	movabsq	$.L.str.6, %rax
	movq	-144(%rbp), %rdx        # 8-byte Reload
	shlq	$4, %rdx
	.loc	1 30 66 is_stmt 0       # pp_scan.c:30:66
	movq	%rdx, -224(%rbp)        # 8-byte Spill
	movq	%rax, (%rsp)
	callq	trace_logger_log_int
	movl	$30, %r11d
	movl	%r11d, %edi
	movabsq	$.L.str.48, %rsi
	movabsq	$.L.str.13, %rdx
	movabsq	$.L.str.33, %rcx
	movl	$11, %r11d
	movl	%r11d, %r8d
	xorl	%r9d, %r9d
	movl	$1, %r11d
	movl	$1, (%rsp)
	movl	%r11d, -228(%rbp)       # 4-byte Spill
	callq	trace_logger_log0
	movl	$2, %r9d
	movl	%r9d, %edi
	movl	$64, %r9d
	movl	%r9d, %esi
	movq	$-1, %rdx
	xorl	%r9d, %r9d
	movl	%r9d, %eax
	movabsq	$.L.str.16, %r8
	movabsq	$.L.str.6, %rcx
	movq	%rcx, -240(%rbp)        # 8-byte Spill
	movq	%rax, %rcx
	movq	%rax, %r9
	movq	-240(%rbp), %rax        # 8-byte Reload
	movq	%rax, (%rsp)
	callq	trace_logger_log_int
	movl	$1, %r11d
	movl	%r11d, %eax
	movl	$64, %r11d
	movl	%r11d, %esi
	movabsq	$.L.str.19, %r8
	xorl	%r11d, %r11d
	movl	%r11d, %r9d
	movabsq	$.L.str.6, %rcx
	movq	%rax, %rdi
	movq	-224(%rbp), %rdx        # 8-byte Reload
	movq	%rcx, -248(%rbp)        # 8-byte Spill
	movq	%rax, %rcx
	movq	-248(%rbp), %rax        # 8-byte Reload
	movq	%rax, (%rsp)
	callq	trace_logger_log_int
	movl	$19134, %r11d           # imm = 0x4ABE
	movl	%r11d, %edi
	movl	$64, %r11d
	movl	%r11d, %esi
	movl	$1, %r11d
	movl	%r11d, %ecx
	movabsq	$.L.str.33, %r8
	xorl	%r11d, %r11d
	movl	%r11d, %r9d
	movabsq	$.L.str.6, %rax
	movq	-224(%rbp), %rdx        # 8-byte Reload
	addq	$-1, %rdx
	.loc	1 30 38                 # pp_scan.c:30:38
	movq	%rdx, -256(%rbp)        # 8-byte Spill
	movq	%rax, (%rsp)
	callq	trace_logger_log_int
	movl	$30, %r11d
	movl	%r11d, %edi
	movabsq	$.L.str.48, %rsi
	movabsq	$.L.str.13, %rdx
	movabsq	$.L.str.52, %rcx
	movl	$32, %r11d
	movl	%r11d, %r8d
	xorl	%r9d, %r9d
	movl	$1, %r11d
	movl	$1, (%rsp)
	movl	%r11d, -260(%rbp)       # 4-byte Spill
	callq	trace_logger_log0
	movl	$2, %r9d
	movl	%r9d, %edi
	movl	$64, %r9d
	movl	%r9d, %esi
	movl	$1, %r9d
	movl	%r9d, %ecx
	movabsq	$.L.str.33, %r8
	xorl	%r9d, %r9d
                                        # kill: def %r9 killed %r9d
	movabsq	$.L.str.6, %rax
	movq	-256(%rbp), %rdx        # 8-byte Reload
	movq	%rax, (%rsp)
	callq	trace_logger_log_int
	movl	$1, %r11d
	movl	%r11d, %eax
	movl	$64, %r11d
	movl	%r11d, %esi
	movabsq	$.L.str.32, %r8
	xorl	%r11d, %r11d
	movl	%r11d, %r9d
	movabsq	$.L.str.6, %rcx
	movq	%rax, %rdi
	movq	-48(%rbp), %rdx         # 8-byte Reload
	movq	%rcx, -272(%rbp)        # 8-byte Spill
	movq	%rax, %rcx
	movq	-272(%rbp), %rax        # 8-byte Reload
	movq	%rax, (%rsp)
	callq	trace_logger_log_ptr
	movl	$19134, %r11d           # imm = 0x4ABE
	movl	%r11d, %edi
	movl	$64, %r11d
	movl	%r11d, %esi
	movl	$1, %r11d
	movl	%r11d, %ecx
	movabsq	$.L.str.52, %r8
	xorl	%r11d, %r11d
	movl	%r11d, %r9d
	movabsq	$.L.str.6, %rax
	movq	-256(%rbp), %rdx        # 8-byte Reload
	shlq	$2, %rdx
	movq	-48(%rbp), %r10         # 8-byte Reload
	addq	%rdx, %r10
	movq	%r10, %rdx
	movq	%rax, (%rsp)
	movq	%r10, -280(%rbp)        # 8-byte Spill
	callq	trace_logger_log_ptr
	movl	$30, %r11d
	movl	%r11d, %eax
	movabsq	$.L.str.48, %rsi
	movabsq	$.L.str.13, %rdx
	movabsq	$.L.str.53, %rcx
	xorl	%r9d, %r9d
	movl	$1, %r11d
	movq	%rax, %rdi
	movq	%rax, %r8
	movl	$1, (%rsp)
	movl	%r11d, -284(%rbp)       # 4-byte Spill
	callq	trace_logger_log0
	movl	$1, %r9d
	movl	%r9d, %eax
	movl	$64, %r9d
	movl	%r9d, %esi
	movabsq	$.L.str.52, %r8
	xorl	%r9d, %r9d
                                        # kill: def %r9 killed %r9d
	movabsq	$.L.str.6, %rcx
	movq	%rax, %rdi
	movq	-280(%rbp), %rdx        # 8-byte Reload
	movq	%rcx, -296(%rbp)        # 8-byte Spill
	movq	%rax, %rcx
	movq	-296(%rbp), %rax        # 8-byte Reload
	movq	%rax, (%rsp)
	callq	trace_logger_log_ptr
	movl	$19134, %r11d           # imm = 0x4ABE
	movl	%r11d, %edi
	movl	$32, %r11d
	movl	%r11d, %esi
	movl	$1, %r11d
	movl	%r11d, %ecx
	movabsq	$.L.str.53, %r8
	xorl	%r11d, %r11d
	movl	%r11d, %r9d
	movabsq	$.L.str.6, %rax
	movq	-48(%rbp), %rdx         # 8-byte Reload
	movq	-224(%rbp), %r10        # 8-byte Reload
	movl	-4(%rdx,%r10,4), %r11d
	.loc	1 30 36                 # pp_scan.c:30:36
	movl	%r11d, %ebx
	movl	%ebx, %edx
	movq	%rax, (%rsp)
	movl	%r11d, -300(%rbp)       # 4-byte Spill
	callq	trace_logger_log_int
	movl	$30, %r11d
	movl	%r11d, %edi
	movabsq	$.L.str.48, %rsi
	movabsq	$.L.str.13, %rdx
	movabsq	$.L.str.51, %rcx
	movl	$11, %r11d
	movl	%r11d, %r8d
	xorl	%r9d, %r9d
	movl	$1, %r11d
	movl	$1, (%rsp)
	movl	%r11d, -304(%rbp)       # 4-byte Spill
	callq	trace_logger_log0
	movl	$2, %r9d
	movl	%r9d, %edi
	movl	$32, %r9d
	movl	%r9d, %esi
	movl	$1, %r9d
	movl	%r9d, %ecx
	movabsq	$.L.str.37, %r8
	xorl	%r9d, %r9d
                                        # kill: def %r9 killed %r9d
	movabsq	$.L.str.6, %rax
	movl	-132(%rbp), %r11d       # 4-byte Reload
	movl	%r11d, %ebx
	movl	%ebx, %edx
	movq	%rax, (%rsp)
	callq	trace_logger_log_int
	movl	$1, %r11d
	movl	%r11d, %eax
	movl	$32, %r11d
	movl	%r11d, %esi
	movabsq	$.L.str.53, %r8
	xorl	%r11d, %r11d
	movl	%r11d, %r9d
	movabsq	$.L.str.6, %rcx
	movl	-300(%rbp), %r11d       # 4-byte Reload
	movl	%r11d, %ebx
	movl	%ebx, %edx
	movq	%rax, %rdi
	movq	%rcx, -312(%rbp)        # 8-byte Spill
	movq	%rax, %rcx
	movq	-312(%rbp), %rax        # 8-byte Reload
	movq	%rax, (%rsp)
	callq	trace_logger_log_int
	movl	$19134, %r11d           # imm = 0x4ABE
	movl	%r11d, %edi
	movl	$32, %r11d
	movl	%r11d, %esi
	movl	$1, %r11d
	movl	%r11d, %ecx
	movabsq	$.L.str.51, %r8
	xorl	%r11d, %r11d
	movl	%r11d, %r9d
	movabsq	$.L.str.6, %rax
	movl	-300(%rbp), %r11d       # 4-byte Reload
	movl	-132(%rbp), %ebx        # 4-byte Reload
	addl	%ebx, %r11d
	.loc	1 30 5                  # pp_scan.c:30:5
	movl	%r11d, %r14d
	movl	%r14d, %edx
	movq	%rax, (%rsp)
	movl	%r11d, -316(%rbp)       # 4-byte Spill
	callq	trace_logger_log_int
	movl	$30, %r11d
	movl	%r11d, %edi
	movabsq	$.L.str.48, %rsi
	movabsq	$.L.str.13, %rdx
	movabsq	$.L.str.54, %rcx
	movl	$32, %r11d
	movl	%r11d, %r8d
	xorl	%r9d, %r9d
	movl	$1, %r11d
	movl	$1, (%rsp)
	movl	%r11d, -320(%rbp)       # 4-byte Spill
	callq	trace_logger_log0
	movl	$2, %r9d
	movl	%r9d, %edi
	movl	$64, %r9d
	movl	%r9d, %esi
	movl	$1, %r9d
	movl	%r9d, %ecx
	movabsq	$.L.str.14, %r8
	xorl	%r9d, %r9d
                                        # kill: def %r9 killed %r9d
	movabsq	$.L.str.6, %rax
	movq	-144(%rbp), %rdx        # 8-byte Reload
	movq	%rax, (%rsp)
	callq	trace_logger_log_int
	movl	$1, %r11d
	movl	%r11d, %eax
	movl	$64, %r11d
	movl	%r11d, %esi
	movabsq	$.L.str.49, %r8
	xorl	%r11d, %r11d
	movl	%r11d, %r9d
	movabsq	$.L.str.6, %rcx
	movq	%rax, %rdi
	movq	-40(%rbp), %rdx         # 8-byte Reload
	movq	%rcx, -328(%rbp)        # 8-byte Spill
	movq	%rax, %rcx
	movq	-328(%rbp), %rax        # 8-byte Reload
	movq	%rax, (%rsp)
	callq	trace_logger_log_ptr
	movl	$19134, %r11d           # imm = 0x4ABE
	movl	%r11d, %edi
	movl	$64, %r11d
	movl	%r11d, %esi
	movl	$1, %r11d
	movl	%r11d, %ecx
	movabsq	$.L.str.54, %r8
	xorl	%r11d, %r11d
	movl	%r11d, %r9d
	movabsq	$.L.str.6, %rax
	movq	-144(%rbp), %rdx        # 8-byte Reload
	shlq	$2, %rdx
	movq	-40(%rbp), %r10         # 8-byte Reload
	addq	%rdx, %r10
	.loc	1 30 18                 # pp_scan.c:30:18
	movq	%r10, %rdx
	movq	%rax, (%rsp)
	movq	%r10, -336(%rbp)        # 8-byte Spill
	callq	trace_logger_log_ptr
	movl	$30, %r11d
	movl	%r11d, %edi
	movabsq	$.L.str.48, %rsi
	movabsq	$.L.str.13, %rdx
	movabsq	$.L.str.24, %rcx
	movl	$31, %r11d
	movl	%r11d, %r8d
	xorl	%r9d, %r9d
	movl	$1, %r11d
	movl	$1, (%rsp)
	movl	%r11d, -340(%rbp)       # 4-byte Spill
	callq	trace_logger_log0
	movl	$2, %r9d
	movl	%r9d, %edi
	movl	$64, %r9d
	movl	%r9d, %esi
	movl	$1, %r9d
	movl	%r9d, %ecx
	movabsq	$.L.str.54, %r8
	xorl	%r9d, %r9d
                                        # kill: def %r9 killed %r9d
	movabsq	$.L.str.6, %rax
	movq	-336(%rbp), %rdx        # 8-byte Reload
	movq	%rax, (%rsp)
	callq	trace_logger_log_ptr
	movl	$1, %r11d
	movl	%r11d, %eax
	movl	$32, %r11d
	movl	%r11d, %esi
	movabsq	$.L.str.51, %r8
	xorl	%r11d, %r11d
	movl	%r11d, %r9d
	movabsq	$.L.str.6, %rcx
	movl	-316(%rbp), %r11d       # 4-byte Reload
	movl	%r11d, %ebx
	movl	%ebx, %edx
	movq	%rax, %rdi
	movq	%rcx, -352(%rbp)        # 8-byte Spill
	movq	%rax, %rcx
	movq	-352(%rbp), %rax        # 8-byte Reload
	movq	%rax, (%rsp)
	callq	trace_logger_log_int
	movl	$29, %r11d
	movl	%r11d, %edi
	movabsq	$.L.str.48, %rsi
	movabsq	$.L.str.13, %rdx
	movabsq	$.L.str.15, %rcx
	movl	$11, %r11d
	movl	%r11d, %r8d
	xorl	%r9d, %r9d
	movl	$1, %r11d
	movq	-40(%rbp), %rax         # 8-byte Reload
	movq	-144(%rbp), %r10        # 8-byte Reload
	movl	-316(%rbp), %ebx        # 4-byte Reload
	movl	%ebx, (%rax,%r10,4)
	.loc	1 29 49 is_stmt 1       # pp_scan.c:29:49
	movl	$1, (%rsp)
	movl	%r11d, -356(%rbp)       # 4-byte Spill
	callq	trace_logger_log0
	movl	$2, %r9d
	movl	%r9d, %edi
	movl	$64, %r9d
	movl	%r9d, %esi
	movl	$1, %r9d
	movl	%r9d, %edx
	xorl	%r9d, %r9d
	movl	%r9d, %eax
	movabsq	$.L.str.16, %r8
	movabsq	$.L.str.6, %rcx
	movq	%rcx, -368(%rbp)        # 8-byte Spill
	movq	%rax, %rcx
	movq	%rax, %r9
	movq	-368(%rbp), %rax        # 8-byte Reload
	movq	%rax, (%rsp)
	callq	trace_logger_log_int
	movl	$1, %r11d
	movl	%r11d, %eax
	movl	$64, %r11d
	movl	%r11d, %esi
	movabsq	$.L.str.14, %r8
	xorl	%r11d, %r11d
	movl	%r11d, %r9d
	movabsq	$.L.str.6, %rcx
	movq	%rax, %rdi
	movq	-144(%rbp), %rdx        # 8-byte Reload
	movq	%rcx, -376(%rbp)        # 8-byte Spill
	movq	%rax, %rcx
	movq	-376(%rbp), %rax        # 8-byte Reload
	movq	%rax, (%rsp)
	callq	trace_logger_log_int
	movl	$19134, %r11d           # imm = 0x4ABE
	movl	%r11d, %edi
	movl	$64, %r11d
	movl	%r11d, %esi
	movl	$1, %r11d
	movl	%r11d, %ecx
	movabsq	$.L.str.15, %r8
	xorl	%r11d, %r11d
	movl	%r11d, %r9d
	movabsq	$.L.str.6, %rax
	movq	-144(%rbp), %rdx        # 8-byte Reload
	addq	$1, %rdx
	.loc	1 29 35 is_stmt 0       # pp_scan.c:29:35
	movq	%rdx, -384(%rbp)        # 8-byte Spill
	movq	%rax, (%rsp)
	callq	trace_logger_log_int
	movl	$29, %r11d
	movl	%r11d, %edi
	movabsq	$.L.str.48, %rsi
	movabsq	$.L.str.13, %rdx
	movabsq	$.L.str.23, %rcx
	movl	$51, %r11d
	movl	%r11d, %r8d
	xorl	%r9d, %r9d
	movl	$1, %r11d
	movl	$1, (%rsp)
	movl	%r11d, -388(%rbp)       # 4-byte Spill
	callq	trace_logger_log0
	movl	$2, %r9d
	movl	%r9d, %edi
	movl	$64, %r9d
	movl	%r9d, %esi
	movl	$128, %r9d
	movl	%r9d, %edx
	xorl	%r9d, %r9d
	movl	%r9d, %eax
	movabsq	$.L.str.16, %r8
	movabsq	$.L.str.6, %rcx
	movq	%rcx, -400(%rbp)        # 8-byte Spill
	movq	%rax, %rcx
	movq	%rax, %r9
	movq	-400(%rbp), %rax        # 8-byte Reload
	movq	%rax, (%rsp)
	callq	trace_logger_log_int
	movl	$1, %r11d
	movl	%r11d, %eax
	movl	$64, %r11d
	movl	%r11d, %esi
	movabsq	$.L.str.15, %r8
	xorl	%r11d, %r11d
	movl	%r11d, %r9d
	movabsq	$.L.str.6, %rcx
	movq	%rax, %rdi
	movq	-384(%rbp), %rdx        # 8-byte Reload
	movq	%rcx, -408(%rbp)        # 8-byte Spill
	movq	%rax, %rcx
	movq	-408(%rbp), %rax        # 8-byte Reload
	movq	%rax, (%rsp)
	callq	trace_logger_log_int
	movl	$19134, %r11d           # imm = 0x4ABE
	movl	%r11d, %edi
	movl	$1, %r11d
	movl	%r11d, %eax
	movabsq	$.L.str.23, %r8
	xorl	%r11d, %r11d
	movl	%r11d, %r9d
	movabsq	$.L.str.6, %rcx
	movq	-384(%rbp), %rdx        # 8-byte Reload
	cmpq	$128, %rdx
	sete	%r15b
.Ltmp25:
	.loc	1 29 9                  # pp_scan.c:29:9
	movb	%r15b, %r12b
	andb	$1, %r12b
	movzbl	%r12b, %r11d
	movl	%r11d, %edx
	movq	%rax, %rsi
	movq	%rcx, -416(%rbp)        # 8-byte Spill
	movq	%rax, %rcx
	movq	-416(%rbp), %rax        # 8-byte Reload
	movq	%rax, (%rsp)
	movb	%r15b, -417(%rbp)       # 1-byte Spill
	callq	trace_logger_log_int
	movl	$29, %r11d
	movl	%r11d, %edi
	movabsq	$.L.str.48, %rsi
	movabsq	$.L.str.13, %rdx
	movabsq	$.L.str.35, %rcx
	movl	$2, %r11d
	movl	%r11d, %r8d
	xorl	%r9d, %r9d
	movl	$1, %r11d
	movl	$1, (%rsp)
	movl	%r11d, -424(%rbp)       # 4-byte Spill
	callq	trace_logger_log0
	movl	$3, %r9d
	movl	%r9d, %edi
	xorl	%r9d, %r9d
	movl	%r9d, %eax
	movl	$1, %r9d
	movl	%r9d, %ecx
	movabsq	$.L.str.55, %r8
	movabsq	$.L.str.6, %rdx
	movq	%rax, %rsi
	movq	%rdx, -432(%rbp)        # 8-byte Spill
	movq	%rax, %rdx
	movq	%rax, %r9
	movq	-432(%rbp), %rax        # 8-byte Reload
	movq	%rax, (%rsp)
	callq	trace_logger_log_int
	movl	$2, %r11d
	movl	%r11d, %edi
	xorl	%r11d, %r11d
	movl	%r11d, %eax
	movl	$1, %r11d
	movl	%r11d, %ecx
	movabsq	$.L.str.13, %r8
	movabsq	$.L.str.6, %rdx
	movq	%rax, %rsi
	movq	%rdx, -440(%rbp)        # 8-byte Spill
	movq	%rax, %rdx
	movq	%rax, %r9
	movq	-440(%rbp), %rax        # 8-byte Reload
	movq	%rax, (%rsp)
	callq	trace_logger_log_int
	movl	$1, %r11d
	movl	%r11d, %eax
	movabsq	$.L.str.23, %r8
	xorl	%r11d, %r11d
	movl	%r11d, %r9d
	movabsq	$.L.str.6, %rcx
	movb	-417(%rbp), %r15b       # 1-byte Reload
	andb	$1, %r15b
	movzbl	%r15b, %r11d
	movl	%r11d, %edx
	movq	%rax, %rdi
	movq	%rax, %rsi
	movq	%rcx, -448(%rbp)        # 8-byte Spill
	movq	%rax, %rcx
	movq	-448(%rbp), %rax        # 8-byte Reload
	movq	%rax, (%rsp)
	callq	trace_logger_log_int
	movb	-417(%rbp), %r15b       # 1-byte Reload
	testb	$1, %r15b
	movl	-316(%rbp), %r11d       # 4-byte Reload
	movq	-384(%rbp), %rax        # 8-byte Reload
	movl	%r11d, -116(%rbp)       # 4-byte Spill
	movq	%rax, -128(%rbp)        # 8-byte Spill
	jne	.LBB2_2
	jmp	.LBB2_1
.Ltmp26:
.LBB2_2:
	#DEBUG_VALUE: sum_scan:radixID <- [DW_OP_constu 144, DW_OP_minus] [%rbp+0]
	#DEBUG_VALUE: sum_scan:bucket <- [DW_OP_constu 48, DW_OP_minus] [%rbp+0]
	#DEBUG_VALUE: sum_scan:sum <- [DW_OP_constu 40, DW_OP_minus] [%rbp+0]
	.loc	1 0 9                   # pp_scan.c:0:9
	movl	$31, %eax
	movl	%eax, %edi
	movabsq	$.L.str.48, %rsi
	movabsq	$.L.str.55, %rdx
	movabsq	$.L.str.56, %rcx
	movl	$1, %eax
	movl	%eax, %r8d
	xorl	%r9d, %r9d
	movl	$1, %eax
	.loc	1 31 1 is_stmt 1        # pp_scan.c:31:1
	movl	$1, (%rsp)
	movl	%eax, -452(%rbp)        # 4-byte Spill
	callq	trace_logger_log0
	movabsq	$.L.str.48, %rdi
	movl	$1, %eax
	movl	%eax, %esi
	xorl	%edx, %edx
	movl	$1, %ecx
	callq	trace_logger_update_status
	addq	$432, %rsp              # imm = 0x1B0
	popq	%rbx
	popq	%r12
	popq	%r14
	popq	%r15
	popq	%rbp
	retq
.Ltmp27:
.Lfunc_end2:
	.size	sum_scan, .Lfunc_end2-sum_scan
	.cfi_endproc
                                        # -- End function
	.globl	last_step_scan          # -- Begin function last_step_scan
	.p2align	4, 0x90
	.type	last_step_scan,@function
last_step_scan:                         # @last_step_scan
.Lfunc_begin3:
	.loc	1 34 0                  # pp_scan.c:34:0
	.cfi_startproc
# %bb.0:
	pushq	%rbp
	.cfi_def_cfa_offset 16
	.cfi_offset %rbp, -16
	movq	%rsp, %rbp
	.cfi_def_cfa_register %rbp
	pushq	%r15
	pushq	%r14
	pushq	%r12
	pushq	%rbx
	subq	$624, %rsp              # imm = 0x270
	.cfi_offset %rbx, -48
	.cfi_offset %r12, -40
	.cfi_offset %r14, -32
	.cfi_offset %r15, -24
	movl	$24601, %eax            # imm = 0x6019
	movl	%eax, %ecx
	movl	$64, %eax
	movl	%eax, %r8d
	movl	$1, %eax
	movl	%eax, %r9d
	movabsq	$.L.str.32, %r10
	xorl	%eax, %eax
	movl	%eax, %r11d
	movabsq	$.L.str.6, %rbx
.Ltmp28:
	.loc	1 33 25 prologue_end    # pp_scan.c:33:25
	movq	%rdi, -40(%rbp)         # 8-byte Spill
	movq	%rcx, %rdi
	movq	%rsi, -48(%rbp)         # 8-byte Spill
	movq	%r8, %rsi
	movq	-40(%rbp), %rcx         # 8-byte Reload
	movq	%rdx, -56(%rbp)         # 8-byte Spill
	movq	%rcx, %rdx
	movq	%r9, %rcx
	movq	%r10, %r8
	movq	%r11, %r9
	movq	%rbx, (%rsp)
	callq	trace_logger_log_ptr
	movl	$24601, %eax            # imm = 0x6019
	movl	%eax, %edi
	movl	$64, %eax
	movl	%eax, %esi
	movl	$1, %eax
	movl	%eax, %ecx
	movabsq	$.L.str.64, %r8
	xorl	%eax, %eax
	movl	%eax, %r9d
	movabsq	$.L.str.6, %rdx
	movq	-48(%rbp), %r10         # 8-byte Reload
	movq	%rdx, -64(%rbp)         # 8-byte Spill
	movq	%r10, %rdx
	movq	-64(%rbp), %r11         # 8-byte Reload
	movq	%r11, (%rsp)
	callq	trace_logger_log_ptr
	movl	$24601, %eax            # imm = 0x6019
	movl	%eax, %edi
	movl	$64, %eax
	movl	%eax, %esi
	movl	$1, %eax
	movl	%eax, %ecx
	movabsq	$.L.str.49, %r8
	xorl	%eax, %eax
	movl	%eax, %r9d
	movabsq	$.L.str.6, %rdx
	movq	-56(%rbp), %r10         # 8-byte Reload
	movq	%rdx, -72(%rbp)         # 8-byte Spill
	movq	%r10, %rdx
	movq	-72(%rbp), %r11         # 8-byte Reload
	movq	%r11, (%rsp)
	callq	trace_logger_log_ptr
	movl	$36, %eax
	movl	%eax, %edi
	movabsq	$.L.str.57, %rsi
	movabsq	$.L.str.3, %rdx
	movabsq	$.L.str.50, %rcx
	movl	$2, %eax
	movl	%eax, %r8d
	xorl	%r9d, %r9d
	movl	$1, %eax
	#DEBUG_VALUE: last_step_scan:bucket <- [DW_OP_constu 40, DW_OP_minus] [%rbp+0]
	#DEBUG_VALUE: last_step_scan:bucket2 <- [DW_OP_constu 48, DW_OP_minus] [%rbp+0]
	#DEBUG_VALUE: last_step_scan:sum <- [DW_OP_constu 56, DW_OP_minus] [%rbp+0]
.Ltmp29:
	#DEBUG_VALUE: last_step_scan:radixID <- 0
	.loc	1 36 15                 # pp_scan.c:36:15
	movl	$1, (%rsp)
	movl	%eax, -76(%rbp)         # 4-byte Spill
	callq	trace_logger_log0
	movl	$1, %eax
	movl	%eax, %ecx
	xorl	%eax, %eax
	movl	%eax, %edx
	movabsq	$.L.str.13, %r8
	movabsq	$.L.str.6, %rsi
	movq	%rcx, %rdi
	movq	%rsi, -88(%rbp)         # 8-byte Spill
	movq	%rdx, %rsi
	movq	%rdx, -96(%rbp)         # 8-byte Spill
	movq	-96(%rbp), %r9          # 8-byte Reload
	movq	-88(%rbp), %r10         # 8-byte Reload
	movq	%r10, (%rsp)
	callq	trace_logger_log_int
	xorl	%eax, %eax
	movl	%eax, %ecx
	movq	%rcx, -104(%rbp)        # 8-byte Spill
.Ltmp30:
.LBB3_1:                                # =>This Loop Header: Depth=1
                                        #     Child Loop BB3_2 Depth 2
	#DEBUG_VALUE: last_step_scan:sum <- [DW_OP_constu 56, DW_OP_minus] [%rbp+0]
	#DEBUG_VALUE: last_step_scan:bucket2 <- [DW_OP_constu 48, DW_OP_minus] [%rbp+0]
	#DEBUG_VALUE: last_step_scan:bucket <- [DW_OP_constu 40, DW_OP_minus] [%rbp+0]
	.loc	1 0 15 is_stmt 0        # pp_scan.c:0:15
	movq	-104(%rbp), %rax        # 8-byte Reload
	movq	$-1, %rdi
	movabsq	$.L.str.57, %rsi
	movabsq	$.L.str.13, %rdx
	movabsq	$.L.str.58, %rcx
	movl	$53, %r8d
                                        # kill: def %r8 killed %r8d
	xorl	%r9d, %r9d
	movl	$1, %r10d
	.loc	1 35 16 is_stmt 1       # pp_scan.c:35:16
	movl	$1, (%rsp)
	movq	%rax, -112(%rbp)        # 8-byte Spill
	movl	%r10d, -116(%rbp)       # 4-byte Spill
	callq	trace_logger_log0
	movl	$2, %r9d
	movl	%r9d, %edi
	movl	$64, %r9d
	movl	%r9d, %esi
	xorl	%r9d, %r9d
	movl	%r9d, %edx
	movl	$1, %r9d
	movl	%r9d, %eax
	movabsq	$.L.str.59, %r8
	movabsq	$.L.str.30, %rcx
	movq	%rcx, -128(%rbp)        # 8-byte Spill
	movq	%rax, %rcx
	movq	%rax, %r9
	movq	-128(%rbp), %rax        # 8-byte Reload
	movq	%rax, (%rsp)
	callq	trace_logger_log_int
	movl	$1, %r10d
	movl	%r10d, %eax
	movl	$64, %r10d
	movl	%r10d, %esi
	xorl	%r10d, %r10d
	movl	%r10d, %ecx
	movabsq	$.L.str.16, %r8
	movabsq	$.L.str.3, %rdx
	movq	%rax, %rdi
	movq	%rdx, -136(%rbp)        # 8-byte Spill
	movq	%rcx, %rdx
	movq	%rax, %r9
	movq	-136(%rbp), %rax        # 8-byte Reload
	movq	%rax, (%rsp)
	callq	trace_logger_log_int
	movl	$19134, %r10d           # imm = 0x4ABE
	movl	%r10d, %edi
	movl	$64, %r10d
	movl	%r10d, %esi
	movl	$1, %r10d
	movl	%r10d, %ecx
	movabsq	$.L.str.58, %r8
	xorl	%r10d, %r10d
	movl	%r10d, %r9d
	movabsq	$.L.str.3, %rax
	movq	-112(%rbp), %rdx        # 8-byte Reload
	movq	%rax, (%rsp)
	callq	trace_logger_log_int
	movq	$-1, %rdi
	movabsq	$.L.str.57, %rsi
	movabsq	$.L.str.13, %rdx
	movabsq	$.L.str.19, %rcx
	movl	$23, %r10d
	movl	%r10d, %r8d
	xorl	%r9d, %r9d
	movl	$1, %r10d
.Ltmp31:
	#DEBUG_VALUE: last_step_scan:i <- 0
	#DEBUG_VALUE: last_step_scan:radixID <- [DW_OP_constu 112, DW_OP_minus] [%rbp+0]
	.loc	1 0 16 is_stmt 0        # pp_scan.c:0:16
	movl	$1, (%rsp)
	movl	%r10d, -140(%rbp)       # 4-byte Spill
	callq	trace_logger_log0
	movl	$2, %r9d
	movl	%r9d, %edi
	movl	$64, %r9d
	movl	%r9d, %esi
	movl	$4, %r9d
	movl	%r9d, %edx
	xorl	%r9d, %r9d
	movl	%r9d, %eax
	movabsq	$.L.str.16, %r8
	movabsq	$.L.str.6, %rcx
	movq	%rcx, -152(%rbp)        # 8-byte Spill
	movq	%rax, %rcx
	movq	%rax, %r9
	movq	-152(%rbp), %rax        # 8-byte Reload
	movq	%rax, (%rsp)
	callq	trace_logger_log_int
	movl	$1, %r10d
	movl	%r10d, %eax
	movl	$64, %r10d
	movl	%r10d, %esi
	movabsq	$.L.str.58, %r8
	xorl	%r10d, %r10d
	movl	%r10d, %r9d
	movabsq	$.L.str.6, %rcx
	movq	%rax, %rdi
	movq	-112(%rbp), %rdx        # 8-byte Reload
	movq	%rcx, -160(%rbp)        # 8-byte Spill
	movq	%rax, %rcx
	movq	-160(%rbp), %rax        # 8-byte Reload
	movq	%rax, (%rsp)
	callq	trace_logger_log_int
	movl	$19134, %r10d           # imm = 0x4ABE
	movl	%r10d, %edi
	movl	$64, %r10d
	movl	%r10d, %esi
	movl	$1, %r10d
	movl	%r10d, %ecx
	movabsq	$.L.str.19, %r8
	xorl	%r10d, %r10d
	movl	%r10d, %r9d
	movabsq	$.L.str.6, %rax
	movq	-112(%rbp), %rdx        # 8-byte Reload
	shlq	$4, %rdx
	movq	%rdx, -168(%rbp)        # 8-byte Spill
	movq	%rax, (%rsp)
	callq	trace_logger_log_int
	movq	$-1, %rdi
	movabsq	$.L.str.57, %rsi
	movabsq	$.L.str.13, %rdx
	movabsq	$.L.str.60, %rcx
	movl	$32, %r10d
	movl	%r10d, %r8d
	xorl	%r9d, %r9d
	movl	$1, %r10d
	movl	$1, (%rsp)
	movl	%r10d, -172(%rbp)       # 4-byte Spill
	callq	trace_logger_log0
	movl	$2, %r9d
	movl	%r9d, %edi
	movl	$64, %r9d
	movl	%r9d, %esi
	movl	$1, %r9d
	movl	%r9d, %ecx
	movabsq	$.L.str.58, %r8
	xorl	%r9d, %r9d
                                        # kill: def %r9 killed %r9d
	movabsq	$.L.str.6, %rax
	movq	-112(%rbp), %rdx        # 8-byte Reload
	movq	%rax, (%rsp)
	callq	trace_logger_log_int
	movl	$1, %r10d
	movl	%r10d, %eax
	movl	$64, %r10d
	movl	%r10d, %esi
	movabsq	$.L.str.49, %r8
	xorl	%r10d, %r10d
	movl	%r10d, %r9d
	movabsq	$.L.str.6, %rcx
	movq	%rax, %rdi
	movq	-56(%rbp), %rdx         # 8-byte Reload
	movq	%rcx, -184(%rbp)        # 8-byte Spill
	movq	%rax, %rcx
	movq	-184(%rbp), %rax        # 8-byte Reload
	movq	%rax, (%rsp)
	callq	trace_logger_log_ptr
	movl	$19134, %r10d           # imm = 0x4ABE
	movl	%r10d, %edi
	movl	$64, %r10d
	movl	%r10d, %esi
	movl	$1, %r10d
	movl	%r10d, %ecx
	movabsq	$.L.str.60, %r8
	xorl	%r10d, %r10d
	movl	%r10d, %r9d
	movabsq	$.L.str.6, %rax
	movq	-112(%rbp), %rdx        # 8-byte Reload
	shlq	$2, %rdx
	movq	-56(%rbp), %r11         # 8-byte Reload
	addq	%rdx, %r11
.Ltmp32:
	.loc	1 37 17 is_stmt 1       # pp_scan.c:37:17
	movq	%r11, %rdx
	movq	%rax, (%rsp)
	movq	%r11, -192(%rbp)        # 8-byte Spill
	callq	trace_logger_log_ptr
	movl	$37, %r10d
	movl	%r10d, %edi
	movabsq	$.L.str.57, %rsi
	movabsq	$.L.str.13, %rdx
	movabsq	$.L.str.35, %rcx
	movl	$2, %r10d
	movl	%r10d, %r8d
	xorl	%r9d, %r9d
	movl	$1, %r10d
	movl	$1, (%rsp)
	movl	%r10d, -196(%rbp)       # 4-byte Spill
	callq	trace_logger_log0
	movl	$1, %r9d
	movl	%r9d, %eax
	xorl	%r9d, %r9d
	movl	%r9d, %ecx
	movabsq	$.L.str.61, %r8
	movabsq	$.L.str.6, %rdx
	movq	%rax, %rdi
	movq	%rcx, %rsi
	movq	%rdx, -208(%rbp)        # 8-byte Spill
	movq	%rcx, %rdx
	movq	%rcx, -216(%rbp)        # 8-byte Spill
	movq	%rax, %rcx
	movq	-216(%rbp), %r9         # 8-byte Reload
	movq	-208(%rbp), %rax        # 8-byte Reload
	movq	%rax, (%rsp)
	callq	trace_logger_log_int
	xorl	%r10d, %r10d
	movl	%r10d, %eax
	movq	%rax, -224(%rbp)        # 8-byte Spill
.Ltmp33:
.LBB3_2:                                #   Parent Loop BB3_1 Depth=1
                                        # =>  This Inner Loop Header: Depth=2
	#DEBUG_VALUE: last_step_scan:radixID <- [DW_OP_constu 112, DW_OP_minus] [%rbp+0]
	#DEBUG_VALUE: last_step_scan:sum <- [DW_OP_constu 56, DW_OP_minus] [%rbp+0]
	#DEBUG_VALUE: last_step_scan:bucket2 <- [DW_OP_constu 48, DW_OP_minus] [%rbp+0]
	#DEBUG_VALUE: last_step_scan:bucket <- [DW_OP_constu 40, DW_OP_minus] [%rbp+0]
	.loc	1 0 17 is_stmt 0        # pp_scan.c:0:17
	movq	-224(%rbp), %rax        # 8-byte Reload
	movq	$-1, %rdi
	movabsq	$.L.str.57, %rsi
	movabsq	$.L.str.61, %rdx
	movabsq	$.L.str.14, %rcx
	movl	$53, %r8d
                                        # kill: def %r8 killed %r8d
	xorl	%r9d, %r9d
	movl	$1, %r10d
	.loc	1 35 16 is_stmt 1       # pp_scan.c:35:16
	movl	$1, (%rsp)
	movq	%rax, -232(%rbp)        # 8-byte Spill
	movl	%r10d, -236(%rbp)       # 4-byte Spill
	callq	trace_logger_log0
	movl	$2, %r9d
	movl	%r9d, %edi
	movl	$64, %r9d
	movl	%r9d, %esi
	xorl	%r9d, %r9d
	movl	%r9d, %edx
	movl	$1, %r9d
	movl	%r9d, %eax
	movabsq	$.L.str.15, %r8
	movabsq	$.L.str.61, %rcx
	movq	%rcx, -248(%rbp)        # 8-byte Spill
	movq	%rax, %rcx
	movq	%rax, %r9
	movq	-248(%rbp), %rax        # 8-byte Reload
	movq	%rax, (%rsp)
	callq	trace_logger_log_int
	movl	$1, %r10d
	movl	%r10d, %eax
	movl	$64, %r10d
	movl	%r10d, %esi
	xorl	%r10d, %r10d
	movl	%r10d, %ecx
	movabsq	$.L.str.16, %r8
	movabsq	$.L.str.13, %rdx
	movq	%rax, %rdi
	movq	%rdx, -256(%rbp)        # 8-byte Spill
	movq	%rcx, %rdx
	movq	%rax, %r9
	movq	-256(%rbp), %rax        # 8-byte Reload
	movq	%rax, (%rsp)
	callq	trace_logger_log_int
	movl	$19134, %r10d           # imm = 0x4ABE
	movl	%r10d, %edi
	movl	$64, %r10d
	movl	%r10d, %esi
	movl	$1, %r10d
	movl	%r10d, %ecx
	movabsq	$.L.str.14, %r8
	xorl	%r10d, %r10d
	movl	%r10d, %r9d
	movabsq	$.L.str.13, %rax
	movq	-232(%rbp), %rdx        # 8-byte Reload
	movq	%rax, (%rsp)
	callq	trace_logger_log_int
	movl	$40, %r10d
	movl	%r10d, %edi
	movabsq	$.L.str.57, %rsi
	movabsq	$.L.str.61, %rdx
	movabsq	$.L.str.53, %rcx
	movl	$11, %r10d
	movl	%r10d, %r8d
	xorl	%r9d, %r9d
	movl	$1, %r10d
.Ltmp34:
	#DEBUG_VALUE: last_step_scan:i <- [DW_OP_constu 232, DW_OP_minus] [%rbp+0]
	.loc	1 40 37                 # pp_scan.c:40:37
	movl	$1, (%rsp)
	movl	%r10d, -260(%rbp)       # 4-byte Spill
	callq	trace_logger_log0
	movl	$2, %r9d
	movl	%r9d, %edi
	movl	$64, %r9d
	movl	%r9d, %esi
	movl	$1, %r9d
	movl	%r9d, %ecx
	movabsq	$.L.str.19, %r8
	xorl	%r9d, %r9d
                                        # kill: def %r9 killed %r9d
	movabsq	$.L.str.6, %rax
	movq	-168(%rbp), %rdx        # 8-byte Reload
	movq	%rax, (%rsp)
	callq	trace_logger_log_int
	movl	$1, %r10d
	movl	%r10d, %eax
	movl	$64, %r10d
	movl	%r10d, %esi
	movabsq	$.L.str.14, %r8
	xorl	%r10d, %r10d
	movl	%r10d, %r9d
	movabsq	$.L.str.6, %rcx
	movq	%rax, %rdi
	movq	-232(%rbp), %rdx        # 8-byte Reload
	movq	%rcx, -272(%rbp)        # 8-byte Spill
	movq	%rax, %rcx
	movq	-272(%rbp), %rax        # 8-byte Reload
	movq	%rax, (%rsp)
	callq	trace_logger_log_int
	movl	$19134, %r10d           # imm = 0x4ABE
	movl	%r10d, %edi
	movl	$64, %r10d
	movl	%r10d, %esi
	movl	$1, %r10d
	movl	%r10d, %ecx
	movabsq	$.L.str.53, %r8
	xorl	%r10d, %r10d
	movl	%r10d, %r9d
	movabsq	$.L.str.6, %rax
	movq	-232(%rbp), %rdx        # 8-byte Reload
	movq	-168(%rbp), %r11        # 8-byte Reload
	addq	%r11, %rdx
	.loc	1 40 9 is_stmt 0        # pp_scan.c:40:9
	movq	%rdx, -280(%rbp)        # 8-byte Spill
	movq	%rax, (%rsp)
	callq	trace_logger_log_int
	movl	$40, %r10d
	movl	%r10d, %edi
	movabsq	$.L.str.57, %rsi
	movabsq	$.L.str.61, %rdx
	movabsq	$.L.str.17, %rcx
	movl	$32, %r10d
	movl	%r10d, %r8d
	xorl	%r9d, %r9d
	movl	$1, %r10d
	movl	$1, (%rsp)
	movl	%r10d, -284(%rbp)       # 4-byte Spill
	callq	trace_logger_log0
	movl	$2, %r9d
	movl	%r9d, %edi
	movl	$64, %r9d
	movl	%r9d, %esi
	movl	$1, %r9d
	movl	%r9d, %ecx
	movabsq	$.L.str.53, %r8
	xorl	%r9d, %r9d
                                        # kill: def %r9 killed %r9d
	movabsq	$.L.str.6, %rax
	movq	-280(%rbp), %rdx        # 8-byte Reload
	movq	%rax, (%rsp)
	callq	trace_logger_log_int
	movl	$1, %r10d
	movl	%r10d, %eax
	movl	$64, %r10d
	movl	%r10d, %esi
	movabsq	$.L.str.32, %r8
	xorl	%r10d, %r10d
	movl	%r10d, %r9d
	movabsq	$.L.str.6, %rcx
	movq	%rax, %rdi
	movq	-40(%rbp), %rdx         # 8-byte Reload
	movq	%rcx, -296(%rbp)        # 8-byte Spill
	movq	%rax, %rcx
	movq	-296(%rbp), %rax        # 8-byte Reload
	movq	%rax, (%rsp)
	callq	trace_logger_log_ptr
	movl	$19134, %r10d           # imm = 0x4ABE
	movl	%r10d, %edi
	movl	$64, %r10d
	movl	%r10d, %esi
	movl	$1, %r10d
	movl	%r10d, %ecx
	movabsq	$.L.str.17, %r8
	xorl	%r10d, %r10d
	movl	%r10d, %r9d
	movabsq	$.L.str.6, %rax
	movq	-280(%rbp), %rdx        # 8-byte Reload
	shlq	$2, %rdx
	movq	-40(%rbp), %r11         # 8-byte Reload
	addq	%rdx, %r11
	movq	%r11, %rdx
	movq	%rax, (%rsp)
	movq	%r11, -304(%rbp)        # 8-byte Spill
	callq	trace_logger_log_ptr
	movl	$40, %r10d
	movl	%r10d, %edi
	movabsq	$.L.str.57, %rsi
	movabsq	$.L.str.61, %rdx
	movabsq	$.L.str.39, %rcx
	movl	$30, %r10d
	movl	%r10d, %r8d
	xorl	%r9d, %r9d
	movl	$1, %r10d
	movl	$1, (%rsp)
	movl	%r10d, -308(%rbp)       # 4-byte Spill
	callq	trace_logger_log0
	movl	$1, %r9d
	movl	%r9d, %eax
	movl	$64, %r9d
	movl	%r9d, %esi
	movabsq	$.L.str.17, %r8
	xorl	%r9d, %r9d
                                        # kill: def %r9 killed %r9d
	movabsq	$.L.str.6, %rcx
	movq	%rax, %rdi
	movq	-304(%rbp), %rdx        # 8-byte Reload
	movq	%rcx, -320(%rbp)        # 8-byte Spill
	movq	%rax, %rcx
	movq	-320(%rbp), %rax        # 8-byte Reload
	movq	%rax, (%rsp)
	callq	trace_logger_log_ptr
	movl	$19134, %r10d           # imm = 0x4ABE
	movl	%r10d, %edi
	movl	$32, %r10d
	movl	%r10d, %esi
	movl	$1, %r10d
	movl	%r10d, %ecx
	movabsq	$.L.str.39, %r8
	xorl	%r10d, %r10d
	movl	%r10d, %r9d
	movabsq	$.L.str.6, %rax
	movq	-40(%rbp), %rdx         # 8-byte Reload
	movq	-280(%rbp), %r11        # 8-byte Reload
	movl	(%rdx,%r11,4), %r10d
	.loc	1 40 45                 # pp_scan.c:40:45
	movl	%r10d, %ebx
	movl	%ebx, %edx
	movq	%rax, (%rsp)
	movl	%r10d, -324(%rbp)       # 4-byte Spill
	callq	trace_logger_log_int
	movl	$40, %r10d
	movl	%r10d, %edi
	movabsq	$.L.str.57, %rsi
	movabsq	$.L.str.61, %rdx
	movabsq	$.L.str.41, %rcx
	movl	$30, %r10d
	movl	%r10d, %r8d
	xorl	%r9d, %r9d
	movl	$1, %r10d
	movl	$1, (%rsp)
	movl	%r10d, -328(%rbp)       # 4-byte Spill
	callq	trace_logger_log0
	movl	$1, %r9d
	movl	%r9d, %eax
	movl	$64, %r9d
	movl	%r9d, %esi
	movabsq	$.L.str.60, %r8
	xorl	%r9d, %r9d
                                        # kill: def %r9 killed %r9d
	movabsq	$.L.str.6, %rcx
	movq	%rax, %rdi
	movq	-192(%rbp), %rdx        # 8-byte Reload
	movq	%rcx, -336(%rbp)        # 8-byte Spill
	movq	%rax, %rcx
	movq	-336(%rbp), %rax        # 8-byte Reload
	movq	%rax, (%rsp)
	callq	trace_logger_log_ptr
	movl	$19134, %r10d           # imm = 0x4ABE
	movl	%r10d, %edi
	movl	$32, %r10d
	movl	%r10d, %esi
	movl	$1, %r10d
	movl	%r10d, %ecx
	movabsq	$.L.str.41, %r8
	xorl	%r10d, %r10d
	movl	%r10d, %r9d
	movabsq	$.L.str.6, %rax
	movq	-192(%rbp), %rdx        # 8-byte Reload
	movl	(%rdx), %r10d
	.loc	1 40 43                 # pp_scan.c:40:43
	movl	%r10d, %ebx
	movl	%ebx, %edx
	movq	%rax, (%rsp)
	movl	%r10d, -340(%rbp)       # 4-byte Spill
	callq	trace_logger_log_int
	movl	$40, %r10d
	movl	%r10d, %edi
	movabsq	$.L.str.57, %rsi
	movabsq	$.L.str.61, %rdx
	movabsq	$.L.str.62, %rcx
	movl	$11, %r10d
	movl	%r10d, %r8d
	xorl	%r9d, %r9d
	movl	$1, %r10d
	movl	$1, (%rsp)
	movl	%r10d, -344(%rbp)       # 4-byte Spill
	callq	trace_logger_log0
	movl	$2, %r9d
	movl	%r9d, %edi
	movl	$32, %r9d
	movl	%r9d, %esi
	movl	$1, %r9d
	movl	%r9d, %ecx
	movabsq	$.L.str.39, %r8
	xorl	%r9d, %r9d
                                        # kill: def %r9 killed %r9d
	movabsq	$.L.str.6, %rax
	movl	-324(%rbp), %r10d       # 4-byte Reload
	movl	%r10d, %ebx
	movl	%ebx, %edx
	movq	%rax, (%rsp)
	callq	trace_logger_log_int
	movl	$1, %r10d
	movl	%r10d, %eax
	movl	$32, %r10d
	movl	%r10d, %esi
	movabsq	$.L.str.41, %r8
	xorl	%r10d, %r10d
	movl	%r10d, %r9d
	movabsq	$.L.str.6, %rcx
	movl	-340(%rbp), %r10d       # 4-byte Reload
	movl	%r10d, %ebx
	movl	%ebx, %edx
	movq	%rax, %rdi
	movq	%rcx, -352(%rbp)        # 8-byte Spill
	movq	%rax, %rcx
	movq	-352(%rbp), %rax        # 8-byte Reload
	movq	%rax, (%rsp)
	callq	trace_logger_log_int
	movl	$19134, %r10d           # imm = 0x4ABE
	movl	%r10d, %edi
	movl	$32, %r10d
	movl	%r10d, %esi
	movl	$1, %r10d
	movl	%r10d, %ecx
	movabsq	$.L.str.62, %r8
	xorl	%r10d, %r10d
	movl	%r10d, %r9d
	movabsq	$.L.str.6, %rax
	movl	-340(%rbp), %r10d       # 4-byte Reload
	movl	-324(%rbp), %ebx        # 4-byte Reload
	addl	%ebx, %r10d
	.loc	1 39 7 is_stmt 1        # pp_scan.c:39:7
	movl	%r10d, %r14d
	movl	%r14d, %edx
	movq	%rax, (%rsp)
	movl	%r10d, -356(%rbp)       # 4-byte Spill
	callq	trace_logger_log_int
	movl	$39, %r10d
	movl	%r10d, %edi
	movabsq	$.L.str.57, %rsi
	movabsq	$.L.str.61, %rdx
	movabsq	$.L.str.63, %rcx
	movl	$32, %r10d
	movl	%r10d, %r8d
	xorl	%r9d, %r9d
	movl	$1, %r10d
	movl	$1, (%rsp)
	movl	%r10d, -360(%rbp)       # 4-byte Spill
	callq	trace_logger_log0
	movl	$2, %r9d
	movl	%r9d, %edi
	movl	$64, %r9d
	movl	%r9d, %esi
	movl	$1, %r9d
	movl	%r9d, %ecx
	movabsq	$.L.str.53, %r8
	xorl	%r9d, %r9d
                                        # kill: def %r9 killed %r9d
	movabsq	$.L.str.6, %rax
	movq	-280(%rbp), %rdx        # 8-byte Reload
	movq	%rax, (%rsp)
	callq	trace_logger_log_int
	movl	$1, %r10d
	movl	%r10d, %eax
	movl	$64, %r10d
	movl	%r10d, %esi
	movabsq	$.L.str.64, %r8
	xorl	%r10d, %r10d
	movl	%r10d, %r9d
	movabsq	$.L.str.6, %rcx
	movq	%rax, %rdi
	movq	-48(%rbp), %rdx         # 8-byte Reload
	movq	%rcx, -368(%rbp)        # 8-byte Spill
	movq	%rax, %rcx
	movq	-368(%rbp), %rax        # 8-byte Reload
	movq	%rax, (%rsp)
	callq	trace_logger_log_ptr
	movl	$19134, %r10d           # imm = 0x4ABE
	movl	%r10d, %edi
	movl	$64, %r10d
	movl	%r10d, %esi
	movl	$1, %r10d
	movl	%r10d, %ecx
	movabsq	$.L.str.63, %r8
	xorl	%r10d, %r10d
	movl	%r10d, %r9d
	movabsq	$.L.str.6, %rax
	movq	-280(%rbp), %rdx        # 8-byte Reload
	shlq	$2, %rdx
	movq	-48(%rbp), %r11         # 8-byte Reload
	addq	%rdx, %r11
	.loc	1 39 41 is_stmt 0       # pp_scan.c:39:41
	movq	%r11, %rdx
	movq	%rax, (%rsp)
	movq	%r11, -376(%rbp)        # 8-byte Spill
	callq	trace_logger_log_ptr
	movl	$39, %r10d
	movl	%r10d, %edi
	movabsq	$.L.str.57, %rsi
	movabsq	$.L.str.61, %rdx
	movabsq	$.L.str.65, %rcx
	movl	$31, %r10d
	movl	%r10d, %r8d
	xorl	%r9d, %r9d
	movl	$1, %r10d
	movl	$1, (%rsp)
	movl	%r10d, -380(%rbp)       # 4-byte Spill
	callq	trace_logger_log0
	movl	$2, %r9d
	movl	%r9d, %edi
	movl	$64, %r9d
	movl	%r9d, %esi
	movl	$1, %r9d
	movl	%r9d, %ecx
	movabsq	$.L.str.63, %r8
	xorl	%r9d, %r9d
                                        # kill: def %r9 killed %r9d
	movabsq	$.L.str.6, %rax
	movq	-376(%rbp), %rdx        # 8-byte Reload
	movq	%rax, (%rsp)
	callq	trace_logger_log_ptr
	movl	$1, %r10d
	movl	%r10d, %eax
	movl	$32, %r10d
	movl	%r10d, %esi
	movabsq	$.L.str.62, %r8
	xorl	%r10d, %r10d
	movl	%r10d, %r9d
	movabsq	$.L.str.6, %rcx
	movl	-356(%rbp), %r10d       # 4-byte Reload
	movl	%r10d, %ebx
	movl	%ebx, %edx
	movq	%rax, %rdi
	movq	%rcx, -392(%rbp)        # 8-byte Spill
	movq	%rax, %rcx
	movq	-392(%rbp), %rax        # 8-byte Reload
	movq	%rax, (%rsp)
	callq	trace_logger_log_int
	movl	$37, %r10d
	movl	%r10d, %edi
	movabsq	$.L.str.57, %rsi
	movabsq	$.L.str.61, %rdx
	movabsq	$.L.str.15, %rcx
	movl	$11, %r10d
	movl	%r10d, %r8d
	xorl	%r9d, %r9d
	movl	$1, %r10d
	movq	-48(%rbp), %rax         # 8-byte Reload
	movq	-280(%rbp), %r11        # 8-byte Reload
	movl	-356(%rbp), %ebx        # 4-byte Reload
	movl	%ebx, (%rax,%r11,4)
.Ltmp35:
	.loc	1 37 45 is_stmt 1       # pp_scan.c:37:45
	movl	$1, (%rsp)
	movl	%r10d, -396(%rbp)       # 4-byte Spill
	callq	trace_logger_log0
	movl	$2, %r9d
	movl	%r9d, %edi
	movl	$64, %r9d
	movl	%r9d, %esi
	movl	$1, %r9d
	movl	%r9d, %edx
	xorl	%r9d, %r9d
	movl	%r9d, %eax
	movabsq	$.L.str.16, %r8
	movabsq	$.L.str.6, %rcx
	movq	%rcx, -408(%rbp)        # 8-byte Spill
	movq	%rax, %rcx
	movq	%rax, %r9
	movq	-408(%rbp), %rax        # 8-byte Reload
	movq	%rax, (%rsp)
	callq	trace_logger_log_int
	movl	$1, %r10d
	movl	%r10d, %eax
	movl	$64, %r10d
	movl	%r10d, %esi
	movabsq	$.L.str.14, %r8
	xorl	%r10d, %r10d
	movl	%r10d, %r9d
	movabsq	$.L.str.6, %rcx
	movq	%rax, %rdi
	movq	-232(%rbp), %rdx        # 8-byte Reload
	movq	%rcx, -416(%rbp)        # 8-byte Spill
	movq	%rax, %rcx
	movq	-416(%rbp), %rax        # 8-byte Reload
	movq	%rax, (%rsp)
	callq	trace_logger_log_int
	movl	$19134, %r10d           # imm = 0x4ABE
	movl	%r10d, %edi
	movl	$64, %r10d
	movl	%r10d, %esi
	movl	$1, %r10d
	movl	%r10d, %ecx
	movabsq	$.L.str.15, %r8
	xorl	%r10d, %r10d
	movl	%r10d, %r9d
	movabsq	$.L.str.6, %rax
	movq	-232(%rbp), %rdx        # 8-byte Reload
	addq	$1, %rdx
	.loc	1 37 31 is_stmt 0       # pp_scan.c:37:31
	movq	%rdx, -424(%rbp)        # 8-byte Spill
	movq	%rax, (%rsp)
	callq	trace_logger_log_int
	movl	$37, %r10d
	movl	%r10d, %edi
	movabsq	$.L.str.57, %rsi
	movabsq	$.L.str.61, %rdx
	movabsq	$.L.str.23, %rcx
	movl	$51, %r10d
	movl	%r10d, %r8d
	xorl	%r9d, %r9d
	movl	$1, %r10d
	movl	$1, (%rsp)
	movl	%r10d, -428(%rbp)       # 4-byte Spill
	callq	trace_logger_log0
	movl	$2, %r9d
	movl	%r9d, %edi
	movl	$64, %r9d
	movl	%r9d, %esi
	movl	$16, %r9d
	movl	%r9d, %edx
	xorl	%r9d, %r9d
	movl	%r9d, %eax
	movabsq	$.L.str.16, %r8
	movabsq	$.L.str.6, %rcx
	movq	%rcx, -440(%rbp)        # 8-byte Spill
	movq	%rax, %rcx
	movq	%rax, %r9
	movq	-440(%rbp), %rax        # 8-byte Reload
	movq	%rax, (%rsp)
	callq	trace_logger_log_int
	movl	$1, %r10d
	movl	%r10d, %eax
	movl	$64, %r10d
	movl	%r10d, %esi
	movabsq	$.L.str.15, %r8
	xorl	%r10d, %r10d
	movl	%r10d, %r9d
	movabsq	$.L.str.6, %rcx
	movq	%rax, %rdi
	movq	-424(%rbp), %rdx        # 8-byte Reload
	movq	%rcx, -448(%rbp)        # 8-byte Spill
	movq	%rax, %rcx
	movq	-448(%rbp), %rax        # 8-byte Reload
	movq	%rax, (%rsp)
	callq	trace_logger_log_int
	movl	$19134, %r10d           # imm = 0x4ABE
	movl	%r10d, %edi
	movl	$1, %r10d
	movl	%r10d, %eax
	movabsq	$.L.str.23, %r8
	xorl	%r10d, %r10d
	movl	%r10d, %r9d
	movabsq	$.L.str.6, %rcx
	movq	-424(%rbp), %rdx        # 8-byte Reload
	cmpq	$16, %rdx
	sete	%r15b
.Ltmp36:
	.loc	1 37 17                 # pp_scan.c:37:17
	movb	%r15b, %r12b
	andb	$1, %r12b
	movzbl	%r12b, %r10d
	movl	%r10d, %edx
	movq	%rax, %rsi
	movq	%rcx, -456(%rbp)        # 8-byte Spill
	movq	%rax, %rcx
	movq	-456(%rbp), %rax        # 8-byte Reload
	movq	%rax, (%rsp)
	movb	%r15b, -457(%rbp)       # 1-byte Spill
	callq	trace_logger_log_int
	movl	$37, %r10d
	movl	%r10d, %edi
	movabsq	$.L.str.57, %rsi
	movabsq	$.L.str.61, %rdx
	movabsq	$.L.str.66, %rcx
	movl	$2, %r10d
	movl	%r10d, %r8d
	xorl	%r9d, %r9d
	movl	$1, %r10d
	movl	$1, (%rsp)
	movl	%r10d, -464(%rbp)       # 4-byte Spill
	callq	trace_logger_log0
	movl	$3, %r9d
	movl	%r9d, %edi
	xorl	%r9d, %r9d
	movl	%r9d, %eax
	movl	$1, %r9d
	movl	%r9d, %ecx
	movabsq	$.L.str.30, %r8
	movabsq	$.L.str.6, %rdx
	movq	%rax, %rsi
	movq	%rdx, -472(%rbp)        # 8-byte Spill
	movq	%rax, %rdx
	movq	%rax, %r9
	movq	-472(%rbp), %rax        # 8-byte Reload
	movq	%rax, (%rsp)
	callq	trace_logger_log_int
	movl	$2, %r10d
	movl	%r10d, %edi
	xorl	%r10d, %r10d
	movl	%r10d, %eax
	movl	$1, %r10d
	movl	%r10d, %ecx
	movabsq	$.L.str.61, %r8
	movabsq	$.L.str.6, %rdx
	movq	%rax, %rsi
	movq	%rdx, -480(%rbp)        # 8-byte Spill
	movq	%rax, %rdx
	movq	%rax, %r9
	movq	-480(%rbp), %rax        # 8-byte Reload
	movq	%rax, (%rsp)
	callq	trace_logger_log_int
	movl	$1, %r10d
	movl	%r10d, %eax
	movabsq	$.L.str.23, %r8
	xorl	%r10d, %r10d
	movl	%r10d, %r9d
	movabsq	$.L.str.6, %rcx
	movb	-457(%rbp), %r15b       # 1-byte Reload
	andb	$1, %r15b
	movzbl	%r15b, %r10d
	movl	%r10d, %edx
	movq	%rax, %rdi
	movq	%rax, %rsi
	movq	%rcx, -488(%rbp)        # 8-byte Spill
	movq	%rax, %rcx
	movq	-488(%rbp), %rax        # 8-byte Reload
	movq	%rax, (%rsp)
	callq	trace_logger_log_int
	movb	-457(%rbp), %r15b       # 1-byte Reload
	testb	$1, %r15b
	movq	-424(%rbp), %rax        # 8-byte Reload
	movq	%rax, -224(%rbp)        # 8-byte Spill
	jne	.LBB3_3
	jmp	.LBB3_2
.Ltmp37:
.LBB3_3:                                #   in Loop: Header=BB3_1 Depth=1
	#DEBUG_VALUE: last_step_scan:i <- [DW_OP_constu 232, DW_OP_minus] [%rbp+0]
	#DEBUG_VALUE: last_step_scan:radixID <- [DW_OP_constu 112, DW_OP_minus] [%rbp+0]
	#DEBUG_VALUE: last_step_scan:sum <- [DW_OP_constu 56, DW_OP_minus] [%rbp+0]
	#DEBUG_VALUE: last_step_scan:bucket2 <- [DW_OP_constu 48, DW_OP_minus] [%rbp+0]
	#DEBUG_VALUE: last_step_scan:bucket <- [DW_OP_constu 40, DW_OP_minus] [%rbp+0]
	.loc	1 0 17                  # pp_scan.c:0:17
	movl	$36, %eax
	movl	%eax, %edi
	movabsq	$.L.str.57, %rsi
	movabsq	$.L.str.30, %rdx
	movabsq	$.L.str.59, %rcx
	movl	$11, %eax
	movl	%eax, %r8d
	xorl	%r9d, %r9d
	movl	$1, %eax
	.loc	1 36 55 is_stmt 1       # pp_scan.c:36:55
	movl	$1, (%rsp)
	movl	%eax, -492(%rbp)        # 4-byte Spill
	callq	trace_logger_log0
	movl	$2, %eax
	movl	%eax, %edi
	movl	$64, %eax
	movl	%eax, %esi
	movl	$1, %eax
	movl	%eax, %edx
	xorl	%eax, %eax
	movl	%eax, %ecx
	movabsq	$.L.str.16, %r8
	movabsq	$.L.str.6, %r10
	movq	%rcx, -504(%rbp)        # 8-byte Spill
	movq	-504(%rbp), %r9         # 8-byte Reload
	movq	%r10, (%rsp)
	callq	trace_logger_log_int
	movl	$1, %eax
	movl	%eax, %ecx
	movl	$64, %eax
	movl	%eax, %esi
	movabsq	$.L.str.58, %r8
	xorl	%eax, %eax
	movl	%eax, %r9d
	movabsq	$.L.str.6, %rdx
	movq	%rcx, %rdi
	movq	-112(%rbp), %r10        # 8-byte Reload
	movq	%rdx, -512(%rbp)        # 8-byte Spill
	movq	%r10, %rdx
	movq	-512(%rbp), %r11        # 8-byte Reload
	movq	%r11, (%rsp)
	callq	trace_logger_log_int
	movl	$19134, %eax            # imm = 0x4ABE
	movl	%eax, %edi
	movl	$64, %eax
	movl	%eax, %esi
	movl	$1, %eax
	movl	%eax, %ecx
	movabsq	$.L.str.59, %r8
	xorl	%eax, %eax
	movl	%eax, %r9d
	movabsq	$.L.str.6, %rdx
	movq	-112(%rbp), %r10        # 8-byte Reload
	addq	$1, %r10
	.loc	1 36 41 is_stmt 0       # pp_scan.c:36:41
	movq	%rdx, -520(%rbp)        # 8-byte Spill
	movq	%r10, %rdx
	movq	-520(%rbp), %r11        # 8-byte Reload
	movq	%r11, (%rsp)
	movq	%r10, -528(%rbp)        # 8-byte Spill
	callq	trace_logger_log_int
	movl	$36, %eax
	movl	%eax, %edi
	movabsq	$.L.str.57, %rsi
	movabsq	$.L.str.30, %rdx
	movabsq	$.L.str.67, %rcx
	movl	$51, %eax
	movl	%eax, %r8d
	xorl	%r9d, %r9d
	movl	$1, %eax
	movl	$1, (%rsp)
	movl	%eax, -532(%rbp)        # 4-byte Spill
	callq	trace_logger_log0
	movl	$2, %eax
	movl	%eax, %edi
	movl	$64, %eax
	movl	%eax, %esi
	movl	$128, %eax
	movl	%eax, %edx
	xorl	%eax, %eax
	movl	%eax, %ecx
	movabsq	$.L.str.16, %r8
	movabsq	$.L.str.6, %r10
	movq	%rcx, -544(%rbp)        # 8-byte Spill
	movq	-544(%rbp), %r9         # 8-byte Reload
	movq	%r10, (%rsp)
	callq	trace_logger_log_int
	movl	$1, %eax
	movl	%eax, %ecx
	movl	$64, %eax
	movl	%eax, %esi
	movabsq	$.L.str.59, %r8
	xorl	%eax, %eax
	movl	%eax, %r9d
	movabsq	$.L.str.6, %rdx
	movq	%rcx, %rdi
	movq	-528(%rbp), %r10        # 8-byte Reload
	movq	%rdx, -552(%rbp)        # 8-byte Spill
	movq	%r10, %rdx
	movq	-552(%rbp), %r11        # 8-byte Reload
	movq	%r11, (%rsp)
	callq	trace_logger_log_int
	movl	$19134, %eax            # imm = 0x4ABE
	movl	%eax, %edi
	movl	$1, %eax
	movl	%eax, %ecx
	movabsq	$.L.str.67, %r8
	xorl	%eax, %eax
	movl	%eax, %r9d
	movabsq	$.L.str.6, %rdx
	movq	-528(%rbp), %rsi        # 8-byte Reload
	cmpq	$128, %rsi
	sete	%bl
.Ltmp38:
	.loc	1 36 15                 # pp_scan.c:36:15
	movb	%bl, %r14b
	andb	$1, %r14b
	movzbl	%r14b, %eax
	movl	%eax, %r10d
	movq	%rcx, %rsi
	movq	%rdx, -560(%rbp)        # 8-byte Spill
	movq	%r10, %rdx
	movq	-560(%rbp), %r10        # 8-byte Reload
	movq	%r10, (%rsp)
	movb	%bl, -561(%rbp)         # 1-byte Spill
	callq	trace_logger_log_int
	movl	$36, %eax
	movl	%eax, %edi
	movabsq	$.L.str.57, %rsi
	movabsq	$.L.str.30, %rdx
	movabsq	$.L.str.45, %rcx
	movl	$2, %eax
	movl	%eax, %r8d
	xorl	%r9d, %r9d
	movl	$1, %eax
	movl	$1, (%rsp)
	movl	%eax, -568(%rbp)        # 4-byte Spill
	callq	trace_logger_log0
	movl	$3, %eax
	movl	%eax, %edi
	xorl	%eax, %eax
	movl	%eax, %ecx
	movl	$1, %eax
	movl	%eax, %edx
	movabsq	$.L.str.46, %r8
	movabsq	$.L.str.6, %rsi
	movq	%rsi, -576(%rbp)        # 8-byte Spill
	movq	%rcx, %rsi
	movq	%rdx, -584(%rbp)        # 8-byte Spill
	movq	%rcx, %rdx
	movq	-584(%rbp), %r10        # 8-byte Reload
	movq	%rcx, -592(%rbp)        # 8-byte Spill
	movq	%r10, %rcx
	movq	-592(%rbp), %r9         # 8-byte Reload
	movq	-576(%rbp), %r11        # 8-byte Reload
	movq	%r11, (%rsp)
	callq	trace_logger_log_int
	movl	$2, %eax
	movl	%eax, %edi
	xorl	%eax, %eax
	movl	%eax, %ecx
	movl	$1, %eax
	movl	%eax, %edx
	movabsq	$.L.str.13, %r8
	movabsq	$.L.str.6, %rsi
	movq	%rsi, -600(%rbp)        # 8-byte Spill
	movq	%rcx, %rsi
	movq	%rdx, -608(%rbp)        # 8-byte Spill
	movq	%rcx, %rdx
	movq	-608(%rbp), %r9         # 8-byte Reload
	movq	%rcx, -616(%rbp)        # 8-byte Spill
	movq	%r9, %rcx
	movq	-616(%rbp), %r9         # 8-byte Reload
	movq	-600(%rbp), %r10        # 8-byte Reload
	movq	%r10, (%rsp)
	callq	trace_logger_log_int
	movl	$1, %eax
	movl	%eax, %ecx
	movabsq	$.L.str.67, %r8
	xorl	%eax, %eax
	movl	%eax, %r9d
	movabsq	$.L.str.6, %rdx
	movb	-561(%rbp), %bl         # 1-byte Reload
	andb	$1, %bl
	movzbl	%bl, %eax
	movl	%eax, %esi
	movq	%rcx, %rdi
	movq	%rsi, -624(%rbp)        # 8-byte Spill
	movq	%rcx, %rsi
	movq	-624(%rbp), %r10        # 8-byte Reload
	movq	%rdx, -632(%rbp)        # 8-byte Spill
	movq	%r10, %rdx
	movq	-632(%rbp), %r11        # 8-byte Reload
	movq	%r11, (%rsp)
	callq	trace_logger_log_int
	movb	-561(%rbp), %bl         # 1-byte Reload
	testb	$1, %bl
	movq	-528(%rbp), %rcx        # 8-byte Reload
	movq	%rcx, -104(%rbp)        # 8-byte Spill
	jne	.LBB3_4
	jmp	.LBB3_1
.Ltmp39:
.LBB3_4:
	#DEBUG_VALUE: last_step_scan:i <- [DW_OP_constu 232, DW_OP_minus] [%rbp+0]
	#DEBUG_VALUE: last_step_scan:radixID <- [DW_OP_constu 112, DW_OP_minus] [%rbp+0]
	#DEBUG_VALUE: last_step_scan:sum <- [DW_OP_constu 56, DW_OP_minus] [%rbp+0]
	#DEBUG_VALUE: last_step_scan:bucket2 <- [DW_OP_constu 48, DW_OP_minus] [%rbp+0]
	#DEBUG_VALUE: last_step_scan:bucket <- [DW_OP_constu 40, DW_OP_minus] [%rbp+0]
	.loc	1 0 15                  # pp_scan.c:0:15
	movl	$43, %eax
	movl	%eax, %edi
	movabsq	$.L.str.57, %rsi
	movabsq	$.L.str.46, %rdx
	movabsq	$.L.str.47, %rcx
	movl	$1, %eax
	movl	%eax, %r8d
	xorl	%r9d, %r9d
	movl	$1, %eax
	.loc	1 43 1 is_stmt 1        # pp_scan.c:43:1
	movl	$1, (%rsp)
	movl	%eax, -636(%rbp)        # 4-byte Spill
	callq	trace_logger_log0
	movabsq	$.L.str.57, %rdi
	movl	$1, %eax
	movl	%eax, %esi
	xorl	%edx, %edx
	movl	$1, %ecx
	callq	trace_logger_update_status
	addq	$624, %rsp              # imm = 0x270
	popq	%rbx
	popq	%r12
	popq	%r14
	popq	%r15
	popq	%rbp
	retq
.Ltmp40:
.Lfunc_end3:
	.size	last_step_scan, .Lfunc_end3-last_step_scan
	.cfi_endproc
                                        # -- End function
	.globl	pp_scan                 # -- Begin function pp_scan
	.p2align	4, 0x90
	.type	pp_scan,@function
pp_scan:                                # @pp_scan
.Lfunc_begin4:
	.loc	1 46 0                  # pp_scan.c:46:0
	.cfi_startproc
# %bb.0:
	pushq	%rbp
	.cfi_def_cfa_offset 16
	.cfi_offset %rbp, -16
	movq	%rsp, %rbp
	.cfi_def_cfa_register %rbp
	subq	$64, %rsp
	movabsq	$.L.str.68, %rax
	xorl	%ecx, %ecx
	movl	%ecx, %r8d
	movl	$1, %ecx
.Ltmp41:
	.loc	1 44 18 prologue_end    # pp_scan.c:44:18
	movq	%rdi, -8(%rbp)          # 8-byte Spill
	movq	%rax, %rdi
	movq	%rsi, -16(%rbp)         # 8-byte Spill
	movq	%r8, %rsi
	movq	%rdx, -24(%rbp)         # 8-byte Spill
	movl	%ecx, %edx
	callq	trace_logger_update_status
	movabsq	$.L.str.68, %rdi
	movl	$3, %ecx
	movl	%ecx, %esi
	callq	trace_logger_log_entry
	movl	$1, %ecx
	movl	%ecx, %eax
	movl	$64, %ecx
	movl	%ecx, %esi
	movabsq	$.L.str.32, %r8
	xorl	%ecx, %ecx
	movl	%ecx, %r9d
	movabsq	$.L.str.6, %rdi
	movq	%rdi, -32(%rbp)         # 8-byte Spill
	movq	%rax, %rdi
	movq	-8(%rbp), %rdx          # 8-byte Reload
	movq	%rax, %rcx
	movq	-32(%rbp), %rax         # 8-byte Reload
	movq	%rax, (%rsp)
	callq	trace_logger_log_ptr
	movl	$2, %r10d
	movl	%r10d, %edi
	movl	$64, %r10d
	movl	%r10d, %esi
	movl	$1, %r10d
	movl	%r10d, %ecx
	movabsq	$.L.str.64, %r8
	xorl	%r10d, %r10d
	movl	%r10d, %r9d
	movabsq	$.L.str.6, %rax
	movq	-16(%rbp), %rdx         # 8-byte Reload
	movq	%rax, (%rsp)
	callq	trace_logger_log_ptr
	movl	$3, %r10d
	movl	%r10d, %edi
	movl	$64, %r10d
	movl	%r10d, %esi
	movl	$1, %r10d
	movl	%r10d, %ecx
	movabsq	$.L.str.49, %r8
	xorl	%r10d, %r10d
	movl	%r10d, %r9d
	movabsq	$.L.str.6, %rax
	movq	-24(%rbp), %rdx         # 8-byte Reload
	movq	%rax, (%rsp)
	callq	trace_logger_log_ptr
	movl	$51, %r10d
	movl	%r10d, %edi
	movabsq	$.L.str.68, %rsi
	movabsq	$.L.str.3, %rdx
	movabsq	$.L.str.8, %rcx
	movl	$54, %r10d
	movl	%r10d, %r8d
	movl	$1, %r9d
	#DEBUG_VALUE: pp_scan:bucket <- [DW_OP_constu 8, DW_OP_minus] [%rbp+0]
	#DEBUG_VALUE: pp_scan:bucket2 <- [DW_OP_constu 16, DW_OP_minus] [%rbp+0]
	#DEBUG_VALUE: pp_scan:sum <- [DW_OP_constu 24, DW_OP_minus] [%rbp+0]
	.loc	1 51 3                  # pp_scan.c:51:3
	movl	$1, (%rsp)
	callq	trace_logger_log0
	movl	$2, %r9d
	movl	%r9d, %edi
	movl	$64, %r9d
	movl	%r9d, %esi
	movabsq	$local_scan, %rdx
	movl	$1, %r9d
	movl	%r9d, %ecx
	movabsq	$.L.str.26, %r8
	xorl	%r9d, %r9d
                                        # kill: def %r9 killed %r9d
	movabsq	$.L.str.6, %rax
	movq	%rax, (%rsp)
	callq	trace_logger_log_ptr
	movl	$1, %r10d
	movl	%r10d, %eax
	movl	$64, %r10d
	movl	%r10d, %esi
	movabsq	$.L.str.32, %r8
	xorl	%r10d, %r10d
	movl	%r10d, %r9d
	movabsq	$.L.str.6, %rcx
	movq	%rax, %rdi
	movq	-8(%rbp), %rdx          # 8-byte Reload
	movq	%rcx, -40(%rbp)         # 8-byte Spill
	movq	%rax, %rcx
	movq	-40(%rbp), %rax         # 8-byte Reload
	movq	%rax, (%rsp)
	callq	trace_logger_log_ptr
	movq	-8(%rbp), %rdi          # 8-byte Reload
	callq	local_scan
	movl	$52, %r10d
	movl	%r10d, %edi
	movabsq	$.L.str.68, %rsi
	movabsq	$.L.str.3, %rdx
	movabsq	$.L.str.50, %rcx
	movl	$54, %r10d
	movl	%r10d, %r8d
	movl	$1, %r9d
	.loc	1 52 3                  # pp_scan.c:52:3
	movl	$1, (%rsp)
	callq	trace_logger_log0
	movl	$3, %r9d
	movl	%r9d, %edi
	movl	$64, %r9d
	movl	%r9d, %esi
	movabsq	$sum_scan, %rdx
	movl	$1, %r9d
	movl	%r9d, %ecx
	movabsq	$.L.str.48, %r8
	xorl	%r9d, %r9d
                                        # kill: def %r9 killed %r9d
	movabsq	$.L.str.6, %rax
	movq	%rax, (%rsp)
	callq	trace_logger_log_ptr
	movl	$1, %r10d
	movl	%r10d, %eax
	movl	$64, %r10d
	movl	%r10d, %esi
	movabsq	$.L.str.49, %r8
	xorl	%r10d, %r10d
	movl	%r10d, %r9d
	movabsq	$.L.str.6, %rcx
	movq	%rax, %rdi
	movq	-24(%rbp), %rdx         # 8-byte Reload
	movq	%rcx, -48(%rbp)         # 8-byte Spill
	movq	%rax, %rcx
	movq	-48(%rbp), %rax         # 8-byte Reload
	movq	%rax, (%rsp)
	callq	trace_logger_log_ptr
	movl	$2, %r10d
	movl	%r10d, %edi
	movl	$64, %r10d
	movl	%r10d, %esi
	movl	$1, %r10d
	movl	%r10d, %ecx
	movabsq	$.L.str.32, %r8
	xorl	%r10d, %r10d
	movl	%r10d, %r9d
	movabsq	$.L.str.6, %rax
	movq	-8(%rbp), %rdx          # 8-byte Reload
	movq	%rax, (%rsp)
	callq	trace_logger_log_ptr
	movq	-24(%rbp), %rdi         # 8-byte Reload
	movq	-8(%rbp), %rsi          # 8-byte Reload
	callq	sum_scan
	movl	$53, %r10d
	movl	%r10d, %edi
	movabsq	$.L.str.68, %rsi
	movabsq	$.L.str.3, %rdx
	movabsq	$.L.str.69, %rcx
	movl	$54, %r10d
	movl	%r10d, %r8d
	movl	$1, %r9d
	.loc	1 53 3                  # pp_scan.c:53:3
	movl	$1, (%rsp)
	callq	trace_logger_log0
	movl	$4, %r9d
	movl	%r9d, %edi
	movl	$64, %r9d
	movl	%r9d, %esi
	movabsq	$last_step_scan, %rdx
	movl	$1, %r9d
	movl	%r9d, %ecx
	movabsq	$.L.str.57, %r8
	xorl	%r9d, %r9d
                                        # kill: def %r9 killed %r9d
	movabsq	$.L.str.6, %rax
	movq	%rax, (%rsp)
	callq	trace_logger_log_ptr
	movl	$1, %r10d
	movl	%r10d, %eax
	movl	$64, %r10d
	movl	%r10d, %esi
	movabsq	$.L.str.32, %r8
	xorl	%r10d, %r10d
	movl	%r10d, %r9d
	movabsq	$.L.str.6, %rcx
	movq	%rax, %rdi
	movq	-8(%rbp), %rdx          # 8-byte Reload
	movq	%rcx, -56(%rbp)         # 8-byte Spill
	movq	%rax, %rcx
	movq	-56(%rbp), %rax         # 8-byte Reload
	movq	%rax, (%rsp)
	callq	trace_logger_log_ptr
	movl	$2, %r10d
	movl	%r10d, %edi
	movl	$64, %r10d
	movl	%r10d, %esi
	movl	$1, %r10d
	movl	%r10d, %ecx
	movabsq	$.L.str.64, %r8
	xorl	%r10d, %r10d
	movl	%r10d, %r9d
	movabsq	$.L.str.6, %rax
	movq	-16(%rbp), %rdx         # 8-byte Reload
	movq	%rax, (%rsp)
	callq	trace_logger_log_ptr
	movl	$3, %r10d
	movl	%r10d, %edi
	movl	$64, %r10d
	movl	%r10d, %esi
	movl	$1, %r10d
	movl	%r10d, %ecx
	movabsq	$.L.str.49, %r8
	xorl	%r10d, %r10d
	movl	%r10d, %r9d
	movabsq	$.L.str.6, %rax
	movq	-24(%rbp), %rdx         # 8-byte Reload
	movq	%rax, (%rsp)
	callq	trace_logger_log_ptr
	movq	-8(%rbp), %rdi          # 8-byte Reload
	movq	-16(%rbp), %rsi         # 8-byte Reload
	movq	-24(%rbp), %rdx         # 8-byte Reload
	callq	last_step_scan
	movl	$58, %r10d
	movl	%r10d, %edi
	movabsq	$.L.str.68, %rsi
	movabsq	$.L.str.3, %rdx
	movabsq	$.L.str.70, %rcx
	movl	$1, %r10d
	movl	%r10d, %r8d
	movl	$1, %r9d
	.loc	1 58 1                  # pp_scan.c:58:1
	movl	$1, (%rsp)
	callq	trace_logger_log0
	movabsq	$.L.str.68, %rdi
	movl	$1, %r9d
	movl	%r9d, %esi
	movl	$1, %r9d
	movl	%r9d, %edx
	movl	%r9d, %ecx
	callq	trace_logger_update_status
	addq	$64, %rsp
	popq	%rbp
	retq
.Ltmp42:
.Lfunc_end4:
	.size	pp_scan, .Lfunc_end4-pp_scan
	.cfi_endproc
                                        # -- End function
	.section	.rodata.cst8,"aM",@progbits,8
	.p2align	3               # -- Begin function main
.LCPI5_0:
	.quad	4656722014701092864     # double 2048
.LCPI5_1:
	.quad	4746794007244308480     # double 2147483647
	.text
	.globl	main
	.p2align	4, 0x90
	.type	main,@function
main:                                   # @main
.Lfunc_begin5:
	.loc	1 61 0                  # pp_scan.c:61:0
	.cfi_startproc
# %bb.0:
	pushq	%rbp
	.cfi_def_cfa_offset 16
	.cfi_offset %rbp, -16
	movq	%rsp, %rbp
	.cfi_def_cfa_register %rbp
	pushq	%r15
	pushq	%r14
	pushq	%rbx
	subq	$1720, %rsp             # imm = 0x6B8
	.cfi_offset %rbx, -40
	.cfi_offset %r14, -32
	.cfi_offset %r15, -24
	callq	trace_logger_init
	movabsq	$.L.str.102, %rdi
	movl	$130, %eax
	movl	%eax, %esi
	callq	trace_logger_register_labelmap
	movq	$-1, %rdi
	movabsq	$.L.str.71, %rsi
	movabsq	$.L.str.3, %rdx
	movabsq	$.L.str.49, %rcx
	movl	$29, %eax
	movl	%eax, %r8d
	xorl	%r9d, %r9d
	movl	$1, %eax
	movl	$1, (%rsp)
	movl	%eax, -548(%rbp)        # 4-byte Spill
	callq	trace_logger_log0
	movl	$1, %eax
	movl	%eax, %ecx
	movl	$32, %eax
	movl	%eax, %esi
	xorl	%eax, %eax
	movl	%eax, %edx
	movabsq	$.L.str.16, %r8
	movabsq	$.L.str.6, %rdi
	movq	%rdi, -560(%rbp)        # 8-byte Spill
	movq	%rcx, %rdi
	movq	%rdx, -568(%rbp)        # 8-byte Spill
	movq	%rcx, %rdx
	movq	-568(%rbp), %rcx        # 8-byte Reload
	movq	-568(%rbp), %r9         # 8-byte Reload
	movq	-560(%rbp), %r10        # 8-byte Reload
	movq	%r10, (%rsp)
	callq	trace_logger_log_int
	movl	$19134, %eax            # imm = 0x4ABE
	movl	%eax, %edi
	movl	$64, %eax
	movl	%eax, %esi
	movl	$1, %eax
	movl	%eax, %ecx
	movabsq	$.L.str.49, %r8
	xorl	%eax, %eax
	movl	%eax, %r9d
	movabsq	$.L.str.6, %rdx
	leaq	-544(%rbp), %r10
.Ltmp43:
	.loc	1 65 19 prologue_end    # pp_scan.c:65:19
	movq	%rdx, -576(%rbp)        # 8-byte Spill
	movq	%r10, %rdx
	movq	-576(%rbp), %r10        # 8-byte Reload
	movq	%r10, (%rsp)
	callq	trace_logger_log_ptr
	movl	$65, %eax
	movl	%eax, %edi
	movabsq	$.L.str.71, %rsi
	movabsq	$.L.str.3, %rdx
	movabsq	$.L.str.20, %rcx
	movl	$54, %eax
	movl	%eax, %r8d
	xorl	%r9d, %r9d
	movl	$1, %eax
	movl	$1, (%rsp)
	movl	%eax, -580(%rbp)        # 4-byte Spill
	callq	trace_logger_log0
	movl	$2, %eax
	movl	%eax, %edi
	movl	$64, %eax
	movl	%eax, %esi
	movabsq	$malloc, %rdx
	movl	$1, %eax
	movl	%eax, %ecx
	movabsq	$.L.str.72, %r8
	xorl	%eax, %eax
	movl	%eax, %r9d
	movabsq	$.L.str.6, %r10
	movq	%r10, (%rsp)
	callq	trace_logger_log_ptr
	movl	$1, %eax
	movl	%eax, %edi
	movl	$64, %eax
	movl	%eax, %esi
	movl	$8192, %eax             # imm = 0x2000
	movl	%eax, %edx
	xorl	%eax, %eax
	movl	%eax, %ecx
	movabsq	$.L.str.16, %r8
	movabsq	$.L.str.6, %r9
	movq	%rcx, -592(%rbp)        # 8-byte Spill
	movq	-592(%rbp), %r10        # 8-byte Reload
	movq	%r9, -600(%rbp)         # 8-byte Spill
	movq	%r10, %r9
	movq	-600(%rbp), %r11        # 8-byte Reload
	movq	%r11, (%rsp)
	callq	trace_logger_log_int
	movl	$8192, %eax             # imm = 0x2000
	movl	%eax, %edi
	callq	malloc
	movl	$19134, %ebx            # imm = 0x4ABE
	movl	%ebx, %edi
	movl	$64, %ebx
	movl	%ebx, %esi
	movl	$1, %ebx
	movl	%ebx, %ecx
	movabsq	$.L.str.20, %r8
	xorl	%ebx, %ebx
	movl	%ebx, %r9d
	movabsq	$.L.str.6, %rdx
	.loc	1 65 12 is_stmt 0       # pp_scan.c:65:12
	movq	%rdx, -608(%rbp)        # 8-byte Spill
	movq	%rax, %rdx
	movq	-608(%rbp), %r10        # 8-byte Reload
	movq	%r10, (%rsp)
	movq	%rax, -616(%rbp)        # 8-byte Spill
	callq	trace_logger_log_ptr
	movl	$65, %ebx
	movl	%ebx, %edi
	movabsq	$.L.str.71, %rsi
	movabsq	$.L.str.3, %rdx
	movabsq	$.L.str.73, %rcx
	movl	$47, %ebx
	movl	%ebx, %r8d
	xorl	%r9d, %r9d
	movl	$1, %ebx
	movl	$1, (%rsp)
	movl	%ebx, -620(%rbp)        # 4-byte Spill
	callq	trace_logger_log0
	movl	$1, %r9d
	movl	%r9d, %eax
	movl	$64, %r9d
	movl	%r9d, %esi
	movabsq	$.L.str.20, %r8
	xorl	%r9d, %r9d
                                        # kill: def %r9 killed %r9d
	movabsq	$.L.str.6, %rcx
	movq	%rax, %rdi
	movq	-616(%rbp), %rdx        # 8-byte Reload
	movq	%rcx, -632(%rbp)        # 8-byte Spill
	movq	%rax, %rcx
	movq	-632(%rbp), %rax        # 8-byte Reload
	movq	%rax, (%rsp)
	callq	trace_logger_log_ptr
	movl	$19134, %ebx            # imm = 0x4ABE
	movl	%ebx, %edi
	movl	$64, %ebx
	movl	%ebx, %esi
	movl	$1, %ebx
	movl	%ebx, %ecx
	movabsq	$.L.str.20, %r8
	xorl	%ebx, %ebx
	movl	%ebx, %r9d
	movabsq	$.L.str.6, %rax
	movq	-616(%rbp), %rdx        # 8-byte Reload
	.loc	1 63 9 is_stmt 1        # pp_scan.c:63:9
	movq	%rdx, -640(%rbp)        # 8-byte Spill
	movq	%rax, (%rsp)
	callq	trace_logger_log_ptr
	movl	$66, %ebx
	movl	%ebx, %edi
	movabsq	$.L.str.71, %rsi
	movabsq	$.L.str.3, %rdx
	movabsq	$.L.str.74, %rcx
	movl	$54, %ebx
	movl	%ebx, %r8d
	xorl	%r9d, %r9d
	movl	$1, %ebx
.Ltmp44:
	#DEBUG_VALUE: main:bucket <- [DW_OP_constu 640, DW_OP_minus] [%rbp+0]
	.loc	1 66 20                 # pp_scan.c:66:20
	movl	$1, (%rsp)
	movl	%ebx, -644(%rbp)        # 4-byte Spill
	callq	trace_logger_log0
	movl	$2, %r9d
	movl	%r9d, %edi
	movl	$64, %r9d
	movl	%r9d, %esi
	movabsq	$malloc, %rdx
	movl	$1, %r9d
	movl	%r9d, %ecx
	movabsq	$.L.str.72, %r8
	xorl	%r9d, %r9d
                                        # kill: def %r9 killed %r9d
	movabsq	$.L.str.6, %rax
	movq	%rax, (%rsp)
	callq	trace_logger_log_ptr
	movl	$1, %ebx
	movl	%ebx, %edi
	movl	$64, %ebx
	movl	%ebx, %esi
	movl	$8192, %ebx             # imm = 0x2000
	movl	%ebx, %edx
	xorl	%ebx, %ebx
	movl	%ebx, %eax
	movabsq	$.L.str.16, %r8
	movabsq	$.L.str.6, %rcx
	movq	%rcx, -656(%rbp)        # 8-byte Spill
	movq	%rax, %rcx
	movq	%rax, %r9
	movq	-656(%rbp), %rax        # 8-byte Reload
	movq	%rax, (%rsp)
	callq	trace_logger_log_int
	movl	$8192, %ebx             # imm = 0x2000
	movl	%ebx, %edi
	callq	malloc
	movl	$19134, %ebx            # imm = 0x4ABE
	movl	%ebx, %edi
	movl	$64, %ebx
	movl	%ebx, %esi
	movl	$1, %ebx
	movl	%ebx, %ecx
	movabsq	$.L.str.74, %r8
	xorl	%ebx, %ebx
	movl	%ebx, %r9d
	movabsq	$.L.str.6, %rdx
	.loc	1 66 13 is_stmt 0       # pp_scan.c:66:13
	movq	%rdx, -664(%rbp)        # 8-byte Spill
	movq	%rax, %rdx
	movq	-664(%rbp), %r10        # 8-byte Reload
	movq	%r10, (%rsp)
	movq	%rax, -672(%rbp)        # 8-byte Spill
	callq	trace_logger_log_ptr
	movl	$66, %ebx
	movl	%ebx, %edi
	movabsq	$.L.str.71, %rsi
	movabsq	$.L.str.3, %rdx
	movabsq	$.L.str.19, %rcx
	movl	$47, %ebx
	movl	%ebx, %r8d
	xorl	%r9d, %r9d
	movl	$1, %ebx
	movl	$1, (%rsp)
	movl	%ebx, -676(%rbp)        # 4-byte Spill
	callq	trace_logger_log0
	movl	$1, %r9d
	movl	%r9d, %eax
	movl	$64, %r9d
	movl	%r9d, %esi
	movabsq	$.L.str.74, %r8
	xorl	%r9d, %r9d
                                        # kill: def %r9 killed %r9d
	movabsq	$.L.str.6, %rcx
	movq	%rax, %rdi
	movq	-672(%rbp), %rdx        # 8-byte Reload
	movq	%rcx, -688(%rbp)        # 8-byte Spill
	movq	%rax, %rcx
	movq	-688(%rbp), %rax        # 8-byte Reload
	movq	%rax, (%rsp)
	callq	trace_logger_log_ptr
	movl	$19134, %ebx            # imm = 0x4ABE
	movl	%ebx, %edi
	movl	$64, %ebx
	movl	%ebx, %esi
	movl	$1, %ebx
	movl	%ebx, %ecx
	movabsq	$.L.str.74, %r8
	xorl	%ebx, %ebx
	movl	%ebx, %r9d
	movabsq	$.L.str.6, %rax
	movq	-672(%rbp), %rdx        # 8-byte Reload
	.loc	1 64 9 is_stmt 1        # pp_scan.c:64:9
	movq	%rdx, -696(%rbp)        # 8-byte Spill
	movq	%rax, (%rsp)
	callq	trace_logger_log_ptr
	movl	$67, %ebx
	movl	%ebx, %edi
	movabsq	$.L.str.71, %rsi
	movabsq	$.L.str.3, %rdx
	movabsq	$.L.str.33, %rcx
	movl	$47, %ebx
	movl	%ebx, %r8d
	xorl	%r9d, %r9d
	movl	$1, %ebx
.Ltmp45:
	#DEBUG_VALUE: main:bucket2 <- [DW_OP_constu 696, DW_OP_minus] [%rbp+0]
	.loc	1 67 3                  # pp_scan.c:67:3
	movl	$1, (%rsp)
	movl	%ebx, -700(%rbp)        # 4-byte Spill
	callq	trace_logger_log0
	movl	$1, %r9d
	movl	%r9d, %eax
	movl	$64, %r9d
	movl	%r9d, %esi
	movabsq	$.L.str.49, %r8
	xorl	%r9d, %r9d
                                        # kill: def %r9 killed %r9d
	movabsq	$.L.str.6, %rcx
	leaq	-544(%rbp), %rdx
	movq	%rax, %rdi
	movq	%rcx, -712(%rbp)        # 8-byte Spill
	movq	%rax, %rcx
	movq	-712(%rbp), %rax        # 8-byte Reload
	movq	%rax, (%rsp)
	callq	trace_logger_log_ptr
	movl	$19134, %ebx            # imm = 0x4ABE
	movl	%ebx, %edi
	movl	$64, %ebx
	movl	%ebx, %esi
	movl	$1, %ebx
	movl	%ebx, %ecx
	movabsq	$.L.str.49, %r8
	xorl	%ebx, %ebx
	movl	%ebx, %r9d
	movabsq	$.L.str.6, %rax
	leaq	-544(%rbp), %rdx
	movq	%rax, (%rsp)
	callq	trace_logger_log_ptr
	movl	$69, %ebx
	movl	%ebx, %edi
	movabsq	$.L.str.71, %rsi
	movabsq	$.L.str.3, %rdx
	movabsq	$.L.str.50, %rcx
	movl	$54, %ebx
	movl	%ebx, %r8d
	xorl	%r9d, %r9d
	movl	$1, %ebx
	.loc	1 69 2                  # pp_scan.c:69:2
	movl	$1, (%rsp)
	movl	%ebx, -716(%rbp)        # 4-byte Spill
	callq	trace_logger_log0
	movl	$2, %r9d
	movl	%r9d, %edi
	movl	$64, %r9d
	movl	%r9d, %esi
	movabsq	$srand, %rdx
	movl	$1, %r9d
	movl	%r9d, %ecx
	movabsq	$.L.str.75, %r8
	xorl	%r9d, %r9d
                                        # kill: def %r9 killed %r9d
	movabsq	$.L.str.6, %rax
	movq	%rax, (%rsp)
	callq	trace_logger_log_ptr
	movl	$1, %ebx
	movl	%ebx, %edi
	movl	$32, %ebx
	movl	%ebx, %esi
	movl	$8650341, %ebx          # imm = 0x83FE65
	movl	%ebx, %edx
	xorl	%ebx, %ebx
	movl	%ebx, %eax
	movabsq	$.L.str.16, %r8
	movabsq	$.L.str.6, %rcx
	movq	%rcx, -728(%rbp)        # 8-byte Spill
	movq	%rax, %rcx
	movq	%rax, %r9
	movq	-728(%rbp), %rax        # 8-byte Reload
	movq	%rax, (%rsp)
	callq	trace_logger_log_int
	movl	$8650341, %edi          # imm = 0x83FE65
	callq	srand
	movl	$72, %edi
                                        # kill: def %rdi killed %edi
	movabsq	$.L.str.71, %rsi
	movabsq	$.L.str.3, %rdx
	movabsq	$.L.str.76, %rcx
	movl	$2, %ebx
	movl	%ebx, %r8d
	xorl	%r9d, %r9d
	movl	$1, %ebx
.Ltmp46:
	#DEBUG_VALUE: main:max <- 2048
	#DEBUG_VALUE: main:min <- 0
	#DEBUG_VALUE: main:i <- 0
	.loc	1 72 3                  # pp_scan.c:72:3
	movl	$1, (%rsp)
	movl	%ebx, -732(%rbp)        # 4-byte Spill
	callq	trace_logger_log0
	movl	$1, %r9d
	movl	%r9d, %eax
	xorl	%r9d, %r9d
	movl	%r9d, %ecx
	movabsq	$.L.str.77, %r8
	movabsq	$.L.str.6, %rdx
	movq	%rax, %rdi
	movq	%rcx, %rsi
	movq	%rdx, -744(%rbp)        # 8-byte Spill
	movq	%rcx, %rdx
	movq	%rcx, -752(%rbp)        # 8-byte Spill
	movq	%rax, %rcx
	movq	-752(%rbp), %r9         # 8-byte Reload
	movq	-744(%rbp), %rax        # 8-byte Reload
	movq	%rax, (%rsp)
	callq	trace_logger_log_int
	xorl	%ebx, %ebx
	movl	%ebx, %eax
	movq	%rax, -760(%rbp)        # 8-byte Spill
.Ltmp47:
.LBB5_1:                                # =>This Inner Loop Header: Depth=1
	#DEBUG_VALUE: main:bucket2 <- [DW_OP_constu 696, DW_OP_minus] [%rbp+0]
	#DEBUG_VALUE: main:bucket <- [DW_OP_constu 640, DW_OP_minus] [%rbp+0]
	.loc	1 0 3 is_stmt 0         # pp_scan.c:0:3
	movq	-760(%rbp), %rax        # 8-byte Reload
	movq	$-1, %rdi
	movabsq	$.L.str.71, %rsi
	movabsq	$.L.str.77, %rdx
	movabsq	$.L.str.14, %rcx
	movl	$53, %r8d
                                        # kill: def %r8 killed %r8d
	xorl	%r9d, %r9d
	movl	$1, %r10d
	.loc	1 62 6 is_stmt 1        # pp_scan.c:62:6
	movl	$1, (%rsp)
	movq	%rax, -768(%rbp)        # 8-byte Spill
	movl	%r10d, -772(%rbp)       # 4-byte Spill
	callq	trace_logger_log0
	movl	$2, %r9d
	movl	%r9d, %edi
	movl	$64, %r9d
	movl	%r9d, %esi
	xorl	%r9d, %r9d
	movl	%r9d, %edx
	movl	$1, %r9d
	movl	%r9d, %eax
	movabsq	$.L.str.15, %r8
	movabsq	$.L.str.77, %rcx
	movq	%rcx, -784(%rbp)        # 8-byte Spill
	movq	%rax, %rcx
	movq	%rax, %r9
	movq	-784(%rbp), %rax        # 8-byte Reload
	movq	%rax, (%rsp)
	callq	trace_logger_log_int
	movl	$1, %r10d
	movl	%r10d, %eax
	movl	$64, %r10d
	movl	%r10d, %esi
	xorl	%r10d, %r10d
	movl	%r10d, %ecx
	movabsq	$.L.str.16, %r8
	movabsq	$.L.str.3, %rdx
	movq	%rax, %rdi
	movq	%rdx, -792(%rbp)        # 8-byte Spill
	movq	%rcx, %rdx
	movq	%rax, %r9
	movq	-792(%rbp), %rax        # 8-byte Reload
	movq	%rax, (%rsp)
	callq	trace_logger_log_int
	movl	$19134, %r10d           # imm = 0x4ABE
	movl	%r10d, %edi
	movl	$64, %r10d
	movl	%r10d, %esi
	movl	$1, %r10d
	movl	%r10d, %ecx
	movabsq	$.L.str.14, %r8
	xorl	%r10d, %r10d
	movl	%r10d, %r9d
	movabsq	$.L.str.3, %rax
	movq	-768(%rbp), %rdx        # 8-byte Reload
	movq	%rax, (%rsp)
	callq	trace_logger_log_int
	movl	$73, %r10d
	movl	%r10d, %edi
	movabsq	$.L.str.71, %rsi
	movabsq	$.L.str.77, %rdx
	movabsq	$.L.str.78, %rcx
	movl	$54, %r10d
	movl	%r10d, %r8d
	xorl	%r9d, %r9d
	movl	$1, %r10d
.Ltmp48:
	#DEBUG_VALUE: main:i <- [DW_OP_constu 768, DW_OP_minus] [%rbp+0]
	.loc	1 73 34                 # pp_scan.c:73:34
	movl	$1, (%rsp)
	movl	%r10d, -796(%rbp)       # 4-byte Spill
	callq	trace_logger_log0
	movl	$1, %r9d
	movl	%r9d, %eax
	movl	$64, %r9d
	movl	%r9d, %esi
	movabsq	$rand, %rdx
	movabsq	$.L.str.79, %r8
	xorl	%r9d, %r9d
                                        # kill: def %r9 killed %r9d
	movabsq	$.L.str.6, %rcx
	movq	%rax, %rdi
	movq	%rcx, -808(%rbp)        # 8-byte Spill
	movq	%rax, %rcx
	movq	-808(%rbp), %rax        # 8-byte Reload
	movq	%rax, (%rsp)
	callq	trace_logger_log_ptr
	callq	rand
	movl	$19134, %r10d           # imm = 0x4ABE
	movl	%r10d, %edi
	movl	$32, %r10d
	movl	%r10d, %esi
	movl	$1, %r10d
	movl	%r10d, %ecx
	movabsq	$.L.str.78, %r8
	xorl	%r10d, %r10d
	movl	%r10d, %r9d
	movabsq	$.L.str.6, %rdx
	.loc	1 73 25 is_stmt 0       # pp_scan.c:73:25
	movl	%eax, %r10d
	movl	%r10d, %r11d
	movq	%rdx, -816(%rbp)        # 8-byte Spill
	movq	%r11, %rdx
	movq	-816(%rbp), %r11        # 8-byte Reload
	movq	%r11, (%rsp)
	movl	%eax, -820(%rbp)        # 4-byte Spill
	callq	trace_logger_log_int
	movl	$73, %eax
	movl	%eax, %edi
	movabsq	$.L.str.71, %rsi
	movabsq	$.L.str.77, %rdx
	movabsq	$.L.str.80, %rcx
	movl	$42, %eax
	movl	%eax, %r8d
	xorl	%r9d, %r9d
	movl	$1, %eax
	movl	$1, (%rsp)
	movl	%eax, -824(%rbp)        # 4-byte Spill
	callq	trace_logger_log0
	movl	$1, %eax
	movl	%eax, %ecx
	movl	$32, %eax
	movl	%eax, %esi
	movabsq	$.L.str.78, %r8
	xorl	%eax, %eax
	movl	%eax, %r9d
	movabsq	$.L.str.6, %rdx
	movl	-820(%rbp), %eax        # 4-byte Reload
	movl	%eax, %r10d
	movl	%r10d, %edi
	movq	%rdi, -832(%rbp)        # 8-byte Spill
	movq	%rcx, %rdi
	movq	-832(%rbp), %r11        # 8-byte Reload
	movq	%rdx, -840(%rbp)        # 8-byte Spill
	movq	%r11, %rdx
	movq	-840(%rbp), %rbx        # 8-byte Reload
	movq	%rbx, (%rsp)
	callq	trace_logger_log_int
	movl	$19134, %eax            # imm = 0x4ABE
	movl	%eax, %edi
	movl	$64, %eax
	movl	%eax, %esi
	movl	$1, %eax
	movl	%eax, %edx
	movabsq	$.L.str.80, %rcx
	xorl	%eax, %eax
	movl	%eax, %r8d
	movabsq	$.L.str.6, %r9
	movl	-820(%rbp), %eax        # 4-byte Reload
	cvtsi2sdl	%eax, %xmm0
	.loc	1 73 41                 # pp_scan.c:73:41
	movsd	%xmm0, -848(%rbp)       # 8-byte Spill
	callq	trace_logger_log_double
	movl	$73, %eax
	movl	%eax, %edi
	movabsq	$.L.str.71, %rsi
	movabsq	$.L.str.77, %rdx
	movabsq	$.L.str.81, %rcx
	movl	$19, %eax
	movl	%eax, %r8d
	xorl	%r9d, %r9d
	movl	$1, %eax
	movl	$1, (%rsp)
	movl	%eax, -852(%rbp)        # 4-byte Spill
	callq	trace_logger_log0
	movl	$2, %eax
	movl	%eax, %edi
	movl	$64, %eax
	movl	%eax, %esi
	movsd	.LCPI5_1(%rip), %xmm0   # xmm0 = mem[0],zero
	xorl	%eax, %eax
	movl	%eax, %ecx
	movabsq	$.L.str.16, %rdx
	movabsq	$.L.str.6, %r9
	movq	%rdx, -864(%rbp)        # 8-byte Spill
	movq	%rcx, %rdx
	movq	-864(%rbp), %r8         # 8-byte Reload
	movq	%rcx, -872(%rbp)        # 8-byte Spill
	movq	%r8, %rcx
	movq	-872(%rbp), %r8         # 8-byte Reload
	callq	trace_logger_log_double
	movl	$1, %eax
	movl	%eax, %ecx
	movl	$64, %eax
	movl	%eax, %esi
	movabsq	$.L.str.80, %rdx
	xorl	%eax, %eax
	movl	%eax, %r8d
	movabsq	$.L.str.6, %r9
	movq	%rcx, %rdi
	movsd	-848(%rbp), %xmm0       # 8-byte Reload
                                        # xmm0 = mem[0],zero
	movq	%rdx, -880(%rbp)        # 8-byte Spill
	movq	%rcx, %rdx
	movq	-880(%rbp), %rcx        # 8-byte Reload
	callq	trace_logger_log_double
	movl	$19134, %eax            # imm = 0x4ABE
	movl	%eax, %edi
	movl	$64, %eax
	movl	%eax, %esi
	movl	$1, %eax
	movl	%eax, %edx
	movabsq	$.L.str.81, %rcx
	xorl	%eax, %eax
	movl	%eax, %r8d
	movabsq	$.L.str.6, %r9
	movsd	.LCPI5_1(%rip), %xmm0   # xmm0 = mem[0],zero
	movsd	-848(%rbp), %xmm1       # 8-byte Reload
                                        # xmm1 = mem[0],zero
	divsd	%xmm0, %xmm1
	.loc	1 73 55                 # pp_scan.c:73:55
	movaps	%xmm1, %xmm0
	movsd	%xmm1, -888(%rbp)       # 8-byte Spill
	callq	trace_logger_log_double
	movl	$73, %eax
	movl	%eax, %edi
	movabsq	$.L.str.71, %rsi
	movabsq	$.L.str.77, %rdx
	movabsq	$.L.str.82, %rcx
	movl	$16, %eax
	movl	%eax, %r8d
	xorl	%r9d, %r9d
	movl	$1, %eax
	movl	$1, (%rsp)
	movl	%eax, -892(%rbp)        # 4-byte Spill
	callq	trace_logger_log0
	movl	$2, %eax
	movl	%eax, %edi
	movl	$64, %eax
	movl	%eax, %esi
	movsd	.LCPI5_0(%rip), %xmm0   # xmm0 = mem[0],zero
	xorl	%eax, %eax
	movl	%eax, %ecx
	movabsq	$.L.str.16, %rdx
	movabsq	$.L.str.6, %r9
	movq	%rdx, -904(%rbp)        # 8-byte Spill
	movq	%rcx, %rdx
	movq	-904(%rbp), %r8         # 8-byte Reload
	movq	%rcx, -912(%rbp)        # 8-byte Spill
	movq	%r8, %rcx
	movq	-912(%rbp), %r8         # 8-byte Reload
	callq	trace_logger_log_double
	movl	$1, %eax
	movl	%eax, %ecx
	movl	$64, %eax
	movl	%eax, %esi
	movabsq	$.L.str.81, %rdx
	xorl	%eax, %eax
	movl	%eax, %r8d
	movabsq	$.L.str.6, %r9
	movq	%rcx, %rdi
	movsd	-888(%rbp), %xmm0       # 8-byte Reload
                                        # xmm0 = mem[0],zero
	movq	%rdx, -920(%rbp)        # 8-byte Spill
	movq	%rcx, %rdx
	movq	-920(%rbp), %rcx        # 8-byte Reload
	callq	trace_logger_log_double
	movl	$19134, %eax            # imm = 0x4ABE
	movl	%eax, %edi
	movl	$64, %eax
	movl	%eax, %esi
	movl	$1, %eax
	movl	%eax, %edx
	movabsq	$.L.str.82, %rcx
	xorl	%eax, %eax
	movl	%eax, %r8d
	movabsq	$.L.str.6, %r9
	movsd	.LCPI5_0(%rip), %xmm0   # xmm0 = mem[0],zero
	movsd	-888(%rbp), %xmm1       # 8-byte Reload
                                        # xmm1 = mem[0],zero
	mulsd	%xmm0, %xmm1
	.loc	1 73 67                 # pp_scan.c:73:67
	movaps	%xmm1, %xmm0
	movsd	%xmm1, -928(%rbp)       # 8-byte Spill
	callq	trace_logger_log_double
	movl	$73, %eax
	movl	%eax, %edi
	movabsq	$.L.str.71, %rsi
	movabsq	$.L.str.77, %rdx
	movabsq	$.L.str.51, %rcx
	movl	$12, %eax
	movl	%eax, %r8d
	xorl	%r9d, %r9d
	movl	$1, %eax
	movl	$1, (%rsp)
	movl	%eax, -932(%rbp)        # 4-byte Spill
	callq	trace_logger_log0
	movl	$2, %eax
	movl	%eax, %edi
	movl	$64, %eax
	movl	%eax, %esi
	xorps	%xmm0, %xmm0
	xorl	%eax, %eax
	movl	%eax, %ecx
	movabsq	$.L.str.16, %rdx
	movabsq	$.L.str.6, %r9
	movq	%rdx, -944(%rbp)        # 8-byte Spill
	movq	%rcx, %rdx
	movq	-944(%rbp), %r8         # 8-byte Reload
	movq	%rcx, -952(%rbp)        # 8-byte Spill
	movq	%r8, %rcx
	movq	-952(%rbp), %r8         # 8-byte Reload
	callq	trace_logger_log_double
	movl	$1, %eax
	movl	%eax, %ecx
	movl	$64, %eax
	movl	%eax, %esi
	movabsq	$.L.str.82, %rdx
	xorl	%eax, %eax
	movl	%eax, %r8d
	movabsq	$.L.str.6, %r9
	movq	%rcx, %rdi
	movsd	-928(%rbp), %xmm0       # 8-byte Reload
                                        # xmm0 = mem[0],zero
	movq	%rdx, -960(%rbp)        # 8-byte Spill
	movq	%rcx, %rdx
	movq	-960(%rbp), %rcx        # 8-byte Reload
	callq	trace_logger_log_double
	movl	$19134, %eax            # imm = 0x4ABE
	movl	%eax, %edi
	movl	$64, %eax
	movl	%eax, %esi
	movl	$1, %eax
	movl	%eax, %edx
	movabsq	$.L.str.51, %rcx
	xorl	%eax, %eax
	movl	%eax, %r8d
	movabsq	$.L.str.6, %r9
	xorps	%xmm0, %xmm0
	movsd	-928(%rbp), %xmm1       # 8-byte Reload
                                        # xmm1 = mem[0],zero
	addsd	%xmm0, %xmm1
	.loc	1 73 17                 # pp_scan.c:73:17
	movaps	%xmm1, %xmm0
	movsd	%xmm1, -968(%rbp)       # 8-byte Spill
	callq	trace_logger_log_double
	movl	$73, %eax
	movl	%eax, %edi
	movabsq	$.L.str.71, %rsi
	movabsq	$.L.str.77, %rdx
	movabsq	$.L.str.83, %rcx
	movl	$40, %eax
	movl	%eax, %r8d
	xorl	%r9d, %r9d
	movl	$1, %eax
	movl	$1, (%rsp)
	movl	%eax, -972(%rbp)        # 4-byte Spill
	callq	trace_logger_log0
	movl	$1, %eax
	movl	%eax, %ecx
	movl	$64, %eax
	movl	%eax, %esi
	movabsq	$.L.str.51, %rdx
	xorl	%eax, %eax
	movl	%eax, %r8d
	movabsq	$.L.str.6, %r9
	movq	%rcx, %rdi
	movsd	-968(%rbp), %xmm0       # 8-byte Reload
                                        # xmm0 = mem[0],zero
	movq	%rdx, -984(%rbp)        # 8-byte Spill
	movq	%rcx, %rdx
	movq	-984(%rbp), %rcx        # 8-byte Reload
	callq	trace_logger_log_double
	movl	$19134, %eax            # imm = 0x4ABE
	movl	%eax, %edi
	movl	$32, %eax
	movl	%eax, %esi
	movl	$1, %eax
	movl	%eax, %ecx
	movabsq	$.L.str.83, %r8
	xorl	%eax, %eax
	movl	%eax, %r9d
	movabsq	$.L.str.6, %rdx
	movsd	-968(%rbp), %xmm0       # 8-byte Reload
                                        # xmm0 = mem[0],zero
	cvttsd2si	%xmm0, %eax
	.loc	1 73 5                  # pp_scan.c:73:5
	movl	%eax, %r10d
	movl	%r10d, %r11d
	movq	%rdx, -992(%rbp)        # 8-byte Spill
	movq	%r11, %rdx
	movq	-992(%rbp), %r11        # 8-byte Reload
	movq	%r11, (%rsp)
	movl	%eax, -996(%rbp)        # 4-byte Spill
	callq	trace_logger_log_int
	movl	$73, %eax
	movl	%eax, %edi
	movabsq	$.L.str.71, %rsi
	movabsq	$.L.str.77, %rdx
	movabsq	$.L.str.17, %rcx
	movl	$32, %eax
	movl	%eax, %r8d
	xorl	%r9d, %r9d
	movl	$1, %eax
	movl	$1, (%rsp)
	movl	%eax, -1000(%rbp)       # 4-byte Spill
	callq	trace_logger_log0
	movl	$2, %eax
	movl	%eax, %edi
	movl	$64, %eax
	movl	%eax, %esi
	movl	$1, %eax
	movl	%eax, %ecx
	movabsq	$.L.str.14, %r8
	xorl	%eax, %eax
	movl	%eax, %r9d
	movabsq	$.L.str.6, %rdx
	movq	-768(%rbp), %r11        # 8-byte Reload
	movq	%rdx, -1008(%rbp)       # 8-byte Spill
	movq	%r11, %rdx
	movq	-1008(%rbp), %rbx       # 8-byte Reload
	movq	%rbx, (%rsp)
	callq	trace_logger_log_int
	movl	$1, %eax
	movl	%eax, %ecx
	movl	$64, %eax
	movl	%eax, %esi
	movabsq	$.L.str.20, %r8
	xorl	%eax, %eax
	movl	%eax, %r9d
	movabsq	$.L.str.6, %rdx
	movq	%rcx, %rdi
	movq	-640(%rbp), %r11        # 8-byte Reload
	movq	%rdx, -1016(%rbp)       # 8-byte Spill
	movq	%r11, %rdx
	movq	-1016(%rbp), %rbx       # 8-byte Reload
	movq	%rbx, (%rsp)
	callq	trace_logger_log_ptr
	movl	$19134, %eax            # imm = 0x4ABE
	movl	%eax, %edi
	movl	$64, %eax
	movl	%eax, %esi
	movl	$1, %eax
	movl	%eax, %ecx
	movabsq	$.L.str.17, %r8
	xorl	%eax, %eax
	movl	%eax, %r9d
	movabsq	$.L.str.6, %rdx
	movq	-768(%rbp), %r11        # 8-byte Reload
	shlq	$2, %r11
	movq	-640(%rbp), %rbx        # 8-byte Reload
	addq	%r11, %rbx
	.loc	1 73 15                 # pp_scan.c:73:15
	movq	%rdx, -1024(%rbp)       # 8-byte Spill
	movq	%rbx, %rdx
	movq	-1024(%rbp), %r11       # 8-byte Reload
	movq	%r11, (%rsp)
	movq	%rbx, -1032(%rbp)       # 8-byte Spill
	callq	trace_logger_log_ptr
	movl	$73, %eax
	movl	%eax, %edi
	movabsq	$.L.str.71, %rsi
	movabsq	$.L.str.77, %rdx
	movabsq	$.L.str.84, %rcx
	movl	$31, %eax
	movl	%eax, %r8d
	xorl	%r9d, %r9d
	movl	$1, %eax
	movl	$1, (%rsp)
	movl	%eax, -1036(%rbp)       # 4-byte Spill
	callq	trace_logger_log0
	movl	$2, %eax
	movl	%eax, %edi
	movl	$64, %eax
	movl	%eax, %esi
	movl	$1, %eax
	movl	%eax, %ecx
	movabsq	$.L.str.17, %r8
	xorl	%eax, %eax
	movl	%eax, %r9d
	movabsq	$.L.str.6, %rdx
	movq	-1032(%rbp), %r11       # 8-byte Reload
	movq	%rdx, -1048(%rbp)       # 8-byte Spill
	movq	%r11, %rdx
	movq	-1048(%rbp), %rbx       # 8-byte Reload
	movq	%rbx, (%rsp)
	callq	trace_logger_log_ptr
	movl	$1, %eax
	movl	%eax, %ecx
	movl	$32, %eax
	movl	%eax, %esi
	movabsq	$.L.str.83, %r8
	xorl	%eax, %eax
	movl	%eax, %r9d
	movabsq	$.L.str.6, %rdx
	movl	-996(%rbp), %eax        # 4-byte Reload
	movl	%eax, %r10d
	movl	%r10d, %edi
	movq	%rdi, -1056(%rbp)       # 8-byte Spill
	movq	%rcx, %rdi
	movq	-1056(%rbp), %r11       # 8-byte Reload
	movq	%rdx, -1064(%rbp)       # 8-byte Spill
	movq	%r11, %rdx
	movq	-1064(%rbp), %rbx       # 8-byte Reload
	movq	%rbx, (%rsp)
	callq	trace_logger_log_int
	movl	$74, %eax
	movl	%eax, %edi
	movabsq	$.L.str.71, %rsi
	movabsq	$.L.str.77, %rdx
	movabsq	$.L.str.85, %rcx
	movl	$54, %eax
	movl	%eax, %r8d
	xorl	%r9d, %r9d
	movl	$1, %eax
	movq	-640(%rbp), %r11        # 8-byte Reload
	movq	-768(%rbp), %rbx        # 8-byte Reload
	movl	-996(%rbp), %r10d       # 4-byte Reload
	movl	%r10d, (%r11,%rbx,4)
	.loc	1 74 35 is_stmt 1       # pp_scan.c:74:35
	movl	$1, (%rsp)
	movl	%eax, -1068(%rbp)       # 4-byte Spill
	callq	trace_logger_log0
	movl	$1, %eax
	movl	%eax, %ecx
	movl	$64, %eax
	movl	%eax, %esi
	movabsq	$rand, %rdx
	movabsq	$.L.str.79, %r8
	xorl	%eax, %eax
	movl	%eax, %r9d
	movabsq	$.L.str.6, %rdi
	movq	%rdi, -1080(%rbp)       # 8-byte Spill
	movq	%rcx, %rdi
	movq	-1080(%rbp), %r11       # 8-byte Reload
	movq	%r11, (%rsp)
	callq	trace_logger_log_ptr
	callq	rand
	movl	$19134, %r10d           # imm = 0x4ABE
	movl	%r10d, %edi
	movl	$32, %r10d
	movl	%r10d, %esi
	movl	$1, %r10d
	movl	%r10d, %ecx
	movabsq	$.L.str.85, %r8
	xorl	%r10d, %r10d
	movl	%r10d, %r9d
	movabsq	$.L.str.6, %rdx
	.loc	1 74 26 is_stmt 0       # pp_scan.c:74:26
	movl	%eax, %r10d
	movl	%r10d, %r11d
	movq	%rdx, -1088(%rbp)       # 8-byte Spill
	movq	%r11, %rdx
	movq	-1088(%rbp), %r11       # 8-byte Reload
	movq	%r11, (%rsp)
	movl	%eax, -1092(%rbp)       # 4-byte Spill
	callq	trace_logger_log_int
	movl	$74, %eax
	movl	%eax, %edi
	movabsq	$.L.str.71, %rsi
	movabsq	$.L.str.77, %rdx
	movabsq	$.L.str.86, %rcx
	movl	$42, %eax
	movl	%eax, %r8d
	xorl	%r9d, %r9d
	movl	$1, %eax
	movl	$1, (%rsp)
	movl	%eax, -1096(%rbp)       # 4-byte Spill
	callq	trace_logger_log0
	movl	$1, %eax
	movl	%eax, %ecx
	movl	$32, %eax
	movl	%eax, %esi
	movabsq	$.L.str.85, %r8
	xorl	%eax, %eax
	movl	%eax, %r9d
	movabsq	$.L.str.6, %rdx
	movl	-1092(%rbp), %eax       # 4-byte Reload
	movl	%eax, %r10d
	movl	%r10d, %edi
	movq	%rdi, -1104(%rbp)       # 8-byte Spill
	movq	%rcx, %rdi
	movq	-1104(%rbp), %r11       # 8-byte Reload
	movq	%rdx, -1112(%rbp)       # 8-byte Spill
	movq	%r11, %rdx
	movq	-1112(%rbp), %rbx       # 8-byte Reload
	movq	%rbx, (%rsp)
	callq	trace_logger_log_int
	movl	$19134, %eax            # imm = 0x4ABE
	movl	%eax, %edi
	movl	$64, %eax
	movl	%eax, %esi
	movl	$1, %eax
	movl	%eax, %edx
	movabsq	$.L.str.86, %rcx
	xorl	%eax, %eax
	movl	%eax, %r8d
	movabsq	$.L.str.6, %r9
	movl	-1092(%rbp), %eax       # 4-byte Reload
	cvtsi2sdl	%eax, %xmm0
	.loc	1 74 42                 # pp_scan.c:74:42
	movsd	%xmm0, -1120(%rbp)      # 8-byte Spill
	callq	trace_logger_log_double
	movl	$74, %eax
	movl	%eax, %edi
	movabsq	$.L.str.71, %rsi
	movabsq	$.L.str.77, %rdx
	movabsq	$.L.str.87, %rcx
	movl	$19, %eax
	movl	%eax, %r8d
	xorl	%r9d, %r9d
	movl	$1, %eax
	movl	$1, (%rsp)
	movl	%eax, -1124(%rbp)       # 4-byte Spill
	callq	trace_logger_log0
	movl	$2, %eax
	movl	%eax, %edi
	movl	$64, %eax
	movl	%eax, %esi
	movsd	.LCPI5_1(%rip), %xmm0   # xmm0 = mem[0],zero
	xorl	%eax, %eax
	movl	%eax, %ecx
	movabsq	$.L.str.16, %rdx
	movabsq	$.L.str.6, %r9
	movq	%rdx, -1136(%rbp)       # 8-byte Spill
	movq	%rcx, %rdx
	movq	-1136(%rbp), %r8        # 8-byte Reload
	movq	%rcx, -1144(%rbp)       # 8-byte Spill
	movq	%r8, %rcx
	movq	-1144(%rbp), %r8        # 8-byte Reload
	callq	trace_logger_log_double
	movl	$1, %eax
	movl	%eax, %ecx
	movl	$64, %eax
	movl	%eax, %esi
	movabsq	$.L.str.86, %rdx
	xorl	%eax, %eax
	movl	%eax, %r8d
	movabsq	$.L.str.6, %r9
	movq	%rcx, %rdi
	movsd	-1120(%rbp), %xmm0      # 8-byte Reload
                                        # xmm0 = mem[0],zero
	movq	%rdx, -1152(%rbp)       # 8-byte Spill
	movq	%rcx, %rdx
	movq	-1152(%rbp), %rcx       # 8-byte Reload
	callq	trace_logger_log_double
	movl	$19134, %eax            # imm = 0x4ABE
	movl	%eax, %edi
	movl	$64, %eax
	movl	%eax, %esi
	movl	$1, %eax
	movl	%eax, %edx
	movabsq	$.L.str.87, %rcx
	xorl	%eax, %eax
	movl	%eax, %r8d
	movabsq	$.L.str.6, %r9
	movsd	.LCPI5_1(%rip), %xmm0   # xmm0 = mem[0],zero
	movsd	-1120(%rbp), %xmm1      # 8-byte Reload
                                        # xmm1 = mem[0],zero
	divsd	%xmm0, %xmm1
	.loc	1 74 56                 # pp_scan.c:74:56
	movaps	%xmm1, %xmm0
	movsd	%xmm1, -1160(%rbp)      # 8-byte Spill
	callq	trace_logger_log_double
	movl	$74, %eax
	movl	%eax, %edi
	movabsq	$.L.str.71, %rsi
	movabsq	$.L.str.77, %rdx
	movabsq	$.L.str.88, %rcx
	movl	$16, %eax
	movl	%eax, %r8d
	xorl	%r9d, %r9d
	movl	$1, %eax
	movl	$1, (%rsp)
	movl	%eax, -1164(%rbp)       # 4-byte Spill
	callq	trace_logger_log0
	movl	$2, %eax
	movl	%eax, %edi
	movl	$64, %eax
	movl	%eax, %esi
	movsd	.LCPI5_0(%rip), %xmm0   # xmm0 = mem[0],zero
	xorl	%eax, %eax
	movl	%eax, %ecx
	movabsq	$.L.str.16, %rdx
	movabsq	$.L.str.6, %r9
	movq	%rdx, -1176(%rbp)       # 8-byte Spill
	movq	%rcx, %rdx
	movq	-1176(%rbp), %r8        # 8-byte Reload
	movq	%rcx, -1184(%rbp)       # 8-byte Spill
	movq	%r8, %rcx
	movq	-1184(%rbp), %r8        # 8-byte Reload
	callq	trace_logger_log_double
	movl	$1, %eax
	movl	%eax, %ecx
	movl	$64, %eax
	movl	%eax, %esi
	movabsq	$.L.str.87, %rdx
	xorl	%eax, %eax
	movl	%eax, %r8d
	movabsq	$.L.str.6, %r9
	movq	%rcx, %rdi
	movsd	-1160(%rbp), %xmm0      # 8-byte Reload
                                        # xmm0 = mem[0],zero
	movq	%rdx, -1192(%rbp)       # 8-byte Spill
	movq	%rcx, %rdx
	movq	-1192(%rbp), %rcx       # 8-byte Reload
	callq	trace_logger_log_double
	movl	$19134, %eax            # imm = 0x4ABE
	movl	%eax, %edi
	movl	$64, %eax
	movl	%eax, %esi
	movl	$1, %eax
	movl	%eax, %edx
	movabsq	$.L.str.88, %rcx
	xorl	%eax, %eax
	movl	%eax, %r8d
	movabsq	$.L.str.6, %r9
	movsd	.LCPI5_0(%rip), %xmm0   # xmm0 = mem[0],zero
	movsd	-1160(%rbp), %xmm1      # 8-byte Reload
                                        # xmm1 = mem[0],zero
	mulsd	%xmm0, %xmm1
	.loc	1 74 68                 # pp_scan.c:74:68
	movaps	%xmm1, %xmm0
	movsd	%xmm1, -1200(%rbp)      # 8-byte Spill
	callq	trace_logger_log_double
	movl	$74, %eax
	movl	%eax, %edi
	movabsq	$.L.str.71, %rsi
	movabsq	$.L.str.77, %rdx
	movabsq	$.L.str.89, %rcx
	movl	$12, %eax
	movl	%eax, %r8d
	xorl	%r9d, %r9d
	movl	$1, %eax
	movl	$1, (%rsp)
	movl	%eax, -1204(%rbp)       # 4-byte Spill
	callq	trace_logger_log0
	movl	$2, %eax
	movl	%eax, %edi
	movl	$64, %eax
	movl	%eax, %esi
	xorps	%xmm0, %xmm0
	xorl	%eax, %eax
	movl	%eax, %ecx
	movabsq	$.L.str.16, %rdx
	movabsq	$.L.str.6, %r9
	movq	%rdx, -1216(%rbp)       # 8-byte Spill
	movq	%rcx, %rdx
	movq	-1216(%rbp), %r8        # 8-byte Reload
	movq	%rcx, -1224(%rbp)       # 8-byte Spill
	movq	%r8, %rcx
	movq	-1224(%rbp), %r8        # 8-byte Reload
	callq	trace_logger_log_double
	movl	$1, %eax
	movl	%eax, %ecx
	movl	$64, %eax
	movl	%eax, %esi
	movabsq	$.L.str.88, %rdx
	xorl	%eax, %eax
	movl	%eax, %r8d
	movabsq	$.L.str.6, %r9
	movq	%rcx, %rdi
	movsd	-1200(%rbp), %xmm0      # 8-byte Reload
                                        # xmm0 = mem[0],zero
	movq	%rdx, -1232(%rbp)       # 8-byte Spill
	movq	%rcx, %rdx
	movq	-1232(%rbp), %rcx       # 8-byte Reload
	callq	trace_logger_log_double
	movl	$19134, %eax            # imm = 0x4ABE
	movl	%eax, %edi
	movl	$64, %eax
	movl	%eax, %esi
	movl	$1, %eax
	movl	%eax, %edx
	movabsq	$.L.str.89, %rcx
	xorl	%eax, %eax
	movl	%eax, %r8d
	movabsq	$.L.str.6, %r9
	xorps	%xmm0, %xmm0
	movsd	-1200(%rbp), %xmm1      # 8-byte Reload
                                        # xmm1 = mem[0],zero
	addsd	%xmm0, %xmm1
	.loc	1 74 18                 # pp_scan.c:74:18
	movaps	%xmm1, %xmm0
	movsd	%xmm1, -1240(%rbp)      # 8-byte Spill
	callq	trace_logger_log_double
	movl	$74, %eax
	movl	%eax, %edi
	movabsq	$.L.str.71, %rsi
	movabsq	$.L.str.77, %rdx
	movabsq	$.L.str.90, %rcx
	movl	$40, %eax
	movl	%eax, %r8d
	xorl	%r9d, %r9d
	movl	$1, %eax
	movl	$1, (%rsp)
	movl	%eax, -1244(%rbp)       # 4-byte Spill
	callq	trace_logger_log0
	movl	$1, %eax
	movl	%eax, %ecx
	movl	$64, %eax
	movl	%eax, %esi
	movabsq	$.L.str.89, %rdx
	xorl	%eax, %eax
	movl	%eax, %r8d
	movabsq	$.L.str.6, %r9
	movq	%rcx, %rdi
	movsd	-1240(%rbp), %xmm0      # 8-byte Reload
                                        # xmm0 = mem[0],zero
	movq	%rdx, -1256(%rbp)       # 8-byte Spill
	movq	%rcx, %rdx
	movq	-1256(%rbp), %rcx       # 8-byte Reload
	callq	trace_logger_log_double
	movl	$19134, %eax            # imm = 0x4ABE
	movl	%eax, %edi
	movl	$32, %eax
	movl	%eax, %esi
	movl	$1, %eax
	movl	%eax, %ecx
	movabsq	$.L.str.90, %r8
	xorl	%eax, %eax
	movl	%eax, %r9d
	movabsq	$.L.str.6, %rdx
	movsd	-1240(%rbp), %xmm0      # 8-byte Reload
                                        # xmm0 = mem[0],zero
	cvttsd2si	%xmm0, %eax
	.loc	1 74 5                  # pp_scan.c:74:5
	movl	%eax, %r10d
	movl	%r10d, %r11d
	movq	%rdx, -1264(%rbp)       # 8-byte Spill
	movq	%r11, %rdx
	movq	-1264(%rbp), %r11       # 8-byte Reload
	movq	%r11, (%rsp)
	movl	%eax, -1268(%rbp)       # 4-byte Spill
	callq	trace_logger_log_int
	movl	$74, %eax
	movl	%eax, %edi
	movabsq	$.L.str.71, %rsi
	movabsq	$.L.str.77, %rdx
	movabsq	$.L.str.91, %rcx
	movl	$32, %eax
	movl	%eax, %r8d
	xorl	%r9d, %r9d
	movl	$1, %eax
	movl	$1, (%rsp)
	movl	%eax, -1272(%rbp)       # 4-byte Spill
	callq	trace_logger_log0
	movl	$2, %eax
	movl	%eax, %edi
	movl	$64, %eax
	movl	%eax, %esi
	movl	$1, %eax
	movl	%eax, %ecx
	movabsq	$.L.str.14, %r8
	xorl	%eax, %eax
	movl	%eax, %r9d
	movabsq	$.L.str.6, %rdx
	movq	-768(%rbp), %r11        # 8-byte Reload
	movq	%rdx, -1280(%rbp)       # 8-byte Spill
	movq	%r11, %rdx
	movq	-1280(%rbp), %rbx       # 8-byte Reload
	movq	%rbx, (%rsp)
	callq	trace_logger_log_int
	movl	$1, %eax
	movl	%eax, %ecx
	movl	$64, %eax
	movl	%eax, %esi
	movabsq	$.L.str.74, %r8
	xorl	%eax, %eax
	movl	%eax, %r9d
	movabsq	$.L.str.6, %rdx
	movq	%rcx, %rdi
	movq	-696(%rbp), %r11        # 8-byte Reload
	movq	%rdx, -1288(%rbp)       # 8-byte Spill
	movq	%r11, %rdx
	movq	-1288(%rbp), %rbx       # 8-byte Reload
	movq	%rbx, (%rsp)
	callq	trace_logger_log_ptr
	movl	$19134, %eax            # imm = 0x4ABE
	movl	%eax, %edi
	movl	$64, %eax
	movl	%eax, %esi
	movl	$1, %eax
	movl	%eax, %ecx
	movabsq	$.L.str.91, %r8
	xorl	%eax, %eax
	movl	%eax, %r9d
	movabsq	$.L.str.6, %rdx
	movq	-768(%rbp), %r11        # 8-byte Reload
	shlq	$2, %r11
	movq	-696(%rbp), %rbx        # 8-byte Reload
	addq	%r11, %rbx
	.loc	1 74 16                 # pp_scan.c:74:16
	movq	%rdx, -1296(%rbp)       # 8-byte Spill
	movq	%rbx, %rdx
	movq	-1296(%rbp), %r11       # 8-byte Reload
	movq	%r11, (%rsp)
	movq	%rbx, -1304(%rbp)       # 8-byte Spill
	callq	trace_logger_log_ptr
	movl	$74, %eax
	movl	%eax, %edi
	movabsq	$.L.str.71, %rsi
	movabsq	$.L.str.77, %rdx
	movabsq	$.L.str.92, %rcx
	movl	$31, %eax
	movl	%eax, %r8d
	xorl	%r9d, %r9d
	movl	$1, %eax
	movl	$1, (%rsp)
	movl	%eax, -1308(%rbp)       # 4-byte Spill
	callq	trace_logger_log0
	movl	$2, %eax
	movl	%eax, %edi
	movl	$64, %eax
	movl	%eax, %esi
	movl	$1, %eax
	movl	%eax, %ecx
	movabsq	$.L.str.91, %r8
	xorl	%eax, %eax
	movl	%eax, %r9d
	movabsq	$.L.str.6, %rdx
	movq	-1304(%rbp), %r11       # 8-byte Reload
	movq	%rdx, -1320(%rbp)       # 8-byte Spill
	movq	%r11, %rdx
	movq	-1320(%rbp), %rbx       # 8-byte Reload
	movq	%rbx, (%rsp)
	callq	trace_logger_log_ptr
	movl	$1, %eax
	movl	%eax, %ecx
	movl	$32, %eax
	movl	%eax, %esi
	movabsq	$.L.str.90, %r8
	xorl	%eax, %eax
	movl	%eax, %r9d
	movabsq	$.L.str.6, %rdx
	movl	-1268(%rbp), %eax       # 4-byte Reload
	movl	%eax, %r10d
	movl	%r10d, %edi
	movq	%rdi, -1328(%rbp)       # 8-byte Spill
	movq	%rcx, %rdi
	movq	-1328(%rbp), %r11       # 8-byte Reload
	movq	%rdx, -1336(%rbp)       # 8-byte Spill
	movq	%r11, %rdx
	movq	-1336(%rbp), %rbx       # 8-byte Reload
	movq	%rbx, (%rsp)
	callq	trace_logger_log_int
	movl	$72, %eax
	movl	%eax, %edi
	movabsq	$.L.str.71, %rsi
	movabsq	$.L.str.77, %rdx
	movabsq	$.L.str.15, %rcx
	movl	$11, %eax
	movl	%eax, %r8d
	xorl	%r9d, %r9d
	movl	$1, %eax
	movq	-696(%rbp), %r11        # 8-byte Reload
	movq	-768(%rbp), %rbx        # 8-byte Reload
	movl	-1268(%rbp), %r10d      # 4-byte Reload
	movl	%r10d, (%r11,%rbx,4)
.Ltmp49:
	.loc	1 72 18 is_stmt 1       # pp_scan.c:72:18
	movl	$1, (%rsp)
	movl	%eax, -1340(%rbp)       # 4-byte Spill
	callq	trace_logger_log0
	movl	$2, %eax
	movl	%eax, %edi
	movl	$64, %eax
	movl	%eax, %esi
	movl	$1, %eax
	movl	%eax, %edx
	xorl	%eax, %eax
	movl	%eax, %ecx
	movabsq	$.L.str.16, %r8
	movabsq	$.L.str.6, %r11
	movq	%rcx, -1352(%rbp)       # 8-byte Spill
	movq	-1352(%rbp), %r9        # 8-byte Reload
	movq	%r11, (%rsp)
	callq	trace_logger_log_int
	movl	$1, %eax
	movl	%eax, %ecx
	movl	$64, %eax
	movl	%eax, %esi
	movabsq	$.L.str.14, %r8
	xorl	%eax, %eax
	movl	%eax, %r9d
	movabsq	$.L.str.6, %rdx
	movq	%rcx, %rdi
	movq	-768(%rbp), %r11        # 8-byte Reload
	movq	%rdx, -1360(%rbp)       # 8-byte Spill
	movq	%r11, %rdx
	movq	-1360(%rbp), %rbx       # 8-byte Reload
	movq	%rbx, (%rsp)
	callq	trace_logger_log_int
	movl	$19134, %eax            # imm = 0x4ABE
	movl	%eax, %edi
	movl	$64, %eax
	movl	%eax, %esi
	movl	$1, %eax
	movl	%eax, %ecx
	movabsq	$.L.str.15, %r8
	xorl	%eax, %eax
	movl	%eax, %r9d
	movabsq	$.L.str.6, %rdx
	movq	-768(%rbp), %r11        # 8-byte Reload
	addq	$1, %r11
	.loc	1 72 13 is_stmt 0       # pp_scan.c:72:13
	movq	%rdx, -1368(%rbp)       # 8-byte Spill
	movq	%r11, %rdx
	movq	-1368(%rbp), %rbx       # 8-byte Reload
	movq	%rbx, (%rsp)
	movq	%r11, -1376(%rbp)       # 8-byte Spill
	callq	trace_logger_log_int
	movl	$72, %eax
	movl	%eax, %edi
	movabsq	$.L.str.71, %rsi
	movabsq	$.L.str.77, %rdx
	movabsq	$.L.str.23, %rcx
	movl	$51, %eax
	movl	%eax, %r8d
	xorl	%r9d, %r9d
	movl	$1, %eax
	movl	$1, (%rsp)
	movl	%eax, -1380(%rbp)       # 4-byte Spill
	callq	trace_logger_log0
	movl	$2, %eax
	movl	%eax, %edi
	movl	$64, %eax
	movl	%eax, %esi
	movl	$2048, %eax             # imm = 0x800
	movl	%eax, %edx
	xorl	%eax, %eax
	movl	%eax, %ecx
	movabsq	$.L.str.16, %r8
	movabsq	$.L.str.6, %r11
	movq	%rcx, -1392(%rbp)       # 8-byte Spill
	movq	-1392(%rbp), %r9        # 8-byte Reload
	movq	%r11, (%rsp)
	callq	trace_logger_log_int
	movl	$1, %eax
	movl	%eax, %ecx
	movl	$64, %eax
	movl	%eax, %esi
	movabsq	$.L.str.15, %r8
	xorl	%eax, %eax
	movl	%eax, %r9d
	movabsq	$.L.str.6, %rdx
	movq	%rcx, %rdi
	movq	-1376(%rbp), %r11       # 8-byte Reload
	movq	%rdx, -1400(%rbp)       # 8-byte Spill
	movq	%r11, %rdx
	movq	-1400(%rbp), %rbx       # 8-byte Reload
	movq	%rbx, (%rsp)
	callq	trace_logger_log_int
	movl	$19134, %eax            # imm = 0x4ABE
	movl	%eax, %edi
	movl	$1, %eax
	movl	%eax, %ecx
	movabsq	$.L.str.23, %r8
	xorl	%eax, %eax
	movl	%eax, %r9d
	movabsq	$.L.str.6, %rdx
	movq	-1376(%rbp), %rsi       # 8-byte Reload
	cmpq	$2048, %rsi             # imm = 0x800
	sete	%r14b
.Ltmp50:
	.loc	1 72 3                  # pp_scan.c:72:3
	movb	%r14b, %r15b
	andb	$1, %r15b
	movzbl	%r15b, %eax
	movl	%eax, %r11d
	movq	%rcx, %rsi
	movq	%rdx, -1408(%rbp)       # 8-byte Spill
	movq	%r11, %rdx
	movq	-1408(%rbp), %r11       # 8-byte Reload
	movq	%r11, (%rsp)
	movb	%r14b, -1409(%rbp)      # 1-byte Spill
	callq	trace_logger_log_int
	movl	$72, %eax
	movl	%eax, %edi
	movabsq	$.L.str.71, %rsi
	movabsq	$.L.str.77, %rdx
	movabsq	$.L.str.93, %rcx
	movl	$2, %eax
	movl	%eax, %r8d
	xorl	%r9d, %r9d
	movl	$1, %eax
	movl	$1, (%rsp)
	movl	%eax, -1416(%rbp)       # 4-byte Spill
	callq	trace_logger_log0
	movl	$3, %eax
	movl	%eax, %edi
	xorl	%eax, %eax
	movl	%eax, %ecx
	movl	$1, %eax
	movl	%eax, %edx
	movabsq	$.L.str.55, %r8
	movabsq	$.L.str.6, %rsi
	movq	%rsi, -1424(%rbp)       # 8-byte Spill
	movq	%rcx, %rsi
	movq	%rdx, -1432(%rbp)       # 8-byte Spill
	movq	%rcx, %rdx
	movq	-1432(%rbp), %r11       # 8-byte Reload
	movq	%rcx, -1440(%rbp)       # 8-byte Spill
	movq	%r11, %rcx
	movq	-1440(%rbp), %r9        # 8-byte Reload
	movq	-1424(%rbp), %rbx       # 8-byte Reload
	movq	%rbx, (%rsp)
	callq	trace_logger_log_int
	movl	$2, %eax
	movl	%eax, %edi
	xorl	%eax, %eax
	movl	%eax, %ecx
	movl	$1, %eax
	movl	%eax, %edx
	movabsq	$.L.str.77, %r8
	movabsq	$.L.str.6, %rsi
	movq	%rsi, -1448(%rbp)       # 8-byte Spill
	movq	%rcx, %rsi
	movq	%rdx, -1456(%rbp)       # 8-byte Spill
	movq	%rcx, %rdx
	movq	-1456(%rbp), %r9        # 8-byte Reload
	movq	%rcx, -1464(%rbp)       # 8-byte Spill
	movq	%r9, %rcx
	movq	-1464(%rbp), %r9        # 8-byte Reload
	movq	-1448(%rbp), %r11       # 8-byte Reload
	movq	%r11, (%rsp)
	callq	trace_logger_log_int
	movl	$1, %eax
	movl	%eax, %ecx
	movabsq	$.L.str.23, %r8
	xorl	%eax, %eax
	movl	%eax, %r9d
	movabsq	$.L.str.6, %rdx
	movb	-1409(%rbp), %r14b      # 1-byte Reload
	andb	$1, %r14b
	movzbl	%r14b, %eax
	movl	%eax, %esi
	movq	%rcx, %rdi
	movq	%rsi, -1472(%rbp)       # 8-byte Spill
	movq	%rcx, %rsi
	movq	-1472(%rbp), %r11       # 8-byte Reload
	movq	%rdx, -1480(%rbp)       # 8-byte Spill
	movq	%r11, %rdx
	movq	-1480(%rbp), %rbx       # 8-byte Reload
	movq	%rbx, (%rsp)
	callq	trace_logger_log_int
	movb	-1409(%rbp), %r14b      # 1-byte Reload
	testb	$1, %r14b
	movq	-1376(%rbp), %rcx       # 8-byte Reload
	movq	%rcx, -760(%rbp)        # 8-byte Spill
	jne	.LBB5_2
	jmp	.LBB5_1
.Ltmp51:
.LBB5_2:
	#DEBUG_VALUE: main:i <- [DW_OP_constu 768, DW_OP_minus] [%rbp+0]
	#DEBUG_VALUE: main:bucket2 <- [DW_OP_constu 696, DW_OP_minus] [%rbp+0]
	#DEBUG_VALUE: main:bucket <- [DW_OP_constu 640, DW_OP_minus] [%rbp+0]
	.loc	1 0 3                   # pp_scan.c:0:3
	movl	$77, %eax
	movl	%eax, %edi
	movabsq	$.L.str.71, %rsi
	movabsq	$.L.str.55, %rdx
	movabsq	$.L.str.56, %rcx
	movl	$54, %eax
	movl	%eax, %r8d
	xorl	%r9d, %r9d
	movl	$1, %eax
	.loc	1 77 2 is_stmt 1        # pp_scan.c:77:2
	movl	$1, (%rsp)
	movl	%eax, -1484(%rbp)       # 4-byte Spill
	callq	trace_logger_log0
	movl	$3, %eax
	movl	%eax, %edi
	movl	$64, %eax
	movl	%eax, %esi
	movabsq	$print, %rdx
	movl	$1, %eax
	movl	%eax, %ecx
	movabsq	$.L.str.2, %r8
	xorl	%eax, %eax
	movl	%eax, %r9d
	movabsq	$.L.str.6, %r10
	movq	%r10, (%rsp)
	callq	trace_logger_log_ptr
	movl	$1, %eax
	movl	%eax, %ecx
	movl	$64, %eax
	movl	%eax, %esi
	movabsq	$.L.str.20, %r8
	xorl	%eax, %eax
	movl	%eax, %r9d
	movabsq	$.L.str.6, %rdx
	movq	%rcx, %rdi
	movq	-640(%rbp), %r10        # 8-byte Reload
	movq	%rdx, -1496(%rbp)       # 8-byte Spill
	movq	%r10, %rdx
	movq	-1496(%rbp), %r11       # 8-byte Reload
	movq	%r11, (%rsp)
	callq	trace_logger_log_ptr
	movl	$2, %eax
	movl	%eax, %edi
	movl	$32, %eax
	movl	%eax, %esi
	movl	$1, %eax
	movl	%eax, %edx
	xorl	%eax, %eax
	movl	%eax, %ecx
	movabsq	$.L.str.16, %r8
	movabsq	$.L.str.6, %r9
	movq	%rcx, -1504(%rbp)       # 8-byte Spill
	movq	-1504(%rbp), %r10       # 8-byte Reload
	movq	%r9, -1512(%rbp)        # 8-byte Spill
	movq	%r10, %r9
	movq	-1512(%rbp), %r11       # 8-byte Reload
	movq	%r11, (%rsp)
	callq	trace_logger_log_int
	movl	$1, %esi
	movq	-640(%rbp), %rdi        # 8-byte Reload
	callq	print
	movl	$78, %eax
	movl	%eax, %edi
	movabsq	$.L.str.71, %rsi
	movabsq	$.L.str.55, %rdx
	movabsq	$.L.str.94, %rcx
	movl	$54, %eax
	movl	%eax, %r8d
	xorl	%r9d, %r9d
	movl	$1, %eax
	.loc	1 78 2                  # pp_scan.c:78:2
	movl	$1, (%rsp)
	movl	%eax, -1516(%rbp)       # 4-byte Spill
	callq	trace_logger_log0
	movl	$2, %eax
	movl	%eax, %edi
	movl	$64, %eax
	movl	%eax, %esi
	movabsq	$printf, %rdx
	movl	$1, %eax
	movl	%eax, %ecx
	movabsq	$.L.str.21, %r8
	xorl	%eax, %eax
	movl	%eax, %r9d
	movabsq	$.L.str.6, %r10
	movq	%r10, (%rsp)
	callq	trace_logger_log_ptr
	movl	$1, %eax
	movl	%eax, %edi
	movl	$64, %eax
	movl	%eax, %esi
	movabsq	$.L.str.95, %rdx
	xorl	%eax, %eax
	movl	%eax, %ecx
	movabsq	$.L.str.16, %r8
	movabsq	$.L.str.6, %r9
	movq	%rcx, -1528(%rbp)       # 8-byte Spill
	movq	-1528(%rbp), %r10       # 8-byte Reload
	movq	%r9, -1536(%rbp)        # 8-byte Spill
	movq	%r10, %r9
	movq	-1536(%rbp), %r11       # 8-byte Reload
	movq	%r11, (%rsp)
	callq	trace_logger_log_string
	movabsq	$.L.str.1, %rdi
	movb	$0, %al
	callq	printf
	movl	$19134, %ebx            # imm = 0x4ABE
	movl	%ebx, %edi
	movl	$32, %ebx
	movl	%ebx, %esi
	movl	$1, %ebx
	movl	%ebx, %ecx
	movabsq	$.L.str.94, %r8
	xorl	%ebx, %ebx
	movl	%ebx, %r9d
	movabsq	$.L.str.6, %rdx
	.loc	1 83 27                 # pp_scan.c:83:27
	movl	%eax, %eax
	movl	%eax, %r10d
	movq	%rdx, -1544(%rbp)       # 8-byte Spill
	movq	%r10, %rdx
	movq	-1544(%rbp), %r10       # 8-byte Reload
	movq	%r10, (%rsp)
	callq	trace_logger_log_int
	movl	$83, %eax
	movl	%eax, %edi
	movabsq	$.L.str.71, %rsi
	movabsq	$.L.str.55, %rdx
	movabsq	$.L.str.96, %rcx
	movl	$32, %eax
	movl	%eax, %r8d
	xorl	%r9d, %r9d
	movl	$1, %eax
	movl	$1, (%rsp)
	movl	%eax, -1548(%rbp)       # 4-byte Spill
	callq	trace_logger_log0
	movl	$3, %eax
	movl	%eax, %edi
	movl	$64, %eax
	movl	%eax, %esi
	xorl	%eax, %eax
	movl	%eax, %ecx
	movabsq	$.L.str.16, %r8
	movabsq	$.L.str.6, %rdx
	movq	%rdx, -1560(%rbp)       # 8-byte Spill
	movq	%rcx, %rdx
	movq	%rcx, -1568(%rbp)       # 8-byte Spill
	movq	-1568(%rbp), %r9        # 8-byte Reload
	movq	-1560(%rbp), %r10       # 8-byte Reload
	movq	%r10, (%rsp)
	callq	trace_logger_log_int
	movl	$2, %eax
	movl	%eax, %edi
	movl	$64, %eax
	movl	%eax, %esi
	xorl	%eax, %eax
	movl	%eax, %ecx
	movabsq	$.L.str.16, %r8
	movabsq	$.L.str.6, %rdx
	movq	%rdx, -1576(%rbp)       # 8-byte Spill
	movq	%rcx, %rdx
	movq	%rcx, -1584(%rbp)       # 8-byte Spill
	movq	-1584(%rbp), %r9        # 8-byte Reload
	movq	-1576(%rbp), %r10       # 8-byte Reload
	movq	%r10, (%rsp)
	callq	trace_logger_log_int
	movl	$1, %eax
	movl	%eax, %ecx
	movl	$64, %eax
	movl	%eax, %esi
	movabsq	$.L.str.49, %r8
	xorl	%eax, %eax
	movl	%eax, %r9d
	movabsq	$.L.str.6, %rdx
	leaq	-544(%rbp), %rdi
	movq	%rdi, -1592(%rbp)       # 8-byte Spill
	movq	%rcx, %rdi
	movq	-1592(%rbp), %r10       # 8-byte Reload
	movq	%rdx, -1600(%rbp)       # 8-byte Spill
	movq	%r10, %rdx
	movq	-1600(%rbp), %r11       # 8-byte Reload
	movq	%r11, (%rsp)
	callq	trace_logger_log_ptr
	movl	$19134, %eax            # imm = 0x4ABE
	movl	%eax, %edi
	movl	$64, %eax
	movl	%eax, %esi
	movl	$1, %eax
	movl	%eax, %ecx
	movabsq	$.L.str.96, %r8
	xorl	%eax, %eax
	movl	%eax, %r9d
	movabsq	$.L.str.6, %rdx
	leaq	-544(%rbp), %r10
	.loc	1 83 2 is_stmt 0        # pp_scan.c:83:2
	movq	%rdx, -1608(%rbp)       # 8-byte Spill
	movq	%r10, %rdx
	movq	-1608(%rbp), %r11       # 8-byte Reload
	movq	%r11, (%rsp)
	movq	%r10, -1616(%rbp)       # 8-byte Spill
	callq	trace_logger_log_ptr
	movl	$83, %eax
	movl	%eax, %edi
	movabsq	$.L.str.71, %rsi
	movabsq	$.L.str.55, %rdx
	movabsq	$.L.str.97, %rcx
	movl	$54, %eax
	movl	%eax, %r8d
	xorl	%r9d, %r9d
	movl	$1, %eax
	movl	$1, (%rsp)
	movl	%eax, -1620(%rbp)       # 4-byte Spill
	callq	trace_logger_log0
	movl	$4, %eax
	movl	%eax, %edi
	movl	$64, %eax
	movl	%eax, %esi
	movabsq	$pp_scan, %rdx
	movl	$1, %eax
	movl	%eax, %ecx
	movabsq	$.L.str.68, %r8
	xorl	%eax, %eax
	movl	%eax, %r9d
	movabsq	$.L.str.6, %r10
	movq	%r10, (%rsp)
	callq	trace_logger_log_ptr
	movl	$1, %eax
	movl	%eax, %ecx
	movl	$64, %eax
	movl	%eax, %esi
	movabsq	$.L.str.20, %r8
	xorl	%eax, %eax
	movl	%eax, %r9d
	movabsq	$.L.str.6, %rdx
	movq	%rcx, %rdi
	movq	-640(%rbp), %r10        # 8-byte Reload
	movq	%rdx, -1632(%rbp)       # 8-byte Spill
	movq	%r10, %rdx
	movq	-1632(%rbp), %r11       # 8-byte Reload
	movq	%r11, (%rsp)
	callq	trace_logger_log_ptr
	movl	$2, %eax
	movl	%eax, %edi
	movl	$64, %eax
	movl	%eax, %esi
	movl	$1, %eax
	movl	%eax, %ecx
	movabsq	$.L.str.74, %r8
	xorl	%eax, %eax
	movl	%eax, %r9d
	movabsq	$.L.str.6, %rdx
	movq	-696(%rbp), %r10        # 8-byte Reload
	movq	%rdx, -1640(%rbp)       # 8-byte Spill
	movq	%r10, %rdx
	movq	-1640(%rbp), %r11       # 8-byte Reload
	movq	%r11, (%rsp)
	callq	trace_logger_log_ptr
	movl	$3, %eax
	movl	%eax, %edi
	movl	$64, %eax
	movl	%eax, %esi
	movl	$1, %eax
	movl	%eax, %ecx
	movabsq	$.L.str.96, %r8
	xorl	%eax, %eax
	movl	%eax, %r9d
	movabsq	$.L.str.6, %rdx
	movq	-1616(%rbp), %r10       # 8-byte Reload
	movq	%rdx, -1648(%rbp)       # 8-byte Spill
	movq	%r10, %rdx
	movq	-1648(%rbp), %r11       # 8-byte Reload
	movq	%r11, (%rsp)
	callq	trace_logger_log_ptr
	movq	-640(%rbp), %rdi        # 8-byte Reload
	movq	-696(%rbp), %rsi        # 8-byte Reload
	movq	-1616(%rbp), %rdx       # 8-byte Reload
	callq	pp_scan
	movl	$88, %eax
	movl	%eax, %edi
	movabsq	$.L.str.71, %rsi
	movabsq	$.L.str.55, %rdx
	movabsq	$.L.str.98, %rcx
	movl	$54, %eax
	movl	%eax, %r8d
	xorl	%r9d, %r9d
	movl	$1, %eax
	.loc	1 88 2 is_stmt 1        # pp_scan.c:88:2
	movl	$1, (%rsp)
	movl	%eax, -1652(%rbp)       # 4-byte Spill
	callq	trace_logger_log0
	movl	$3, %eax
	movl	%eax, %edi
	movl	$64, %eax
	movl	%eax, %esi
	movabsq	$print, %rdx
	movl	$1, %eax
	movl	%eax, %ecx
	movabsq	$.L.str.2, %r8
	xorl	%eax, %eax
	movl	%eax, %r9d
	movabsq	$.L.str.6, %r10
	movq	%r10, (%rsp)
	callq	trace_logger_log_ptr
	movl	$1, %eax
	movl	%eax, %ecx
	movl	$64, %eax
	movl	%eax, %esi
	movabsq	$.L.str.20, %r8
	xorl	%eax, %eax
	movl	%eax, %r9d
	movabsq	$.L.str.6, %rdx
	movq	%rcx, %rdi
	movq	-640(%rbp), %r10        # 8-byte Reload
	movq	%rdx, -1664(%rbp)       # 8-byte Spill
	movq	%r10, %rdx
	movq	-1664(%rbp), %r11       # 8-byte Reload
	movq	%r11, (%rsp)
	callq	trace_logger_log_ptr
	movl	$2, %eax
	movl	%eax, %ecx
	movl	$32, %eax
	movl	%eax, %esi
	xorl	%eax, %eax
	movl	%eax, %edx
	movabsq	$.L.str.16, %r8
	movabsq	$.L.str.6, %rdi
	movq	%rdi, -1672(%rbp)       # 8-byte Spill
	movq	%rcx, %rdi
	movq	%rdx, -1680(%rbp)       # 8-byte Spill
	movq	%rcx, %rdx
	movq	-1680(%rbp), %rcx       # 8-byte Reload
	movq	-1680(%rbp), %r9        # 8-byte Reload
	movq	-1672(%rbp), %r10       # 8-byte Reload
	movq	%r10, (%rsp)
	callq	trace_logger_log_int
	movl	$2, %esi
	movq	-640(%rbp), %rdi        # 8-byte Reload
	callq	print
	movl	$89, %eax
	movl	%eax, %edi
	movabsq	$.L.str.71, %rsi
	movabsq	$.L.str.55, %rdx
	movabsq	$.L.str.99, %rcx
	movl	$54, %eax
	movl	%eax, %r8d
	xorl	%r9d, %r9d
	movl	$1, %eax
	.loc	1 89 2                  # pp_scan.c:89:2
	movl	$1, (%rsp)
	movl	%eax, -1684(%rbp)       # 4-byte Spill
	callq	trace_logger_log0
	movl	$2, %eax
	movl	%eax, %edi
	movl	$64, %eax
	movl	%eax, %esi
	movabsq	$printf, %rdx
	movl	$1, %eax
	movl	%eax, %ecx
	movabsq	$.L.str.21, %r8
	xorl	%eax, %eax
	movl	%eax, %r9d
	movabsq	$.L.str.6, %r10
	movq	%r10, (%rsp)
	callq	trace_logger_log_ptr
	movl	$1, %eax
	movl	%eax, %edi
	movl	$64, %eax
	movl	%eax, %esi
	movabsq	$.L.str.95, %rdx
	xorl	%eax, %eax
	movl	%eax, %ecx
	movabsq	$.L.str.16, %r8
	movabsq	$.L.str.6, %r9
	movq	%rcx, -1696(%rbp)       # 8-byte Spill
	movq	-1696(%rbp), %r10       # 8-byte Reload
	movq	%r9, -1704(%rbp)        # 8-byte Spill
	movq	%r10, %r9
	movq	-1704(%rbp), %r11       # 8-byte Reload
	movq	%r11, (%rsp)
	callq	trace_logger_log_string
	movabsq	$.L.str.1, %rdi
	movb	$0, %al
	callq	printf
	movl	$19134, %ebx            # imm = 0x4ABE
	movl	%ebx, %edi
	movl	$32, %ebx
	movl	%ebx, %esi
	movl	$1, %ebx
	movl	%ebx, %ecx
	movabsq	$.L.str.99, %r8
	xorl	%ebx, %ebx
	movl	%ebx, %r9d
	movabsq	$.L.str.6, %rdx
	.loc	1 92 1                  # pp_scan.c:92:1
	movl	%eax, %eax
	movl	%eax, %r10d
	movq	%rdx, -1712(%rbp)       # 8-byte Spill
	movq	%r10, %rdx
	movq	-1712(%rbp), %r10       # 8-byte Reload
	movq	%r10, (%rsp)
	callq	trace_logger_log_int
	movl	$91, %eax
	movl	%eax, %edi
	movabsq	$.L.str.71, %rsi
	movabsq	$.L.str.55, %rdx
	movabsq	$.L.str.100, %rcx
	movl	$1, %eax
	movl	%eax, %r8d
	xorl	%r9d, %r9d
	movl	$1, %eax
	.loc	1 91 2                  # pp_scan.c:91:2
	movl	$1, (%rsp)
	movl	%eax, -1716(%rbp)       # 4-byte Spill
	callq	trace_logger_log0
	movl	$1, %eax
	movl	%eax, %ecx
	movl	$32, %eax
	movl	%eax, %esi
	xorl	%eax, %eax
	movl	%eax, %edx
	movabsq	$.L.str.101, %r8
	movabsq	$.L.str.6, %rdi
	movq	%rdi, -1728(%rbp)       # 8-byte Spill
	movq	%rcx, %rdi
	movq	%rdx, -1736(%rbp)       # 8-byte Spill
	movq	-1736(%rbp), %r9        # 8-byte Reload
	movq	-1728(%rbp), %r10       # 8-byte Reload
	movq	%r10, (%rsp)
	callq	trace_logger_log_int
	movabsq	$.L.str.71, %rdi
	movl	$1, %eax
	movl	%eax, %esi
	xorl	%edx, %edx
	movl	$1, %ecx
	callq	trace_logger_update_status
	xorl	%eax, %eax
	addq	$1720, %rsp             # imm = 0x6B8
	popq	%rbx
	popq	%r14
	popq	%r15
	popq	%rbp
	retq
.Ltmp52:
.Lfunc_end5:
	.size	main, .Lfunc_end5-main
	.cfi_endproc
                                        # -- End function
	.section	.text.startup,"ax",@progbits
	.p2align	4, 0x90         # -- Begin function _GLOBAL__sub_I_trace_logger.cpp
	.type	_GLOBAL__sub_I_trace_logger.cpp,@function
_GLOBAL__sub_I_trace_logger.cpp:        # @_GLOBAL__sub_I_trace_logger.cpp
.Lfunc_begin6:
	.cfi_startproc
# %bb.0:
	pushq	%rbp
	.cfi_def_cfa_offset 16
	.cfi_offset %rbp, -16
	movq	%rsp, %rbp
	.cfi_def_cfa_register %rbp
	callq	__cxx_global_var_init
	popq	%rbp
	jmp	__cxx_global_var_init.1 # TAILCALL
.Lfunc_end6:
	.size	_GLOBAL__sub_I_trace_logger.cpp, .Lfunc_end6-_GLOBAL__sub_I_trace_logger.cpp
	.cfi_endproc
                                        # -- End function
	.p2align	4, 0x90         # -- Begin function __cxx_global_var_init
	.type	__cxx_global_var_init,@function
__cxx_global_var_init:                  # @__cxx_global_var_init
.Lfunc_begin7:
	.cfi_startproc
# %bb.0:
	pushq	%rbp
	.cfi_def_cfa_offset 16
	.cfi_offset %rbp, -16
	movq	%rsp, %rbp
	.cfi_def_cfa_register %rbp
	movl	$_Z8gz_filesB5cxx11, %eax
	movl	%eax, %edi
	callq	_ZNSt3mapINSt7__cxx1112basic_stringIcSt11char_traitsIcESaIcEEEP8gzFile_sSt4lessIS5_ESaISt4pairIKS5_S7_EEEC2Ev
	movl	$__dtor__Z8gz_filesB5cxx11, %eax
	movl	%eax, %edi
	popq	%rbp
	jmp	atexit                  # TAILCALL
.Lfunc_end7:
	.size	__cxx_global_var_init, .Lfunc_end7-__cxx_global_var_init
	.cfi_endproc
                                        # -- End function
	.p2align	4, 0x90         # -- Begin function __cxx_global_var_init.1
	.type	__cxx_global_var_init.1,@function
__cxx_global_var_init.1:                # @__cxx_global_var_init.1
.Lfunc_begin8:
	.cfi_startproc
# %bb.0:
	pushq	%rbp
	.cfi_def_cfa_offset 16
	.cfi_offset %rbp, -16
	movq	%rsp, %rbp
	.cfi_def_cfa_register %rbp
	movl	$_Z12labelmap_strB5cxx11, %eax
	movl	%eax, %edi
	callq	_ZNSt7__cxx1112basic_stringIcSt11char_traitsIcESaIcEEC2Ev
	movl	$__dtor__Z12labelmap_strB5cxx11, %eax
	movl	%eax, %edi
	popq	%rbp
	jmp	atexit                  # TAILCALL
.Lfunc_end8:
	.size	__cxx_global_var_init.1, .Lfunc_end8-__cxx_global_var_init.1
	.cfi_endproc
                                        # -- End function
	.p2align	4, 0x90         # -- Begin function __dtor__Z12labelmap_strB5cxx11
	.type	__dtor__Z12labelmap_strB5cxx11,@function
__dtor__Z12labelmap_strB5cxx11:         # @__dtor__Z12labelmap_strB5cxx11
.Lfunc_begin9:
	.cfi_startproc
# %bb.0:
	pushq	%rbp
	.cfi_def_cfa_offset 16
	.cfi_offset %rbp, -16
	movq	%rsp, %rbp
	.cfi_def_cfa_register %rbp
	movl	$_Z12labelmap_strB5cxx11, %eax
	movl	%eax, %edi
	popq	%rbp
	jmp	_ZNSt7__cxx1112basic_stringIcSt11char_traitsIcESaIcEED2Ev # TAILCALL
.Lfunc_end9:
	.size	__dtor__Z12labelmap_strB5cxx11, .Lfunc_end9-__dtor__Z12labelmap_strB5cxx11
	.cfi_endproc
                                        # -- End function
	.section	.text._ZNSt3mapINSt7__cxx1112basic_stringIcSt11char_traitsIcESaIcEEEP8gzFile_sSt4lessIS5_ESaISt4pairIKS5_S7_EEEC2Ev,"axG",@progbits,_ZNSt3mapINSt7__cxx1112basic_stringIcSt11char_traitsIcESaIcEEEP8gzFile_sSt4lessIS5_ESaISt4pairIKS5_S7_EEEC2Ev,comdat
	.weak	_ZNSt3mapINSt7__cxx1112basic_stringIcSt11char_traitsIcESaIcEEEP8gzFile_sSt4lessIS5_ESaISt4pairIKS5_S7_EEEC2Ev # -- Begin function _ZNSt3mapINSt7__cxx1112basic_stringIcSt11char_traitsIcESaIcEEEP8gzFile_sSt4lessIS5_ESaISt4pairIKS5_S7_EEEC2Ev
	.p2align	4, 0x90
	.type	_ZNSt3mapINSt7__cxx1112basic_stringIcSt11char_traitsIcESaIcEEEP8gzFile_sSt4lessIS5_ESaISt4pairIKS5_S7_EEEC2Ev,@function
_ZNSt3mapINSt7__cxx1112basic_stringIcSt11char_traitsIcESaIcEEEP8gzFile_sSt4lessIS5_ESaISt4pairIKS5_S7_EEEC2Ev: # @_ZNSt3mapINSt7__cxx1112basic_stringIcSt11char_traitsIcESaIcEEEP8gzFile_sSt4lessIS5_ESaISt4pairIKS5_S7_EEEC2Ev
.Lfunc_begin10:
	.cfi_startproc
# %bb.0:
	pushq	%rbp
	.cfi_def_cfa_offset 16
	.cfi_offset %rbp, -16
	movq	%rsp, %rbp
	.cfi_def_cfa_register %rbp
	popq	%rbp
	jmp	_ZNSt8_Rb_treeINSt7__cxx1112basic_stringIcSt11char_traitsIcESaIcEEESt4pairIKS5_P8gzFile_sESt10_Select1stISA_ESt4lessIS5_ESaISA_EEC2Ev # TAILCALL
.Lfunc_end10:
	.size	_ZNSt3mapINSt7__cxx1112basic_stringIcSt11char_traitsIcESaIcEEEP8gzFile_sSt4lessIS5_ESaISt4pairIKS5_S7_EEEC2Ev, .Lfunc_end10-_ZNSt3mapINSt7__cxx1112basic_stringIcSt11char_traitsIcESaIcEEEP8gzFile_sSt4lessIS5_ESaISt4pairIKS5_S7_EEEC2Ev
	.cfi_endproc
                                        # -- End function
	.section	.text.startup,"ax",@progbits
	.p2align	4, 0x90         # -- Begin function __dtor__Z8gz_filesB5cxx11
	.type	__dtor__Z8gz_filesB5cxx11,@function
__dtor__Z8gz_filesB5cxx11:              # @__dtor__Z8gz_filesB5cxx11
.Lfunc_begin11:
	.cfi_startproc
# %bb.0:
	pushq	%rbp
	.cfi_def_cfa_offset 16
	.cfi_offset %rbp, -16
	movq	%rsp, %rbp
	.cfi_def_cfa_register %rbp
	movl	$_Z8gz_filesB5cxx11, %eax
	movl	%eax, %edi
	popq	%rbp
	jmp	_ZNSt3mapINSt7__cxx1112basic_stringIcSt11char_traitsIcESaIcEEEP8gzFile_sSt4lessIS5_ESaISt4pairIKS5_S7_EEED2Ev # TAILCALL
.Lfunc_end11:
	.size	__dtor__Z8gz_filesB5cxx11, .Lfunc_end11-__dtor__Z8gz_filesB5cxx11
	.cfi_endproc
                                        # -- End function
	.section	.text._ZNSt3mapINSt7__cxx1112basic_stringIcSt11char_traitsIcESaIcEEEP8gzFile_sSt4lessIS5_ESaISt4pairIKS5_S7_EEED2Ev,"axG",@progbits,_ZNSt3mapINSt7__cxx1112basic_stringIcSt11char_traitsIcESaIcEEEP8gzFile_sSt4lessIS5_ESaISt4pairIKS5_S7_EEED2Ev,comdat
	.weak	_ZNSt3mapINSt7__cxx1112basic_stringIcSt11char_traitsIcESaIcEEEP8gzFile_sSt4lessIS5_ESaISt4pairIKS5_S7_EEED2Ev # -- Begin function _ZNSt3mapINSt7__cxx1112basic_stringIcSt11char_traitsIcESaIcEEEP8gzFile_sSt4lessIS5_ESaISt4pairIKS5_S7_EEED2Ev
	.p2align	4, 0x90
	.type	_ZNSt3mapINSt7__cxx1112basic_stringIcSt11char_traitsIcESaIcEEEP8gzFile_sSt4lessIS5_ESaISt4pairIKS5_S7_EEED2Ev,@function
_ZNSt3mapINSt7__cxx1112basic_stringIcSt11char_traitsIcESaIcEEEP8gzFile_sSt4lessIS5_ESaISt4pairIKS5_S7_EEED2Ev: # @_ZNSt3mapINSt7__cxx1112basic_stringIcSt11char_traitsIcESaIcEEEP8gzFile_sSt4lessIS5_ESaISt4pairIKS5_S7_EEED2Ev
.Lfunc_begin12:
	.cfi_startproc
# %bb.0:
	pushq	%rbp
	.cfi_def_cfa_offset 16
	.cfi_offset %rbp, -16
	movq	%rsp, %rbp
	.cfi_def_cfa_register %rbp
	popq	%rbp
	jmp	_ZNSt8_Rb_treeINSt7__cxx1112basic_stringIcSt11char_traitsIcESaIcEEESt4pairIKS5_P8gzFile_sESt10_Select1stISA_ESt4lessIS5_ESaISA_EED2Ev # TAILCALL
.Lfunc_end12:
	.size	_ZNSt3mapINSt7__cxx1112basic_stringIcSt11char_traitsIcESaIcEEEP8gzFile_sSt4lessIS5_ESaISt4pairIKS5_S7_EEED2Ev, .Lfunc_end12-_ZNSt3mapINSt7__cxx1112basic_stringIcSt11char_traitsIcESaIcEEEP8gzFile_sSt4lessIS5_ESaISt4pairIKS5_S7_EEED2Ev
	.cfi_endproc
                                        # -- End function
	.section	.text._ZNSt8_Rb_treeINSt7__cxx1112basic_stringIcSt11char_traitsIcESaIcEEESt4pairIKS5_P8gzFile_sESt10_Select1stISA_ESt4lessIS5_ESaISA_EED2Ev,"axG",@progbits,_ZNSt8_Rb_treeINSt7__cxx1112basic_stringIcSt11char_traitsIcESaIcEEESt4pairIKS5_P8gzFile_sESt10_Select1stISA_ESt4lessIS5_ESaISA_EED2Ev,comdat
	.weak	_ZNSt8_Rb_treeINSt7__cxx1112basic_stringIcSt11char_traitsIcESaIcEEESt4pairIKS5_P8gzFile_sESt10_Select1stISA_ESt4lessIS5_ESaISA_EED2Ev # -- Begin function _ZNSt8_Rb_treeINSt7__cxx1112basic_stringIcSt11char_traitsIcESaIcEEESt4pairIKS5_P8gzFile_sESt10_Select1stISA_ESt4lessIS5_ESaISA_EED2Ev
	.p2align	4, 0x90
	.type	_ZNSt8_Rb_treeINSt7__cxx1112basic_stringIcSt11char_traitsIcESaIcEEESt4pairIKS5_P8gzFile_sESt10_Select1stISA_ESt4lessIS5_ESaISA_EED2Ev,@function
_ZNSt8_Rb_treeINSt7__cxx1112basic_stringIcSt11char_traitsIcESaIcEEESt4pairIKS5_P8gzFile_sESt10_Select1stISA_ESt4lessIS5_ESaISA_EED2Ev: # @_ZNSt8_Rb_treeINSt7__cxx1112basic_stringIcSt11char_traitsIcESaIcEEESt4pairIKS5_P8gzFile_sESt10_Select1stISA_ESt4lessIS5_ESaISA_EED2Ev
.Lfunc_begin13:
	.cfi_startproc
	.cfi_personality 3, __gxx_personality_v0
	.cfi_lsda 3, .Lexception0
# %bb.0:
	pushq	%rbp
	.cfi_def_cfa_offset 16
	.cfi_offset %rbp, -16
	movq	%rsp, %rbp
	.cfi_def_cfa_register %rbp
	subq	$32, %rsp
	movq	%rdi, -8(%rbp)          # 8-byte Spill
	callq	_ZNSt8_Rb_treeINSt7__cxx1112basic_stringIcSt11char_traitsIcESaIcEEESt4pairIKS5_P8gzFile_sESt10_Select1stISA_ESt4lessIS5_ESaISA_EE8_M_beginEv
.Ltmp53:
	movq	-8(%rbp), %rdi          # 8-byte Reload
	movq	%rax, %rsi
	callq	_ZNSt8_Rb_treeINSt7__cxx1112basic_stringIcSt11char_traitsIcESaIcEEESt4pairIKS5_P8gzFile_sESt10_Select1stISA_ESt4lessIS5_ESaISA_EE8_M_eraseEPSt13_Rb_tree_nodeISA_E
.Ltmp54:
	jmp	.LBB13_1
.LBB13_1:
	movq	-8(%rbp), %rax          # 8-byte Reload
	movq	%rax, %rdi
	addq	$32, %rsp
	popq	%rbp
	jmp	_ZN9__gnu_cxx13new_allocatorISt13_Rb_tree_nodeISt4pairIKNSt7__cxx1112basic_stringIcSt11char_traitsIcESaIcEEEP8gzFile_sEEED2Ev # TAILCALL
.LBB13_2:
.Ltmp55:
	movl	%edx, %ecx
	movq	-8(%rbp), %rdx          # 8-byte Reload
	movq	%rdx, %rdi
	movl	%ecx, -12(%rbp)         # 4-byte Spill
	movq	%rax, -24(%rbp)         # 8-byte Spill
	callq	_ZN9__gnu_cxx13new_allocatorISt13_Rb_tree_nodeISt4pairIKNSt7__cxx1112basic_stringIcSt11char_traitsIcESaIcEEEP8gzFile_sEEED2Ev
	movq	-24(%rbp), %rdi         # 8-byte Reload
	callq	__clang_call_terminate
.Lfunc_end13:
	.size	_ZNSt8_Rb_treeINSt7__cxx1112basic_stringIcSt11char_traitsIcESaIcEEESt4pairIKS5_P8gzFile_sESt10_Select1stISA_ESt4lessIS5_ESaISA_EED2Ev, .Lfunc_end13-_ZNSt8_Rb_treeINSt7__cxx1112basic_stringIcSt11char_traitsIcESaIcEEESt4pairIKS5_P8gzFile_sESt10_Select1stISA_ESt4lessIS5_ESaISA_EED2Ev
	.cfi_endproc
	.section	.gcc_except_table,"a",@progbits
	.p2align	2
GCC_except_table13:
.Lexception0:
	.byte	255                     # @LPStart Encoding = omit
	.byte	3                       # @TType Encoding = udata4
	.byte	21                      # @TType base offset
	.byte	3                       # Call site Encoding = udata4
	.byte	13                      # Call site table length
	.long	.Ltmp53-.Lfunc_begin13  # >> Call Site 1 <<
	.long	.Ltmp54-.Ltmp53         #   Call between .Ltmp53 and .Ltmp54
	.long	.Ltmp55-.Lfunc_begin13  #     jumps to .Ltmp55
	.byte	1                       #   On action: 1
	.byte	1                       # >> Action Record 1 <<
                                        #   Catch TypeInfo 1
	.byte	0                       #   No further actions
                                        # >> Catch TypeInfos <<
	.long	0                       # TypeInfo 1
	.p2align	2
                                        # -- End function
	.section	.text._ZNSt8_Rb_treeINSt7__cxx1112basic_stringIcSt11char_traitsIcESaIcEEESt4pairIKS5_P8gzFile_sESt10_Select1stISA_ESt4lessIS5_ESaISA_EE8_M_beginEv,"axG",@progbits,_ZNSt8_Rb_treeINSt7__cxx1112basic_stringIcSt11char_traitsIcESaIcEEESt4pairIKS5_P8gzFile_sESt10_Select1stISA_ESt4lessIS5_ESaISA_EE8_M_beginEv,comdat
	.weak	_ZNSt8_Rb_treeINSt7__cxx1112basic_stringIcSt11char_traitsIcESaIcEEESt4pairIKS5_P8gzFile_sESt10_Select1stISA_ESt4lessIS5_ESaISA_EE8_M_beginEv # -- Begin function _ZNSt8_Rb_treeINSt7__cxx1112basic_stringIcSt11char_traitsIcESaIcEEESt4pairIKS5_P8gzFile_sESt10_Select1stISA_ESt4lessIS5_ESaISA_EE8_M_beginEv
	.p2align	4, 0x90
	.type	_ZNSt8_Rb_treeINSt7__cxx1112basic_stringIcSt11char_traitsIcESaIcEEESt4pairIKS5_P8gzFile_sESt10_Select1stISA_ESt4lessIS5_ESaISA_EE8_M_beginEv,@function
_ZNSt8_Rb_treeINSt7__cxx1112basic_stringIcSt11char_traitsIcESaIcEEESt4pairIKS5_P8gzFile_sESt10_Select1stISA_ESt4lessIS5_ESaISA_EE8_M_beginEv: # @_ZNSt8_Rb_treeINSt7__cxx1112basic_stringIcSt11char_traitsIcESaIcEEESt4pairIKS5_P8gzFile_sESt10_Select1stISA_ESt4lessIS5_ESaISA_EE8_M_beginEv
.Lfunc_begin14:
	.cfi_startproc
# %bb.0:
	pushq	%rbp
	.cfi_def_cfa_offset 16
	.cfi_offset %rbp, -16
	movq	%rsp, %rbp
	.cfi_def_cfa_register %rbp
	movq	16(%rdi), %rax
	popq	%rbp
	retq
.Lfunc_end14:
	.size	_ZNSt8_Rb_treeINSt7__cxx1112basic_stringIcSt11char_traitsIcESaIcEEESt4pairIKS5_P8gzFile_sESt10_Select1stISA_ESt4lessIS5_ESaISA_EE8_M_beginEv, .Lfunc_end14-_ZNSt8_Rb_treeINSt7__cxx1112basic_stringIcSt11char_traitsIcESaIcEEESt4pairIKS5_P8gzFile_sESt10_Select1stISA_ESt4lessIS5_ESaISA_EE8_M_beginEv
	.cfi_endproc
                                        # -- End function
	.section	.text._ZNSt8_Rb_treeINSt7__cxx1112basic_stringIcSt11char_traitsIcESaIcEEESt4pairIKS5_P8gzFile_sESt10_Select1stISA_ESt4lessIS5_ESaISA_EE8_M_eraseEPSt13_Rb_tree_nodeISA_E,"axG",@progbits,_ZNSt8_Rb_treeINSt7__cxx1112basic_stringIcSt11char_traitsIcESaIcEEESt4pairIKS5_P8gzFile_sESt10_Select1stISA_ESt4lessIS5_ESaISA_EE8_M_eraseEPSt13_Rb_tree_nodeISA_E,comdat
	.weak	_ZNSt8_Rb_treeINSt7__cxx1112basic_stringIcSt11char_traitsIcESaIcEEESt4pairIKS5_P8gzFile_sESt10_Select1stISA_ESt4lessIS5_ESaISA_EE8_M_eraseEPSt13_Rb_tree_nodeISA_E # -- Begin function _ZNSt8_Rb_treeINSt7__cxx1112basic_stringIcSt11char_traitsIcESaIcEEESt4pairIKS5_P8gzFile_sESt10_Select1stISA_ESt4lessIS5_ESaISA_EE8_M_eraseEPSt13_Rb_tree_nodeISA_E
	.p2align	4, 0x90
	.type	_ZNSt8_Rb_treeINSt7__cxx1112basic_stringIcSt11char_traitsIcESaIcEEESt4pairIKS5_P8gzFile_sESt10_Select1stISA_ESt4lessIS5_ESaISA_EE8_M_eraseEPSt13_Rb_tree_nodeISA_E,@function
_ZNSt8_Rb_treeINSt7__cxx1112basic_stringIcSt11char_traitsIcESaIcEEESt4pairIKS5_P8gzFile_sESt10_Select1stISA_ESt4lessIS5_ESaISA_EE8_M_eraseEPSt13_Rb_tree_nodeISA_E: # @_ZNSt8_Rb_treeINSt7__cxx1112basic_stringIcSt11char_traitsIcESaIcEEESt4pairIKS5_P8gzFile_sESt10_Select1stISA_ESt4lessIS5_ESaISA_EE8_M_eraseEPSt13_Rb_tree_nodeISA_E
.Lfunc_begin15:
	.cfi_startproc
# %bb.0:
	pushq	%rbp
	.cfi_def_cfa_offset 16
	.cfi_offset %rbp, -16
	movq	%rsp, %rbp
	.cfi_def_cfa_register %rbp
	subq	$48, %rsp
	cmpq	$0, %rsi
	movq	%rdi, -8(%rbp)          # 8-byte Spill
	movq	%rsi, -16(%rbp)         # 8-byte Spill
	je	.LBB15_3
# %bb.1:
	movq	-16(%rbp), %rax         # 8-byte Reload
	movq	%rax, -24(%rbp)         # 8-byte Spill
	jmp	.LBB15_2
.LBB15_2:                               # =>This Inner Loop Header: Depth=1
	movq	-24(%rbp), %rax         # 8-byte Reload
	movq	%rax, %rdi
	movq	%rax, -32(%rbp)         # 8-byte Spill
	callq	_ZNSt8_Rb_treeINSt7__cxx1112basic_stringIcSt11char_traitsIcESaIcEEESt4pairIKS5_P8gzFile_sESt10_Select1stISA_ESt4lessIS5_ESaISA_EE8_S_rightEPSt18_Rb_tree_node_base
	movq	-8(%rbp), %rdi          # 8-byte Reload
	movq	%rax, %rsi
	callq	_ZNSt8_Rb_treeINSt7__cxx1112basic_stringIcSt11char_traitsIcESaIcEEESt4pairIKS5_P8gzFile_sESt10_Select1stISA_ESt4lessIS5_ESaISA_EE8_M_eraseEPSt13_Rb_tree_nodeISA_E
	movq	-32(%rbp), %rdi         # 8-byte Reload
	callq	_ZNSt8_Rb_treeINSt7__cxx1112basic_stringIcSt11char_traitsIcESaIcEEESt4pairIKS5_P8gzFile_sESt10_Select1stISA_ESt4lessIS5_ESaISA_EE7_S_leftEPSt18_Rb_tree_node_base
	movq	-8(%rbp), %rdi          # 8-byte Reload
	movq	-32(%rbp), %rsi         # 8-byte Reload
	movq	%rax, -40(%rbp)         # 8-byte Spill
	callq	_ZNSt8_Rb_treeINSt7__cxx1112basic_stringIcSt11char_traitsIcESaIcEEESt4pairIKS5_P8gzFile_sESt10_Select1stISA_ESt4lessIS5_ESaISA_EE12_M_drop_nodeEPSt13_Rb_tree_nodeISA_E
	movq	-40(%rbp), %rax         # 8-byte Reload
	cmpq	$0, %rax
	movq	%rax, -24(%rbp)         # 8-byte Spill
	jne	.LBB15_2
.LBB15_3:
	addq	$48, %rsp
	popq	%rbp
	retq
.Lfunc_end15:
	.size	_ZNSt8_Rb_treeINSt7__cxx1112basic_stringIcSt11char_traitsIcESaIcEEESt4pairIKS5_P8gzFile_sESt10_Select1stISA_ESt4lessIS5_ESaISA_EE8_M_eraseEPSt13_Rb_tree_nodeISA_E, .Lfunc_end15-_ZNSt8_Rb_treeINSt7__cxx1112basic_stringIcSt11char_traitsIcESaIcEEESt4pairIKS5_P8gzFile_sESt10_Select1stISA_ESt4lessIS5_ESaISA_EE8_M_eraseEPSt13_Rb_tree_nodeISA_E
	.cfi_endproc
                                        # -- End function
	.section	.text._ZN9__gnu_cxx13new_allocatorISt13_Rb_tree_nodeISt4pairIKNSt7__cxx1112basic_stringIcSt11char_traitsIcESaIcEEEP8gzFile_sEEED2Ev,"axG",@progbits,_ZN9__gnu_cxx13new_allocatorISt13_Rb_tree_nodeISt4pairIKNSt7__cxx1112basic_stringIcSt11char_traitsIcESaIcEEEP8gzFile_sEEED2Ev,comdat
	.weak	_ZN9__gnu_cxx13new_allocatorISt13_Rb_tree_nodeISt4pairIKNSt7__cxx1112basic_stringIcSt11char_traitsIcESaIcEEEP8gzFile_sEEED2Ev # -- Begin function _ZN9__gnu_cxx13new_allocatorISt13_Rb_tree_nodeISt4pairIKNSt7__cxx1112basic_stringIcSt11char_traitsIcESaIcEEEP8gzFile_sEEED2Ev
	.p2align	4, 0x90
	.type	_ZN9__gnu_cxx13new_allocatorISt13_Rb_tree_nodeISt4pairIKNSt7__cxx1112basic_stringIcSt11char_traitsIcESaIcEEEP8gzFile_sEEED2Ev,@function
_ZN9__gnu_cxx13new_allocatorISt13_Rb_tree_nodeISt4pairIKNSt7__cxx1112basic_stringIcSt11char_traitsIcESaIcEEEP8gzFile_sEEED2Ev: # @_ZN9__gnu_cxx13new_allocatorISt13_Rb_tree_nodeISt4pairIKNSt7__cxx1112basic_stringIcSt11char_traitsIcESaIcEEEP8gzFile_sEEED2Ev
.Lfunc_begin16:
	.cfi_startproc
# %bb.0:
	pushq	%rbp
	.cfi_def_cfa_offset 16
	.cfi_offset %rbp, -16
	movq	%rsp, %rbp
	.cfi_def_cfa_register %rbp
	movq	%rdi, -8(%rbp)          # 8-byte Spill
	popq	%rbp
	retq
.Lfunc_end16:
	.size	_ZN9__gnu_cxx13new_allocatorISt13_Rb_tree_nodeISt4pairIKNSt7__cxx1112basic_stringIcSt11char_traitsIcESaIcEEEP8gzFile_sEEED2Ev, .Lfunc_end16-_ZN9__gnu_cxx13new_allocatorISt13_Rb_tree_nodeISt4pairIKNSt7__cxx1112basic_stringIcSt11char_traitsIcESaIcEEEP8gzFile_sEEED2Ev
	.cfi_endproc
                                        # -- End function
	.section	.text.__clang_call_terminate,"axG",@progbits,__clang_call_terminate,comdat
	.hidden	__clang_call_terminate  # -- Begin function __clang_call_terminate
	.weak	__clang_call_terminate
	.p2align	4, 0x90
	.type	__clang_call_terminate,@function
__clang_call_terminate:                 # @__clang_call_terminate
.Lfunc_begin17:
	.cfi_startproc
# %bb.0:
	pushq	%rbp
	.cfi_def_cfa_offset 16
	.cfi_offset %rbp, -16
	movq	%rsp, %rbp
	.cfi_def_cfa_register %rbp
	subq	$16, %rsp
	callq	__cxa_begin_catch
	movq	%rax, -8(%rbp)          # 8-byte Spill
	callq	_ZSt9terminatev
.Lfunc_end17:
	.size	__clang_call_terminate, .Lfunc_end17-__clang_call_terminate
	.cfi_endproc
                                        # -- End function
	.section	.text._ZNSt8_Rb_treeINSt7__cxx1112basic_stringIcSt11char_traitsIcESaIcEEESt4pairIKS5_P8gzFile_sESt10_Select1stISA_ESt4lessIS5_ESaISA_EE8_S_rightEPSt18_Rb_tree_node_base,"axG",@progbits,_ZNSt8_Rb_treeINSt7__cxx1112basic_stringIcSt11char_traitsIcESaIcEEESt4pairIKS5_P8gzFile_sESt10_Select1stISA_ESt4lessIS5_ESaISA_EE8_S_rightEPSt18_Rb_tree_node_base,comdat
	.weak	_ZNSt8_Rb_treeINSt7__cxx1112basic_stringIcSt11char_traitsIcESaIcEEESt4pairIKS5_P8gzFile_sESt10_Select1stISA_ESt4lessIS5_ESaISA_EE8_S_rightEPSt18_Rb_tree_node_base # -- Begin function _ZNSt8_Rb_treeINSt7__cxx1112basic_stringIcSt11char_traitsIcESaIcEEESt4pairIKS5_P8gzFile_sESt10_Select1stISA_ESt4lessIS5_ESaISA_EE8_S_rightEPSt18_Rb_tree_node_base
	.p2align	4, 0x90
	.type	_ZNSt8_Rb_treeINSt7__cxx1112basic_stringIcSt11char_traitsIcESaIcEEESt4pairIKS5_P8gzFile_sESt10_Select1stISA_ESt4lessIS5_ESaISA_EE8_S_rightEPSt18_Rb_tree_node_base,@function
_ZNSt8_Rb_treeINSt7__cxx1112basic_stringIcSt11char_traitsIcESaIcEEESt4pairIKS5_P8gzFile_sESt10_Select1stISA_ESt4lessIS5_ESaISA_EE8_S_rightEPSt18_Rb_tree_node_base: # @_ZNSt8_Rb_treeINSt7__cxx1112basic_stringIcSt11char_traitsIcESaIcEEESt4pairIKS5_P8gzFile_sESt10_Select1stISA_ESt4lessIS5_ESaISA_EE8_S_rightEPSt18_Rb_tree_node_base
.Lfunc_begin18:
	.cfi_startproc
# %bb.0:
	pushq	%rbp
	.cfi_def_cfa_offset 16
	.cfi_offset %rbp, -16
	movq	%rsp, %rbp
	.cfi_def_cfa_register %rbp
	movq	24(%rdi), %rax
	popq	%rbp
	retq
.Lfunc_end18:
	.size	_ZNSt8_Rb_treeINSt7__cxx1112basic_stringIcSt11char_traitsIcESaIcEEESt4pairIKS5_P8gzFile_sESt10_Select1stISA_ESt4lessIS5_ESaISA_EE8_S_rightEPSt18_Rb_tree_node_base, .Lfunc_end18-_ZNSt8_Rb_treeINSt7__cxx1112basic_stringIcSt11char_traitsIcESaIcEEESt4pairIKS5_P8gzFile_sESt10_Select1stISA_ESt4lessIS5_ESaISA_EE8_S_rightEPSt18_Rb_tree_node_base
	.cfi_endproc
                                        # -- End function
	.section	.text._ZNSt8_Rb_treeINSt7__cxx1112basic_stringIcSt11char_traitsIcESaIcEEESt4pairIKS5_P8gzFile_sESt10_Select1stISA_ESt4lessIS5_ESaISA_EE7_S_leftEPSt18_Rb_tree_node_base,"axG",@progbits,_ZNSt8_Rb_treeINSt7__cxx1112basic_stringIcSt11char_traitsIcESaIcEEESt4pairIKS5_P8gzFile_sESt10_Select1stISA_ESt4lessIS5_ESaISA_EE7_S_leftEPSt18_Rb_tree_node_base,comdat
	.weak	_ZNSt8_Rb_treeINSt7__cxx1112basic_stringIcSt11char_traitsIcESaIcEEESt4pairIKS5_P8gzFile_sESt10_Select1stISA_ESt4lessIS5_ESaISA_EE7_S_leftEPSt18_Rb_tree_node_base # -- Begin function _ZNSt8_Rb_treeINSt7__cxx1112basic_stringIcSt11char_traitsIcESaIcEEESt4pairIKS5_P8gzFile_sESt10_Select1stISA_ESt4lessIS5_ESaISA_EE7_S_leftEPSt18_Rb_tree_node_base
	.p2align	4, 0x90
	.type	_ZNSt8_Rb_treeINSt7__cxx1112basic_stringIcSt11char_traitsIcESaIcEEESt4pairIKS5_P8gzFile_sESt10_Select1stISA_ESt4lessIS5_ESaISA_EE7_S_leftEPSt18_Rb_tree_node_base,@function
_ZNSt8_Rb_treeINSt7__cxx1112basic_stringIcSt11char_traitsIcESaIcEEESt4pairIKS5_P8gzFile_sESt10_Select1stISA_ESt4lessIS5_ESaISA_EE7_S_leftEPSt18_Rb_tree_node_base: # @_ZNSt8_Rb_treeINSt7__cxx1112basic_stringIcSt11char_traitsIcESaIcEEESt4pairIKS5_P8gzFile_sESt10_Select1stISA_ESt4lessIS5_ESaISA_EE7_S_leftEPSt18_Rb_tree_node_base
.Lfunc_begin19:
	.cfi_startproc
# %bb.0:
	pushq	%rbp
	.cfi_def_cfa_offset 16
	.cfi_offset %rbp, -16
	movq	%rsp, %rbp
	.cfi_def_cfa_register %rbp
	movq	16(%rdi), %rax
	popq	%rbp
	retq
.Lfunc_end19:
	.size	_ZNSt8_Rb_treeINSt7__cxx1112basic_stringIcSt11char_traitsIcESaIcEEESt4pairIKS5_P8gzFile_sESt10_Select1stISA_ESt4lessIS5_ESaISA_EE7_S_leftEPSt18_Rb_tree_node_base, .Lfunc_end19-_ZNSt8_Rb_treeINSt7__cxx1112basic_stringIcSt11char_traitsIcESaIcEEESt4pairIKS5_P8gzFile_sESt10_Select1stISA_ESt4lessIS5_ESaISA_EE7_S_leftEPSt18_Rb_tree_node_base
	.cfi_endproc
                                        # -- End function
	.section	.text._ZNSt8_Rb_treeINSt7__cxx1112basic_stringIcSt11char_traitsIcESaIcEEESt4pairIKS5_P8gzFile_sESt10_Select1stISA_ESt4lessIS5_ESaISA_EE12_M_drop_nodeEPSt13_Rb_tree_nodeISA_E,"axG",@progbits,_ZNSt8_Rb_treeINSt7__cxx1112basic_stringIcSt11char_traitsIcESaIcEEESt4pairIKS5_P8gzFile_sESt10_Select1stISA_ESt4lessIS5_ESaISA_EE12_M_drop_nodeEPSt13_Rb_tree_nodeISA_E,comdat
	.weak	_ZNSt8_Rb_treeINSt7__cxx1112basic_stringIcSt11char_traitsIcESaIcEEESt4pairIKS5_P8gzFile_sESt10_Select1stISA_ESt4lessIS5_ESaISA_EE12_M_drop_nodeEPSt13_Rb_tree_nodeISA_E # -- Begin function _ZNSt8_Rb_treeINSt7__cxx1112basic_stringIcSt11char_traitsIcESaIcEEESt4pairIKS5_P8gzFile_sESt10_Select1stISA_ESt4lessIS5_ESaISA_EE12_M_drop_nodeEPSt13_Rb_tree_nodeISA_E
	.p2align	4, 0x90
	.type	_ZNSt8_Rb_treeINSt7__cxx1112basic_stringIcSt11char_traitsIcESaIcEEESt4pairIKS5_P8gzFile_sESt10_Select1stISA_ESt4lessIS5_ESaISA_EE12_M_drop_nodeEPSt13_Rb_tree_nodeISA_E,@function
_ZNSt8_Rb_treeINSt7__cxx1112basic_stringIcSt11char_traitsIcESaIcEEESt4pairIKS5_P8gzFile_sESt10_Select1stISA_ESt4lessIS5_ESaISA_EE12_M_drop_nodeEPSt13_Rb_tree_nodeISA_E: # @_ZNSt8_Rb_treeINSt7__cxx1112basic_stringIcSt11char_traitsIcESaIcEEESt4pairIKS5_P8gzFile_sESt10_Select1stISA_ESt4lessIS5_ESaISA_EE12_M_drop_nodeEPSt13_Rb_tree_nodeISA_E
.Lfunc_begin20:
	.cfi_startproc
# %bb.0:
	pushq	%rbp
	.cfi_def_cfa_offset 16
	.cfi_offset %rbp, -16
	movq	%rsp, %rbp
	.cfi_def_cfa_register %rbp
	subq	$16, %rsp
	movq	%rdi, -8(%rbp)          # 8-byte Spill
	movq	%rsi, -16(%rbp)         # 8-byte Spill
	callq	_ZNSt8_Rb_treeINSt7__cxx1112basic_stringIcSt11char_traitsIcESaIcEEESt4pairIKS5_P8gzFile_sESt10_Select1stISA_ESt4lessIS5_ESaISA_EE15_M_destroy_nodeEPSt13_Rb_tree_nodeISA_E
	movq	-8(%rbp), %rdi          # 8-byte Reload
	movq	-16(%rbp), %rsi         # 8-byte Reload
	addq	$16, %rsp
	popq	%rbp
	jmp	_ZNSt8_Rb_treeINSt7__cxx1112basic_stringIcSt11char_traitsIcESaIcEEESt4pairIKS5_P8gzFile_sESt10_Select1stISA_ESt4lessIS5_ESaISA_EE11_M_put_nodeEPSt13_Rb_tree_nodeISA_E # TAILCALL
.Lfunc_end20:
	.size	_ZNSt8_Rb_treeINSt7__cxx1112basic_stringIcSt11char_traitsIcESaIcEEESt4pairIKS5_P8gzFile_sESt10_Select1stISA_ESt4lessIS5_ESaISA_EE12_M_drop_nodeEPSt13_Rb_tree_nodeISA_E, .Lfunc_end20-_ZNSt8_Rb_treeINSt7__cxx1112basic_stringIcSt11char_traitsIcESaIcEEESt4pairIKS5_P8gzFile_sESt10_Select1stISA_ESt4lessIS5_ESaISA_EE12_M_drop_nodeEPSt13_Rb_tree_nodeISA_E
	.cfi_endproc
                                        # -- End function
	.section	.text._ZNSt8_Rb_treeINSt7__cxx1112basic_stringIcSt11char_traitsIcESaIcEEESt4pairIKS5_P8gzFile_sESt10_Select1stISA_ESt4lessIS5_ESaISA_EE15_M_destroy_nodeEPSt13_Rb_tree_nodeISA_E,"axG",@progbits,_ZNSt8_Rb_treeINSt7__cxx1112basic_stringIcSt11char_traitsIcESaIcEEESt4pairIKS5_P8gzFile_sESt10_Select1stISA_ESt4lessIS5_ESaISA_EE15_M_destroy_nodeEPSt13_Rb_tree_nodeISA_E,comdat
	.weak	_ZNSt8_Rb_treeINSt7__cxx1112basic_stringIcSt11char_traitsIcESaIcEEESt4pairIKS5_P8gzFile_sESt10_Select1stISA_ESt4lessIS5_ESaISA_EE15_M_destroy_nodeEPSt13_Rb_tree_nodeISA_E # -- Begin function _ZNSt8_Rb_treeINSt7__cxx1112basic_stringIcSt11char_traitsIcESaIcEEESt4pairIKS5_P8gzFile_sESt10_Select1stISA_ESt4lessIS5_ESaISA_EE15_M_destroy_nodeEPSt13_Rb_tree_nodeISA_E
	.p2align	4, 0x90
	.type	_ZNSt8_Rb_treeINSt7__cxx1112basic_stringIcSt11char_traitsIcESaIcEEESt4pairIKS5_P8gzFile_sESt10_Select1stISA_ESt4lessIS5_ESaISA_EE15_M_destroy_nodeEPSt13_Rb_tree_nodeISA_E,@function
_ZNSt8_Rb_treeINSt7__cxx1112basic_stringIcSt11char_traitsIcESaIcEEESt4pairIKS5_P8gzFile_sESt10_Select1stISA_ESt4lessIS5_ESaISA_EE15_M_destroy_nodeEPSt13_Rb_tree_nodeISA_E: # @_ZNSt8_Rb_treeINSt7__cxx1112basic_stringIcSt11char_traitsIcESaIcEEESt4pairIKS5_P8gzFile_sESt10_Select1stISA_ESt4lessIS5_ESaISA_EE15_M_destroy_nodeEPSt13_Rb_tree_nodeISA_E
.Lfunc_begin21:
	.cfi_startproc
	.cfi_personality 3, __gxx_personality_v0
	.cfi_lsda 3, .Lexception1
# %bb.0:
	pushq	%rbp
	.cfi_def_cfa_offset 16
	.cfi_offset %rbp, -16
	movq	%rsp, %rbp
	.cfi_def_cfa_register %rbp
	subq	$32, %rsp
	movq	%rsi, -8(%rbp)          # 8-byte Spill
	callq	_ZNSt8_Rb_treeINSt7__cxx1112basic_stringIcSt11char_traitsIcESaIcEEESt4pairIKS5_P8gzFile_sESt10_Select1stISA_ESt4lessIS5_ESaISA_EE21_M_get_Node_allocatorEv
	movq	-8(%rbp), %rdi          # 8-byte Reload
	movq	%rax, -16(%rbp)         # 8-byte Spill
	callq	_ZNSt13_Rb_tree_nodeISt4pairIKNSt7__cxx1112basic_stringIcSt11char_traitsIcESaIcEEEP8gzFile_sEE9_M_valptrEv
.Ltmp56:
	movq	-16(%rbp), %rdi         # 8-byte Reload
	movq	%rax, %rsi
	callq	_ZNSt16allocator_traitsISaISt13_Rb_tree_nodeISt4pairIKNSt7__cxx1112basic_stringIcSt11char_traitsIcESaIcEEEP8gzFile_sEEEE7destroyISB_EEvRSD_PT_
.Ltmp57:
	jmp	.LBB21_1
.LBB21_1:
	addq	$32, %rsp
	popq	%rbp
	retq
.LBB21_2:
.Ltmp58:
	movl	%edx, %ecx
	movq	%rax, %rdi
	movl	%ecx, -20(%rbp)         # 4-byte Spill
	callq	__clang_call_terminate
.Lfunc_end21:
	.size	_ZNSt8_Rb_treeINSt7__cxx1112basic_stringIcSt11char_traitsIcESaIcEEESt4pairIKS5_P8gzFile_sESt10_Select1stISA_ESt4lessIS5_ESaISA_EE15_M_destroy_nodeEPSt13_Rb_tree_nodeISA_E, .Lfunc_end21-_ZNSt8_Rb_treeINSt7__cxx1112basic_stringIcSt11char_traitsIcESaIcEEESt4pairIKS5_P8gzFile_sESt10_Select1stISA_ESt4lessIS5_ESaISA_EE15_M_destroy_nodeEPSt13_Rb_tree_nodeISA_E
	.cfi_endproc
	.section	.gcc_except_table,"a",@progbits
	.p2align	2
GCC_except_table21:
.Lexception1:
	.byte	255                     # @LPStart Encoding = omit
	.byte	3                       # @TType Encoding = udata4
	.byte	21                      # @TType base offset
	.byte	3                       # Call site Encoding = udata4
	.byte	13                      # Call site table length
	.long	.Ltmp56-.Lfunc_begin21  # >> Call Site 1 <<
	.long	.Ltmp57-.Ltmp56         #   Call between .Ltmp56 and .Ltmp57
	.long	.Ltmp58-.Lfunc_begin21  #     jumps to .Ltmp58
	.byte	1                       #   On action: 1
	.byte	1                       # >> Action Record 1 <<
                                        #   Catch TypeInfo 1
	.byte	0                       #   No further actions
                                        # >> Catch TypeInfos <<
	.long	0                       # TypeInfo 1
	.p2align	2
                                        # -- End function
	.section	.text._ZNSt8_Rb_treeINSt7__cxx1112basic_stringIcSt11char_traitsIcESaIcEEESt4pairIKS5_P8gzFile_sESt10_Select1stISA_ESt4lessIS5_ESaISA_EE11_M_put_nodeEPSt13_Rb_tree_nodeISA_E,"axG",@progbits,_ZNSt8_Rb_treeINSt7__cxx1112basic_stringIcSt11char_traitsIcESaIcEEESt4pairIKS5_P8gzFile_sESt10_Select1stISA_ESt4lessIS5_ESaISA_EE11_M_put_nodeEPSt13_Rb_tree_nodeISA_E,comdat
	.weak	_ZNSt8_Rb_treeINSt7__cxx1112basic_stringIcSt11char_traitsIcESaIcEEESt4pairIKS5_P8gzFile_sESt10_Select1stISA_ESt4lessIS5_ESaISA_EE11_M_put_nodeEPSt13_Rb_tree_nodeISA_E # -- Begin function _ZNSt8_Rb_treeINSt7__cxx1112basic_stringIcSt11char_traitsIcESaIcEEESt4pairIKS5_P8gzFile_sESt10_Select1stISA_ESt4lessIS5_ESaISA_EE11_M_put_nodeEPSt13_Rb_tree_nodeISA_E
	.p2align	4, 0x90
	.type	_ZNSt8_Rb_treeINSt7__cxx1112basic_stringIcSt11char_traitsIcESaIcEEESt4pairIKS5_P8gzFile_sESt10_Select1stISA_ESt4lessIS5_ESaISA_EE11_M_put_nodeEPSt13_Rb_tree_nodeISA_E,@function
_ZNSt8_Rb_treeINSt7__cxx1112basic_stringIcSt11char_traitsIcESaIcEEESt4pairIKS5_P8gzFile_sESt10_Select1stISA_ESt4lessIS5_ESaISA_EE11_M_put_nodeEPSt13_Rb_tree_nodeISA_E: # @_ZNSt8_Rb_treeINSt7__cxx1112basic_stringIcSt11char_traitsIcESaIcEEESt4pairIKS5_P8gzFile_sESt10_Select1stISA_ESt4lessIS5_ESaISA_EE11_M_put_nodeEPSt13_Rb_tree_nodeISA_E
.Lfunc_begin22:
	.cfi_startproc
	.cfi_personality 3, __gxx_personality_v0
	.cfi_lsda 3, .Lexception2
# %bb.0:
	pushq	%rbp
	.cfi_def_cfa_offset 16
	.cfi_offset %rbp, -16
	movq	%rsp, %rbp
	.cfi_def_cfa_register %rbp
	subq	$16, %rsp
	movq	%rsi, -8(%rbp)          # 8-byte Spill
	callq	_ZNSt8_Rb_treeINSt7__cxx1112basic_stringIcSt11char_traitsIcESaIcEEESt4pairIKS5_P8gzFile_sESt10_Select1stISA_ESt4lessIS5_ESaISA_EE21_M_get_Node_allocatorEv
.Ltmp59:
	movl	$1, %ecx
	movl	%ecx, %edx
	movq	%rax, %rdi
	movq	-8(%rbp), %rsi          # 8-byte Reload
	callq	_ZNSt16allocator_traitsISaISt13_Rb_tree_nodeISt4pairIKNSt7__cxx1112basic_stringIcSt11char_traitsIcESaIcEEEP8gzFile_sEEEE10deallocateERSD_PSC_m
.Ltmp60:
	jmp	.LBB22_1
.LBB22_1:
	addq	$16, %rsp
	popq	%rbp
	retq
.LBB22_2:
.Ltmp61:
	movl	%edx, %ecx
	movq	%rax, %rdi
	movl	%ecx, -12(%rbp)         # 4-byte Spill
	callq	__clang_call_terminate
.Lfunc_end22:
	.size	_ZNSt8_Rb_treeINSt7__cxx1112basic_stringIcSt11char_traitsIcESaIcEEESt4pairIKS5_P8gzFile_sESt10_Select1stISA_ESt4lessIS5_ESaISA_EE11_M_put_nodeEPSt13_Rb_tree_nodeISA_E, .Lfunc_end22-_ZNSt8_Rb_treeINSt7__cxx1112basic_stringIcSt11char_traitsIcESaIcEEESt4pairIKS5_P8gzFile_sESt10_Select1stISA_ESt4lessIS5_ESaISA_EE11_M_put_nodeEPSt13_Rb_tree_nodeISA_E
	.cfi_endproc
	.section	.gcc_except_table,"a",@progbits
	.p2align	2
GCC_except_table22:
.Lexception2:
	.byte	255                     # @LPStart Encoding = omit
	.byte	3                       # @TType Encoding = udata4
	.byte	21                      # @TType base offset
	.byte	3                       # Call site Encoding = udata4
	.byte	13                      # Call site table length
	.long	.Ltmp59-.Lfunc_begin22  # >> Call Site 1 <<
	.long	.Ltmp60-.Ltmp59         #   Call between .Ltmp59 and .Ltmp60
	.long	.Ltmp61-.Lfunc_begin22  #     jumps to .Ltmp61
	.byte	1                       #   On action: 1
	.byte	1                       # >> Action Record 1 <<
                                        #   Catch TypeInfo 1
	.byte	0                       #   No further actions
                                        # >> Catch TypeInfos <<
	.long	0                       # TypeInfo 1
	.p2align	2
                                        # -- End function
	.section	.text._ZNSt8_Rb_treeINSt7__cxx1112basic_stringIcSt11char_traitsIcESaIcEEESt4pairIKS5_P8gzFile_sESt10_Select1stISA_ESt4lessIS5_ESaISA_EE21_M_get_Node_allocatorEv,"axG",@progbits,_ZNSt8_Rb_treeINSt7__cxx1112basic_stringIcSt11char_traitsIcESaIcEEESt4pairIKS5_P8gzFile_sESt10_Select1stISA_ESt4lessIS5_ESaISA_EE21_M_get_Node_allocatorEv,comdat
	.weak	_ZNSt8_Rb_treeINSt7__cxx1112basic_stringIcSt11char_traitsIcESaIcEEESt4pairIKS5_P8gzFile_sESt10_Select1stISA_ESt4lessIS5_ESaISA_EE21_M_get_Node_allocatorEv # -- Begin function _ZNSt8_Rb_treeINSt7__cxx1112basic_stringIcSt11char_traitsIcESaIcEEESt4pairIKS5_P8gzFile_sESt10_Select1stISA_ESt4lessIS5_ESaISA_EE21_M_get_Node_allocatorEv
	.p2align	4, 0x90
	.type	_ZNSt8_Rb_treeINSt7__cxx1112basic_stringIcSt11char_traitsIcESaIcEEESt4pairIKS5_P8gzFile_sESt10_Select1stISA_ESt4lessIS5_ESaISA_EE21_M_get_Node_allocatorEv,@function
_ZNSt8_Rb_treeINSt7__cxx1112basic_stringIcSt11char_traitsIcESaIcEEESt4pairIKS5_P8gzFile_sESt10_Select1stISA_ESt4lessIS5_ESaISA_EE21_M_get_Node_allocatorEv: # @_ZNSt8_Rb_treeINSt7__cxx1112basic_stringIcSt11char_traitsIcESaIcEEESt4pairIKS5_P8gzFile_sESt10_Select1stISA_ESt4lessIS5_ESaISA_EE21_M_get_Node_allocatorEv
.Lfunc_begin23:
	.cfi_startproc
# %bb.0:
	pushq	%rbp
	.cfi_def_cfa_offset 16
	.cfi_offset %rbp, -16
	movq	%rsp, %rbp
	.cfi_def_cfa_register %rbp
	movq	%rdi, %rax
	popq	%rbp
	retq
.Lfunc_end23:
	.size	_ZNSt8_Rb_treeINSt7__cxx1112basic_stringIcSt11char_traitsIcESaIcEEESt4pairIKS5_P8gzFile_sESt10_Select1stISA_ESt4lessIS5_ESaISA_EE21_M_get_Node_allocatorEv, .Lfunc_end23-_ZNSt8_Rb_treeINSt7__cxx1112basic_stringIcSt11char_traitsIcESaIcEEESt4pairIKS5_P8gzFile_sESt10_Select1stISA_ESt4lessIS5_ESaISA_EE21_M_get_Node_allocatorEv
	.cfi_endproc
                                        # -- End function
	.section	.text._ZNSt16allocator_traitsISaISt13_Rb_tree_nodeISt4pairIKNSt7__cxx1112basic_stringIcSt11char_traitsIcESaIcEEEP8gzFile_sEEEE10deallocateERSD_PSC_m,"axG",@progbits,_ZNSt16allocator_traitsISaISt13_Rb_tree_nodeISt4pairIKNSt7__cxx1112basic_stringIcSt11char_traitsIcESaIcEEEP8gzFile_sEEEE10deallocateERSD_PSC_m,comdat
	.weak	_ZNSt16allocator_traitsISaISt13_Rb_tree_nodeISt4pairIKNSt7__cxx1112basic_stringIcSt11char_traitsIcESaIcEEEP8gzFile_sEEEE10deallocateERSD_PSC_m # -- Begin function _ZNSt16allocator_traitsISaISt13_Rb_tree_nodeISt4pairIKNSt7__cxx1112basic_stringIcSt11char_traitsIcESaIcEEEP8gzFile_sEEEE10deallocateERSD_PSC_m
	.p2align	4, 0x90
	.type	_ZNSt16allocator_traitsISaISt13_Rb_tree_nodeISt4pairIKNSt7__cxx1112basic_stringIcSt11char_traitsIcESaIcEEEP8gzFile_sEEEE10deallocateERSD_PSC_m,@function
_ZNSt16allocator_traitsISaISt13_Rb_tree_nodeISt4pairIKNSt7__cxx1112basic_stringIcSt11char_traitsIcESaIcEEEP8gzFile_sEEEE10deallocateERSD_PSC_m: # @_ZNSt16allocator_traitsISaISt13_Rb_tree_nodeISt4pairIKNSt7__cxx1112basic_stringIcSt11char_traitsIcESaIcEEEP8gzFile_sEEEE10deallocateERSD_PSC_m
.Lfunc_begin24:
	.cfi_startproc
# %bb.0:
	pushq	%rbp
	.cfi_def_cfa_offset 16
	.cfi_offset %rbp, -16
	movq	%rsp, %rbp
	.cfi_def_cfa_register %rbp
	popq	%rbp
	jmp	_ZN9__gnu_cxx13new_allocatorISt13_Rb_tree_nodeISt4pairIKNSt7__cxx1112basic_stringIcSt11char_traitsIcESaIcEEEP8gzFile_sEEE10deallocateEPSD_m # TAILCALL
.Lfunc_end24:
	.size	_ZNSt16allocator_traitsISaISt13_Rb_tree_nodeISt4pairIKNSt7__cxx1112basic_stringIcSt11char_traitsIcESaIcEEEP8gzFile_sEEEE10deallocateERSD_PSC_m, .Lfunc_end24-_ZNSt16allocator_traitsISaISt13_Rb_tree_nodeISt4pairIKNSt7__cxx1112basic_stringIcSt11char_traitsIcESaIcEEEP8gzFile_sEEEE10deallocateERSD_PSC_m
	.cfi_endproc
                                        # -- End function
	.section	.text._ZN9__gnu_cxx13new_allocatorISt13_Rb_tree_nodeISt4pairIKNSt7__cxx1112basic_stringIcSt11char_traitsIcESaIcEEEP8gzFile_sEEE10deallocateEPSD_m,"axG",@progbits,_ZN9__gnu_cxx13new_allocatorISt13_Rb_tree_nodeISt4pairIKNSt7__cxx1112basic_stringIcSt11char_traitsIcESaIcEEEP8gzFile_sEEE10deallocateEPSD_m,comdat
	.weak	_ZN9__gnu_cxx13new_allocatorISt13_Rb_tree_nodeISt4pairIKNSt7__cxx1112basic_stringIcSt11char_traitsIcESaIcEEEP8gzFile_sEEE10deallocateEPSD_m # -- Begin function _ZN9__gnu_cxx13new_allocatorISt13_Rb_tree_nodeISt4pairIKNSt7__cxx1112basic_stringIcSt11char_traitsIcESaIcEEEP8gzFile_sEEE10deallocateEPSD_m
	.p2align	4, 0x90
	.type	_ZN9__gnu_cxx13new_allocatorISt13_Rb_tree_nodeISt4pairIKNSt7__cxx1112basic_stringIcSt11char_traitsIcESaIcEEEP8gzFile_sEEE10deallocateEPSD_m,@function
_ZN9__gnu_cxx13new_allocatorISt13_Rb_tree_nodeISt4pairIKNSt7__cxx1112basic_stringIcSt11char_traitsIcESaIcEEEP8gzFile_sEEE10deallocateEPSD_m: # @_ZN9__gnu_cxx13new_allocatorISt13_Rb_tree_nodeISt4pairIKNSt7__cxx1112basic_stringIcSt11char_traitsIcESaIcEEEP8gzFile_sEEE10deallocateEPSD_m
.Lfunc_begin25:
	.cfi_startproc
# %bb.0:
	pushq	%rbp
	.cfi_def_cfa_offset 16
	.cfi_offset %rbp, -16
	movq	%rsp, %rbp
	.cfi_def_cfa_register %rbp
	movq	%rdi, -8(%rbp)          # 8-byte Spill
	movq	%rsi, %rdi
	movq	%rdx, -16(%rbp)         # 8-byte Spill
	popq	%rbp
	jmp	_ZdlPv                  # TAILCALL
.Lfunc_end25:
	.size	_ZN9__gnu_cxx13new_allocatorISt13_Rb_tree_nodeISt4pairIKNSt7__cxx1112basic_stringIcSt11char_traitsIcESaIcEEEP8gzFile_sEEE10deallocateEPSD_m, .Lfunc_end25-_ZN9__gnu_cxx13new_allocatorISt13_Rb_tree_nodeISt4pairIKNSt7__cxx1112basic_stringIcSt11char_traitsIcESaIcEEEP8gzFile_sEEE10deallocateEPSD_m
	.cfi_endproc
                                        # -- End function
	.section	.text._ZNSt13_Rb_tree_nodeISt4pairIKNSt7__cxx1112basic_stringIcSt11char_traitsIcESaIcEEEP8gzFile_sEE9_M_valptrEv,"axG",@progbits,_ZNSt13_Rb_tree_nodeISt4pairIKNSt7__cxx1112basic_stringIcSt11char_traitsIcESaIcEEEP8gzFile_sEE9_M_valptrEv,comdat
	.weak	_ZNSt13_Rb_tree_nodeISt4pairIKNSt7__cxx1112basic_stringIcSt11char_traitsIcESaIcEEEP8gzFile_sEE9_M_valptrEv # -- Begin function _ZNSt13_Rb_tree_nodeISt4pairIKNSt7__cxx1112basic_stringIcSt11char_traitsIcESaIcEEEP8gzFile_sEE9_M_valptrEv
	.p2align	4, 0x90
	.type	_ZNSt13_Rb_tree_nodeISt4pairIKNSt7__cxx1112basic_stringIcSt11char_traitsIcESaIcEEEP8gzFile_sEE9_M_valptrEv,@function
_ZNSt13_Rb_tree_nodeISt4pairIKNSt7__cxx1112basic_stringIcSt11char_traitsIcESaIcEEEP8gzFile_sEE9_M_valptrEv: # @_ZNSt13_Rb_tree_nodeISt4pairIKNSt7__cxx1112basic_stringIcSt11char_traitsIcESaIcEEEP8gzFile_sEE9_M_valptrEv
.Lfunc_begin26:
	.cfi_startproc
# %bb.0:
	pushq	%rbp
	.cfi_def_cfa_offset 16
	.cfi_offset %rbp, -16
	movq	%rsp, %rbp
	.cfi_def_cfa_register %rbp
	addq	$32, %rdi
	popq	%rbp
	jmp	_ZN9__gnu_cxx16__aligned_membufISt4pairIKNSt7__cxx1112basic_stringIcSt11char_traitsIcESaIcEEEP8gzFile_sEE6_M_ptrEv # TAILCALL
.Lfunc_end26:
	.size	_ZNSt13_Rb_tree_nodeISt4pairIKNSt7__cxx1112basic_stringIcSt11char_traitsIcESaIcEEEP8gzFile_sEE9_M_valptrEv, .Lfunc_end26-_ZNSt13_Rb_tree_nodeISt4pairIKNSt7__cxx1112basic_stringIcSt11char_traitsIcESaIcEEEP8gzFile_sEE9_M_valptrEv
	.cfi_endproc
                                        # -- End function
	.section	.text._ZNSt16allocator_traitsISaISt13_Rb_tree_nodeISt4pairIKNSt7__cxx1112basic_stringIcSt11char_traitsIcESaIcEEEP8gzFile_sEEEE7destroyISB_EEvRSD_PT_,"axG",@progbits,_ZNSt16allocator_traitsISaISt13_Rb_tree_nodeISt4pairIKNSt7__cxx1112basic_stringIcSt11char_traitsIcESaIcEEEP8gzFile_sEEEE7destroyISB_EEvRSD_PT_,comdat
	.weak	_ZNSt16allocator_traitsISaISt13_Rb_tree_nodeISt4pairIKNSt7__cxx1112basic_stringIcSt11char_traitsIcESaIcEEEP8gzFile_sEEEE7destroyISB_EEvRSD_PT_ # -- Begin function _ZNSt16allocator_traitsISaISt13_Rb_tree_nodeISt4pairIKNSt7__cxx1112basic_stringIcSt11char_traitsIcESaIcEEEP8gzFile_sEEEE7destroyISB_EEvRSD_PT_
	.p2align	4, 0x90
	.type	_ZNSt16allocator_traitsISaISt13_Rb_tree_nodeISt4pairIKNSt7__cxx1112basic_stringIcSt11char_traitsIcESaIcEEEP8gzFile_sEEEE7destroyISB_EEvRSD_PT_,@function
_ZNSt16allocator_traitsISaISt13_Rb_tree_nodeISt4pairIKNSt7__cxx1112basic_stringIcSt11char_traitsIcESaIcEEEP8gzFile_sEEEE7destroyISB_EEvRSD_PT_: # @_ZNSt16allocator_traitsISaISt13_Rb_tree_nodeISt4pairIKNSt7__cxx1112basic_stringIcSt11char_traitsIcESaIcEEEP8gzFile_sEEEE7destroyISB_EEvRSD_PT_
.Lfunc_begin27:
	.cfi_startproc
# %bb.0:
	pushq	%rbp
	.cfi_def_cfa_offset 16
	.cfi_offset %rbp, -16
	movq	%rsp, %rbp
	.cfi_def_cfa_register %rbp
	popq	%rbp
	jmp	_ZN9__gnu_cxx13new_allocatorISt13_Rb_tree_nodeISt4pairIKNSt7__cxx1112basic_stringIcSt11char_traitsIcESaIcEEEP8gzFile_sEEE7destroyISC_EEvPT_ # TAILCALL
.Lfunc_end27:
	.size	_ZNSt16allocator_traitsISaISt13_Rb_tree_nodeISt4pairIKNSt7__cxx1112basic_stringIcSt11char_traitsIcESaIcEEEP8gzFile_sEEEE7destroyISB_EEvRSD_PT_, .Lfunc_end27-_ZNSt16allocator_traitsISaISt13_Rb_tree_nodeISt4pairIKNSt7__cxx1112basic_stringIcSt11char_traitsIcESaIcEEEP8gzFile_sEEEE7destroyISB_EEvRSD_PT_
	.cfi_endproc
                                        # -- End function
	.section	.text._ZN9__gnu_cxx13new_allocatorISt13_Rb_tree_nodeISt4pairIKNSt7__cxx1112basic_stringIcSt11char_traitsIcESaIcEEEP8gzFile_sEEE7destroyISC_EEvPT_,"axG",@progbits,_ZN9__gnu_cxx13new_allocatorISt13_Rb_tree_nodeISt4pairIKNSt7__cxx1112basic_stringIcSt11char_traitsIcESaIcEEEP8gzFile_sEEE7destroyISC_EEvPT_,comdat
	.weak	_ZN9__gnu_cxx13new_allocatorISt13_Rb_tree_nodeISt4pairIKNSt7__cxx1112basic_stringIcSt11char_traitsIcESaIcEEEP8gzFile_sEEE7destroyISC_EEvPT_ # -- Begin function _ZN9__gnu_cxx13new_allocatorISt13_Rb_tree_nodeISt4pairIKNSt7__cxx1112basic_stringIcSt11char_traitsIcESaIcEEEP8gzFile_sEEE7destroyISC_EEvPT_
	.p2align	4, 0x90
	.type	_ZN9__gnu_cxx13new_allocatorISt13_Rb_tree_nodeISt4pairIKNSt7__cxx1112basic_stringIcSt11char_traitsIcESaIcEEEP8gzFile_sEEE7destroyISC_EEvPT_,@function
_ZN9__gnu_cxx13new_allocatorISt13_Rb_tree_nodeISt4pairIKNSt7__cxx1112basic_stringIcSt11char_traitsIcESaIcEEEP8gzFile_sEEE7destroyISC_EEvPT_: # @_ZN9__gnu_cxx13new_allocatorISt13_Rb_tree_nodeISt4pairIKNSt7__cxx1112basic_stringIcSt11char_traitsIcESaIcEEEP8gzFile_sEEE7destroyISC_EEvPT_
.Lfunc_begin28:
	.cfi_startproc
# %bb.0:
	pushq	%rbp
	.cfi_def_cfa_offset 16
	.cfi_offset %rbp, -16
	movq	%rsp, %rbp
	.cfi_def_cfa_register %rbp
	movq	%rdi, -8(%rbp)          # 8-byte Spill
	movq	%rsi, %rdi
	popq	%rbp
	jmp	_ZNSt4pairIKNSt7__cxx1112basic_stringIcSt11char_traitsIcESaIcEEEP8gzFile_sED2Ev # TAILCALL
.Lfunc_end28:
	.size	_ZN9__gnu_cxx13new_allocatorISt13_Rb_tree_nodeISt4pairIKNSt7__cxx1112basic_stringIcSt11char_traitsIcESaIcEEEP8gzFile_sEEE7destroyISC_EEvPT_, .Lfunc_end28-_ZN9__gnu_cxx13new_allocatorISt13_Rb_tree_nodeISt4pairIKNSt7__cxx1112basic_stringIcSt11char_traitsIcESaIcEEEP8gzFile_sEEE7destroyISC_EEvPT_
	.cfi_endproc
                                        # -- End function
	.section	.text._ZNSt4pairIKNSt7__cxx1112basic_stringIcSt11char_traitsIcESaIcEEEP8gzFile_sED2Ev,"axG",@progbits,_ZNSt4pairIKNSt7__cxx1112basic_stringIcSt11char_traitsIcESaIcEEEP8gzFile_sED2Ev,comdat
	.weak	_ZNSt4pairIKNSt7__cxx1112basic_stringIcSt11char_traitsIcESaIcEEEP8gzFile_sED2Ev # -- Begin function _ZNSt4pairIKNSt7__cxx1112basic_stringIcSt11char_traitsIcESaIcEEEP8gzFile_sED2Ev
	.p2align	4, 0x90
	.type	_ZNSt4pairIKNSt7__cxx1112basic_stringIcSt11char_traitsIcESaIcEEEP8gzFile_sED2Ev,@function
_ZNSt4pairIKNSt7__cxx1112basic_stringIcSt11char_traitsIcESaIcEEEP8gzFile_sED2Ev: # @_ZNSt4pairIKNSt7__cxx1112basic_stringIcSt11char_traitsIcESaIcEEEP8gzFile_sED2Ev
.Lfunc_begin29:
	.cfi_startproc
# %bb.0:
	pushq	%rbp
	.cfi_def_cfa_offset 16
	.cfi_offset %rbp, -16
	movq	%rsp, %rbp
	.cfi_def_cfa_register %rbp
	popq	%rbp
	jmp	_ZNSt7__cxx1112basic_stringIcSt11char_traitsIcESaIcEED2Ev # TAILCALL
.Lfunc_end29:
	.size	_ZNSt4pairIKNSt7__cxx1112basic_stringIcSt11char_traitsIcESaIcEEEP8gzFile_sED2Ev, .Lfunc_end29-_ZNSt4pairIKNSt7__cxx1112basic_stringIcSt11char_traitsIcESaIcEEEP8gzFile_sED2Ev
	.cfi_endproc
                                        # -- End function
	.section	.text._ZN9__gnu_cxx16__aligned_membufISt4pairIKNSt7__cxx1112basic_stringIcSt11char_traitsIcESaIcEEEP8gzFile_sEE6_M_ptrEv,"axG",@progbits,_ZN9__gnu_cxx16__aligned_membufISt4pairIKNSt7__cxx1112basic_stringIcSt11char_traitsIcESaIcEEEP8gzFile_sEE6_M_ptrEv,comdat
	.weak	_ZN9__gnu_cxx16__aligned_membufISt4pairIKNSt7__cxx1112basic_stringIcSt11char_traitsIcESaIcEEEP8gzFile_sEE6_M_ptrEv # -- Begin function _ZN9__gnu_cxx16__aligned_membufISt4pairIKNSt7__cxx1112basic_stringIcSt11char_traitsIcESaIcEEEP8gzFile_sEE6_M_ptrEv
	.p2align	4, 0x90
	.type	_ZN9__gnu_cxx16__aligned_membufISt4pairIKNSt7__cxx1112basic_stringIcSt11char_traitsIcESaIcEEEP8gzFile_sEE6_M_ptrEv,@function
_ZN9__gnu_cxx16__aligned_membufISt4pairIKNSt7__cxx1112basic_stringIcSt11char_traitsIcESaIcEEEP8gzFile_sEE6_M_ptrEv: # @_ZN9__gnu_cxx16__aligned_membufISt4pairIKNSt7__cxx1112basic_stringIcSt11char_traitsIcESaIcEEEP8gzFile_sEE6_M_ptrEv
.Lfunc_begin30:
	.cfi_startproc
# %bb.0:
	pushq	%rbp
	.cfi_def_cfa_offset 16
	.cfi_offset %rbp, -16
	movq	%rsp, %rbp
	.cfi_def_cfa_register %rbp
	popq	%rbp
	jmp	_ZN9__gnu_cxx16__aligned_membufISt4pairIKNSt7__cxx1112basic_stringIcSt11char_traitsIcESaIcEEEP8gzFile_sEE7_M_addrEv # TAILCALL
.Lfunc_end30:
	.size	_ZN9__gnu_cxx16__aligned_membufISt4pairIKNSt7__cxx1112basic_stringIcSt11char_traitsIcESaIcEEEP8gzFile_sEE6_M_ptrEv, .Lfunc_end30-_ZN9__gnu_cxx16__aligned_membufISt4pairIKNSt7__cxx1112basic_stringIcSt11char_traitsIcESaIcEEEP8gzFile_sEE6_M_ptrEv
	.cfi_endproc
                                        # -- End function
	.section	.text._ZN9__gnu_cxx16__aligned_membufISt4pairIKNSt7__cxx1112basic_stringIcSt11char_traitsIcESaIcEEEP8gzFile_sEE7_M_addrEv,"axG",@progbits,_ZN9__gnu_cxx16__aligned_membufISt4pairIKNSt7__cxx1112basic_stringIcSt11char_traitsIcESaIcEEEP8gzFile_sEE7_M_addrEv,comdat
	.weak	_ZN9__gnu_cxx16__aligned_membufISt4pairIKNSt7__cxx1112basic_stringIcSt11char_traitsIcESaIcEEEP8gzFile_sEE7_M_addrEv # -- Begin function _ZN9__gnu_cxx16__aligned_membufISt4pairIKNSt7__cxx1112basic_stringIcSt11char_traitsIcESaIcEEEP8gzFile_sEE7_M_addrEv
	.p2align	4, 0x90
	.type	_ZN9__gnu_cxx16__aligned_membufISt4pairIKNSt7__cxx1112basic_stringIcSt11char_traitsIcESaIcEEEP8gzFile_sEE7_M_addrEv,@function
_ZN9__gnu_cxx16__aligned_membufISt4pairIKNSt7__cxx1112basic_stringIcSt11char_traitsIcESaIcEEEP8gzFile_sEE7_M_addrEv: # @_ZN9__gnu_cxx16__aligned_membufISt4pairIKNSt7__cxx1112basic_stringIcSt11char_traitsIcESaIcEEEP8gzFile_sEE7_M_addrEv
.Lfunc_begin31:
	.cfi_startproc
# %bb.0:
	pushq	%rbp
	.cfi_def_cfa_offset 16
	.cfi_offset %rbp, -16
	movq	%rsp, %rbp
	.cfi_def_cfa_register %rbp
	movq	%rdi, %rax
	popq	%rbp
	retq
.Lfunc_end31:
	.size	_ZN9__gnu_cxx16__aligned_membufISt4pairIKNSt7__cxx1112basic_stringIcSt11char_traitsIcESaIcEEEP8gzFile_sEE7_M_addrEv, .Lfunc_end31-_ZN9__gnu_cxx16__aligned_membufISt4pairIKNSt7__cxx1112basic_stringIcSt11char_traitsIcESaIcEEEP8gzFile_sEE7_M_addrEv
	.cfi_endproc
                                        # -- End function
	.section	.text._ZNSt8_Rb_treeINSt7__cxx1112basic_stringIcSt11char_traitsIcESaIcEEESt4pairIKS5_P8gzFile_sESt10_Select1stISA_ESt4lessIS5_ESaISA_EEC2Ev,"axG",@progbits,_ZNSt8_Rb_treeINSt7__cxx1112basic_stringIcSt11char_traitsIcESaIcEEESt4pairIKS5_P8gzFile_sESt10_Select1stISA_ESt4lessIS5_ESaISA_EEC2Ev,comdat
	.weak	_ZNSt8_Rb_treeINSt7__cxx1112basic_stringIcSt11char_traitsIcESaIcEEESt4pairIKS5_P8gzFile_sESt10_Select1stISA_ESt4lessIS5_ESaISA_EEC2Ev # -- Begin function _ZNSt8_Rb_treeINSt7__cxx1112basic_stringIcSt11char_traitsIcESaIcEEESt4pairIKS5_P8gzFile_sESt10_Select1stISA_ESt4lessIS5_ESaISA_EEC2Ev
	.p2align	4, 0x90
	.type	_ZNSt8_Rb_treeINSt7__cxx1112basic_stringIcSt11char_traitsIcESaIcEEESt4pairIKS5_P8gzFile_sESt10_Select1stISA_ESt4lessIS5_ESaISA_EEC2Ev,@function
_ZNSt8_Rb_treeINSt7__cxx1112basic_stringIcSt11char_traitsIcESaIcEEESt4pairIKS5_P8gzFile_sESt10_Select1stISA_ESt4lessIS5_ESaISA_EEC2Ev: # @_ZNSt8_Rb_treeINSt7__cxx1112basic_stringIcSt11char_traitsIcESaIcEEESt4pairIKS5_P8gzFile_sESt10_Select1stISA_ESt4lessIS5_ESaISA_EEC2Ev
.Lfunc_begin32:
	.cfi_startproc
# %bb.0:
	pushq	%rbp
	.cfi_def_cfa_offset 16
	.cfi_offset %rbp, -16
	movq	%rsp, %rbp
	.cfi_def_cfa_register %rbp
	popq	%rbp
	jmp	_ZNSt8_Rb_treeINSt7__cxx1112basic_stringIcSt11char_traitsIcESaIcEEESt4pairIKS5_P8gzFile_sESt10_Select1stISA_ESt4lessIS5_ESaISA_EE13_Rb_tree_implISE_Lb1EEC2Ev # TAILCALL
.Lfunc_end32:
	.size	_ZNSt8_Rb_treeINSt7__cxx1112basic_stringIcSt11char_traitsIcESaIcEEESt4pairIKS5_P8gzFile_sESt10_Select1stISA_ESt4lessIS5_ESaISA_EEC2Ev, .Lfunc_end32-_ZNSt8_Rb_treeINSt7__cxx1112basic_stringIcSt11char_traitsIcESaIcEEESt4pairIKS5_P8gzFile_sESt10_Select1stISA_ESt4lessIS5_ESaISA_EEC2Ev
	.cfi_endproc
                                        # -- End function
	.section	.text._ZNSt8_Rb_treeINSt7__cxx1112basic_stringIcSt11char_traitsIcESaIcEEESt4pairIKS5_P8gzFile_sESt10_Select1stISA_ESt4lessIS5_ESaISA_EE13_Rb_tree_implISE_Lb1EEC2Ev,"axG",@progbits,_ZNSt8_Rb_treeINSt7__cxx1112basic_stringIcSt11char_traitsIcESaIcEEESt4pairIKS5_P8gzFile_sESt10_Select1stISA_ESt4lessIS5_ESaISA_EE13_Rb_tree_implISE_Lb1EEC2Ev,comdat
	.weak	_ZNSt8_Rb_treeINSt7__cxx1112basic_stringIcSt11char_traitsIcESaIcEEESt4pairIKS5_P8gzFile_sESt10_Select1stISA_ESt4lessIS5_ESaISA_EE13_Rb_tree_implISE_Lb1EEC2Ev # -- Begin function _ZNSt8_Rb_treeINSt7__cxx1112basic_stringIcSt11char_traitsIcESaIcEEESt4pairIKS5_P8gzFile_sESt10_Select1stISA_ESt4lessIS5_ESaISA_EE13_Rb_tree_implISE_Lb1EEC2Ev
	.p2align	4, 0x90
	.type	_ZNSt8_Rb_treeINSt7__cxx1112basic_stringIcSt11char_traitsIcESaIcEEESt4pairIKS5_P8gzFile_sESt10_Select1stISA_ESt4lessIS5_ESaISA_EE13_Rb_tree_implISE_Lb1EEC2Ev,@function
_ZNSt8_Rb_treeINSt7__cxx1112basic_stringIcSt11char_traitsIcESaIcEEESt4pairIKS5_P8gzFile_sESt10_Select1stISA_ESt4lessIS5_ESaISA_EE13_Rb_tree_implISE_Lb1EEC2Ev: # @_ZNSt8_Rb_treeINSt7__cxx1112basic_stringIcSt11char_traitsIcESaIcEEESt4pairIKS5_P8gzFile_sESt10_Select1stISA_ESt4lessIS5_ESaISA_EE13_Rb_tree_implISE_Lb1EEC2Ev
.Lfunc_begin33:
	.cfi_startproc
# %bb.0:
	pushq	%rbp
	.cfi_def_cfa_offset 16
	.cfi_offset %rbp, -16
	movq	%rsp, %rbp
	.cfi_def_cfa_register %rbp
	subq	$16, %rsp
	movq	%rdi, -8(%rbp)          # 8-byte Spill
	callq	_ZNSaISt13_Rb_tree_nodeISt4pairIKNSt7__cxx1112basic_stringIcSt11char_traitsIcESaIcEEEP8gzFile_sEEEC2Ev
	movq	-8(%rbp), %rdi          # 8-byte Reload
	callq	_ZNSt20_Rb_tree_key_compareISt4lessINSt7__cxx1112basic_stringIcSt11char_traitsIcESaIcEEEEEC2Ev
	movq	-8(%rbp), %rdi          # 8-byte Reload
	addq	$8, %rdi
	addq	$16, %rsp
	popq	%rbp
	jmp	_ZNSt15_Rb_tree_headerC2Ev # TAILCALL
.Lfunc_end33:
	.size	_ZNSt8_Rb_treeINSt7__cxx1112basic_stringIcSt11char_traitsIcESaIcEEESt4pairIKS5_P8gzFile_sESt10_Select1stISA_ESt4lessIS5_ESaISA_EE13_Rb_tree_implISE_Lb1EEC2Ev, .Lfunc_end33-_ZNSt8_Rb_treeINSt7__cxx1112basic_stringIcSt11char_traitsIcESaIcEEESt4pairIKS5_P8gzFile_sESt10_Select1stISA_ESt4lessIS5_ESaISA_EE13_Rb_tree_implISE_Lb1EEC2Ev
	.cfi_endproc
                                        # -- End function
	.section	.text._ZNSaISt13_Rb_tree_nodeISt4pairIKNSt7__cxx1112basic_stringIcSt11char_traitsIcESaIcEEEP8gzFile_sEEEC2Ev,"axG",@progbits,_ZNSaISt13_Rb_tree_nodeISt4pairIKNSt7__cxx1112basic_stringIcSt11char_traitsIcESaIcEEEP8gzFile_sEEEC2Ev,comdat
	.weak	_ZNSaISt13_Rb_tree_nodeISt4pairIKNSt7__cxx1112basic_stringIcSt11char_traitsIcESaIcEEEP8gzFile_sEEEC2Ev # -- Begin function _ZNSaISt13_Rb_tree_nodeISt4pairIKNSt7__cxx1112basic_stringIcSt11char_traitsIcESaIcEEEP8gzFile_sEEEC2Ev
	.p2align	4, 0x90
	.type	_ZNSaISt13_Rb_tree_nodeISt4pairIKNSt7__cxx1112basic_stringIcSt11char_traitsIcESaIcEEEP8gzFile_sEEEC2Ev,@function
_ZNSaISt13_Rb_tree_nodeISt4pairIKNSt7__cxx1112basic_stringIcSt11char_traitsIcESaIcEEEP8gzFile_sEEEC2Ev: # @_ZNSaISt13_Rb_tree_nodeISt4pairIKNSt7__cxx1112basic_stringIcSt11char_traitsIcESaIcEEEP8gzFile_sEEEC2Ev
.Lfunc_begin34:
	.cfi_startproc
# %bb.0:
	pushq	%rbp
	.cfi_def_cfa_offset 16
	.cfi_offset %rbp, -16
	movq	%rsp, %rbp
	.cfi_def_cfa_register %rbp
	popq	%rbp
	jmp	_ZN9__gnu_cxx13new_allocatorISt13_Rb_tree_nodeISt4pairIKNSt7__cxx1112basic_stringIcSt11char_traitsIcESaIcEEEP8gzFile_sEEEC2Ev # TAILCALL
.Lfunc_end34:
	.size	_ZNSaISt13_Rb_tree_nodeISt4pairIKNSt7__cxx1112basic_stringIcSt11char_traitsIcESaIcEEEP8gzFile_sEEEC2Ev, .Lfunc_end34-_ZNSaISt13_Rb_tree_nodeISt4pairIKNSt7__cxx1112basic_stringIcSt11char_traitsIcESaIcEEEP8gzFile_sEEEC2Ev
	.cfi_endproc
                                        # -- End function
	.section	.text._ZNSt20_Rb_tree_key_compareISt4lessINSt7__cxx1112basic_stringIcSt11char_traitsIcESaIcEEEEEC2Ev,"axG",@progbits,_ZNSt20_Rb_tree_key_compareISt4lessINSt7__cxx1112basic_stringIcSt11char_traitsIcESaIcEEEEEC2Ev,comdat
	.weak	_ZNSt20_Rb_tree_key_compareISt4lessINSt7__cxx1112basic_stringIcSt11char_traitsIcESaIcEEEEEC2Ev # -- Begin function _ZNSt20_Rb_tree_key_compareISt4lessINSt7__cxx1112basic_stringIcSt11char_traitsIcESaIcEEEEEC2Ev
	.p2align	4, 0x90
	.type	_ZNSt20_Rb_tree_key_compareISt4lessINSt7__cxx1112basic_stringIcSt11char_traitsIcESaIcEEEEEC2Ev,@function
_ZNSt20_Rb_tree_key_compareISt4lessINSt7__cxx1112basic_stringIcSt11char_traitsIcESaIcEEEEEC2Ev: # @_ZNSt20_Rb_tree_key_compareISt4lessINSt7__cxx1112basic_stringIcSt11char_traitsIcESaIcEEEEEC2Ev
.Lfunc_begin35:
	.cfi_startproc
# %bb.0:
	pushq	%rbp
	.cfi_def_cfa_offset 16
	.cfi_offset %rbp, -16
	movq	%rsp, %rbp
	.cfi_def_cfa_register %rbp
	movq	%rdi, -8(%rbp)          # 8-byte Spill
	popq	%rbp
	retq
.Lfunc_end35:
	.size	_ZNSt20_Rb_tree_key_compareISt4lessINSt7__cxx1112basic_stringIcSt11char_traitsIcESaIcEEEEEC2Ev, .Lfunc_end35-_ZNSt20_Rb_tree_key_compareISt4lessINSt7__cxx1112basic_stringIcSt11char_traitsIcESaIcEEEEEC2Ev
	.cfi_endproc
                                        # -- End function
	.section	.text._ZNSt15_Rb_tree_headerC2Ev,"axG",@progbits,_ZNSt15_Rb_tree_headerC2Ev,comdat
	.weak	_ZNSt15_Rb_tree_headerC2Ev # -- Begin function _ZNSt15_Rb_tree_headerC2Ev
	.p2align	4, 0x90
	.type	_ZNSt15_Rb_tree_headerC2Ev,@function
_ZNSt15_Rb_tree_headerC2Ev:             # @_ZNSt15_Rb_tree_headerC2Ev
.Lfunc_begin36:
	.cfi_startproc
# %bb.0:
	pushq	%rbp
	.cfi_def_cfa_offset 16
	.cfi_offset %rbp, -16
	movq	%rsp, %rbp
	.cfi_def_cfa_register %rbp
	movl	$0, (%rdi)
	popq	%rbp
	jmp	_ZNSt15_Rb_tree_header8_M_resetEv # TAILCALL
.Lfunc_end36:
	.size	_ZNSt15_Rb_tree_headerC2Ev, .Lfunc_end36-_ZNSt15_Rb_tree_headerC2Ev
	.cfi_endproc
                                        # -- End function
	.section	.text._ZNSt15_Rb_tree_header8_M_resetEv,"axG",@progbits,_ZNSt15_Rb_tree_header8_M_resetEv,comdat
	.weak	_ZNSt15_Rb_tree_header8_M_resetEv # -- Begin function _ZNSt15_Rb_tree_header8_M_resetEv
	.p2align	4, 0x90
	.type	_ZNSt15_Rb_tree_header8_M_resetEv,@function
_ZNSt15_Rb_tree_header8_M_resetEv:      # @_ZNSt15_Rb_tree_header8_M_resetEv
.Lfunc_begin37:
	.cfi_startproc
# %bb.0:
	pushq	%rbp
	.cfi_def_cfa_offset 16
	.cfi_offset %rbp, -16
	movq	%rsp, %rbp
	.cfi_def_cfa_register %rbp
	movq	$0, 8(%rdi)
	movq	%rdi, 16(%rdi)
	movq	%rdi, 24(%rdi)
	movq	$0, 32(%rdi)
	popq	%rbp
	retq
.Lfunc_end37:
	.size	_ZNSt15_Rb_tree_header8_M_resetEv, .Lfunc_end37-_ZNSt15_Rb_tree_header8_M_resetEv
	.cfi_endproc
                                        # -- End function
	.section	.text._ZN9__gnu_cxx13new_allocatorISt13_Rb_tree_nodeISt4pairIKNSt7__cxx1112basic_stringIcSt11char_traitsIcESaIcEEEP8gzFile_sEEEC2Ev,"axG",@progbits,_ZN9__gnu_cxx13new_allocatorISt13_Rb_tree_nodeISt4pairIKNSt7__cxx1112basic_stringIcSt11char_traitsIcESaIcEEEP8gzFile_sEEEC2Ev,comdat
	.weak	_ZN9__gnu_cxx13new_allocatorISt13_Rb_tree_nodeISt4pairIKNSt7__cxx1112basic_stringIcSt11char_traitsIcESaIcEEEP8gzFile_sEEEC2Ev # -- Begin function _ZN9__gnu_cxx13new_allocatorISt13_Rb_tree_nodeISt4pairIKNSt7__cxx1112basic_stringIcSt11char_traitsIcESaIcEEEP8gzFile_sEEEC2Ev
	.p2align	4, 0x90
	.type	_ZN9__gnu_cxx13new_allocatorISt13_Rb_tree_nodeISt4pairIKNSt7__cxx1112basic_stringIcSt11char_traitsIcESaIcEEEP8gzFile_sEEEC2Ev,@function
_ZN9__gnu_cxx13new_allocatorISt13_Rb_tree_nodeISt4pairIKNSt7__cxx1112basic_stringIcSt11char_traitsIcESaIcEEEP8gzFile_sEEEC2Ev: # @_ZN9__gnu_cxx13new_allocatorISt13_Rb_tree_nodeISt4pairIKNSt7__cxx1112basic_stringIcSt11char_traitsIcESaIcEEEP8gzFile_sEEEC2Ev
.Lfunc_begin38:
	.cfi_startproc
# %bb.0:
	pushq	%rbp
	.cfi_def_cfa_offset 16
	.cfi_offset %rbp, -16
	movq	%rsp, %rbp
	.cfi_def_cfa_register %rbp
	movq	%rdi, -8(%rbp)          # 8-byte Spill
	popq	%rbp
	retq
.Lfunc_end38:
	.size	_ZN9__gnu_cxx13new_allocatorISt13_Rb_tree_nodeISt4pairIKNSt7__cxx1112basic_stringIcSt11char_traitsIcESaIcEEEP8gzFile_sEEEC2Ev, .Lfunc_end38-_ZN9__gnu_cxx13new_allocatorISt13_Rb_tree_nodeISt4pairIKNSt7__cxx1112basic_stringIcSt11char_traitsIcESaIcEEEP8gzFile_sEEEC2Ev
	.cfi_endproc
                                        # -- End function
	.text
	.globl	_Z12create_tracePKc     # -- Begin function _Z12create_tracePKc
	.p2align	4, 0x90
	.type	_Z12create_tracePKc,@function
_Z12create_tracePKc:                    # @_Z12create_tracePKc
.Lfunc_begin39:
	.cfi_startproc
	.cfi_personality 3, __gxx_personality_v0
	.cfi_lsda 3, .Lexception3
# %bb.0:
	pushq	%rbp
	.cfi_def_cfa_offset 16
	.cfi_offset %rbp, -16
	movq	%rsp, %rbp
	.cfi_def_cfa_register %rbp
	subq	$32, %rsp
	movq	%rdi, -8(%rbp)          # 8-byte Spill
	callq	_ZTW5trace
	cmpq	$0, (%rax)
	je	.LBB39_2
# %bb.1:
	movabsq	$.L.str.3.104, %rdi
	movabsq	$.L.str.4.105, %rsi
	movl	$10, %edx
	movabsq	$.L__PRETTY_FUNCTION__._Z12create_tracePKc, %rcx
	callq	__assert_fail
.LBB39_2:
	movl	$88, %eax
	movl	%eax, %edi
	callq	_Znwm
	movq	%rax, %rdi
.Ltmp62:
	movq	%rdi, -16(%rbp)         # 8-byte Spill
	movq	%rax, %rdi
	movq	-8(%rbp), %rsi          # 8-byte Reload
	callq	_ZN10trace_infoC2EPKc
.Ltmp63:
	jmp	.LBB39_3
.LBB39_3:
	callq	_ZTW5trace
	movq	-16(%rbp), %rcx         # 8-byte Reload
	movq	%rcx, (%rax)
	addq	$32, %rsp
	popq	%rbp
	retq
.LBB39_4:
.Ltmp64:
	movl	%edx, %ecx
	movq	-16(%rbp), %rdi         # 8-byte Reload
	movl	%ecx, -20(%rbp)         # 4-byte Spill
	movq	%rax, -32(%rbp)         # 8-byte Spill
	callq	_ZdlPv
	movq	-32(%rbp), %rdi         # 8-byte Reload
	callq	_Unwind_Resume
.Lfunc_end39:
	.size	_Z12create_tracePKc, .Lfunc_end39-_Z12create_tracePKc
	.cfi_endproc
	.section	.gcc_except_table,"a",@progbits
	.p2align	2
GCC_except_table39:
.Lexception3:
	.byte	255                     # @LPStart Encoding = omit
	.byte	3                       # @TType Encoding = udata4
	.byte	41                      # @TType base offset
	.byte	3                       # Call site Encoding = udata4
	.byte	39                      # Call site table length
	.long	.Lfunc_begin39-.Lfunc_begin39 # >> Call Site 1 <<
	.long	.Ltmp62-.Lfunc_begin39  #   Call between .Lfunc_begin39 and .Ltmp62
	.long	0                       #     has no landing pad
	.byte	0                       #   On action: cleanup
	.long	.Ltmp62-.Lfunc_begin39  # >> Call Site 2 <<
	.long	.Ltmp63-.Ltmp62         #   Call between .Ltmp62 and .Ltmp63
	.long	.Ltmp64-.Lfunc_begin39  #     jumps to .Ltmp64
	.byte	0                       #   On action: cleanup
	.long	.Ltmp63-.Lfunc_begin39  # >> Call Site 3 <<
	.long	.Lfunc_end39-.Ltmp63    #   Call between .Ltmp63 and .Lfunc_end39
	.long	0                       #     has no landing pad
	.byte	0                       #   On action: cleanup
	.p2align	2
                                        # -- End function
	.text
	.hidden	_ZTW5trace              # -- Begin function _ZTW5trace
	.weak	_ZTW5trace
	.p2align	4, 0x90
	.type	_ZTW5trace,@function
_ZTW5trace:                             # @_ZTW5trace
.Lfunc_begin40:
	.cfi_startproc
# %bb.0:
	pushq	%rbp
	.cfi_def_cfa_offset 16
	.cfi_offset %rbp, -16
	movq	%rsp, %rbp
	.cfi_def_cfa_register %rbp
	movq	%fs:0, %rax
	leaq	trace@TPOFF(%rax), %rax
	popq	%rbp
	retq
.Lfunc_end40:
	.size	_ZTW5trace, .Lfunc_end40-_ZTW5trace
	.cfi_endproc
                                        # -- End function
	.section	.text._ZN10trace_infoC2EPKc,"axG",@progbits,_ZN10trace_infoC2EPKc,comdat
	.weak	_ZN10trace_infoC2EPKc   # -- Begin function _ZN10trace_infoC2EPKc
	.p2align	4, 0x90
	.type	_ZN10trace_infoC2EPKc,@function
_ZN10trace_infoC2EPKc:                  # @_ZN10trace_infoC2EPKc
.Lfunc_begin41:
	.cfi_startproc
	.cfi_personality 3, __gxx_personality_v0
	.cfi_lsda 3, .Lexception4
# %bb.0:
	pushq	%rbp
	.cfi_def_cfa_offset 16
	.cfi_offset %rbp, -16
	movq	%rsp, %rbp
	.cfi_def_cfa_register %rbp
	subq	$48, %rsp
	leaq	-8(%rbp), %rax
	movq	%rdi, -16(%rbp)         # 8-byte Spill
	movq	%rax, %rdi
	movq	%rax, -24(%rbp)         # 8-byte Spill
	movq	%rsi, -32(%rbp)         # 8-byte Spill
	callq	_ZNSaIcEC2Ev
.Ltmp65:
	movq	-16(%rbp), %rdi         # 8-byte Reload
	movq	-32(%rbp), %rsi         # 8-byte Reload
	movq	-24(%rbp), %rdx         # 8-byte Reload
	callq	_ZNSt7__cxx1112basic_stringIcSt11char_traitsIcESaIcEEC2EPKcRKS3_
.Ltmp66:
	jmp	.LBB41_1
.LBB41_1:
	leaq	-8(%rbp), %rdi
	callq	_ZNSaIcED2Ev
	movq	-16(%rbp), %rdi         # 8-byte Reload
	movq	$0, 40(%rdi)
	addq	$48, %rdi
	callq	_ZNSt7__cxx1112basic_stringIcSt11char_traitsIcESaIcEEC2Ev
	movq	-16(%rbp), %rdi         # 8-byte Reload
	movl	$1, 80(%rdi)
	addq	$48, %rsp
	popq	%rbp
	retq
.LBB41_2:
.Ltmp67:
	leaq	-8(%rbp), %rdi
	movl	%edx, %ecx
	movq	%rax, -40(%rbp)         # 8-byte Spill
	movl	%ecx, -44(%rbp)         # 4-byte Spill
	callq	_ZNSaIcED2Ev
	movq	-40(%rbp), %rdi         # 8-byte Reload
	callq	_Unwind_Resume
.Lfunc_end41:
	.size	_ZN10trace_infoC2EPKc, .Lfunc_end41-_ZN10trace_infoC2EPKc
	.cfi_endproc
	.section	.gcc_except_table,"a",@progbits
	.p2align	2
GCC_except_table41:
.Lexception4:
	.byte	255                     # @LPStart Encoding = omit
	.byte	3                       # @TType Encoding = udata4
	.asciz	"\234"                  # @TType base offset
	.byte	3                       # Call site Encoding = udata4
	.byte	26                      # Call site table length
	.long	.Ltmp65-.Lfunc_begin41  # >> Call Site 1 <<
	.long	.Ltmp66-.Ltmp65         #   Call between .Ltmp65 and .Ltmp66
	.long	.Ltmp67-.Lfunc_begin41  #     jumps to .Ltmp67
	.byte	0                       #   On action: cleanup
	.long	.Ltmp66-.Lfunc_begin41  # >> Call Site 2 <<
	.long	.Lfunc_end41-.Ltmp66    #   Call between .Ltmp66 and .Lfunc_end41
	.long	0                       #     has no landing pad
	.byte	0                       #   On action: cleanup
	.p2align	2
                                        # -- End function
	.text
	.globl	_Z14write_labelmapv     # -- Begin function _Z14write_labelmapv
	.p2align	4, 0x90
	.type	_Z14write_labelmapv,@function
_Z14write_labelmapv:                    # @_Z14write_labelmapv
.Lfunc_begin42:
	.cfi_startproc
# %bb.0:
	pushq	%rbp
	.cfi_def_cfa_offset 16
	.cfi_offset %rbp, -16
	movq	%rsp, %rbp
	.cfi_def_cfa_register %rbp
	subq	$48, %rsp
	callq	_ZTW5trace
	movq	(%rax), %rax
	movq	32(%rax), %rax
	movl	$.L.str.5.106, %ecx
	movl	%ecx, %esi
	movl	$26, %edx
	movq	%rax, %rdi
	movq	%rax, -8(%rbp)          # 8-byte Spill
	callq	gzwrite
	movl	$_Z12labelmap_strB5cxx11, %ecx
	movl	%ecx, %esi
	movq	%rsi, %rdi
	movl	%eax, -12(%rbp)         # 4-byte Spill
	movq	%rsi, -24(%rbp)         # 8-byte Spill
	callq	_ZNKSt7__cxx1112basic_stringIcSt11char_traitsIcESaIcEE5c_strEv
	movq	-24(%rbp), %rdi         # 8-byte Reload
	movq	%rax, -32(%rbp)         # 8-byte Spill
	callq	_ZNKSt7__cxx1112basic_stringIcSt11char_traitsIcESaIcEE6lengthEv
	movl	%eax, %ecx
	movq	-8(%rbp), %rdi          # 8-byte Reload
	movq	-32(%rbp), %rsi         # 8-byte Reload
	movl	%ecx, %edx
	callq	gzwrite
	movl	$.L.str.6.107, %ecx
	movl	%ecx, %esi
	movl	$25, %edx
	movq	-8(%rbp), %rdi          # 8-byte Reload
	movl	%eax, -36(%rbp)         # 4-byte Spill
	addq	$48, %rsp
	popq	%rbp
	jmp	gzwrite                 # TAILCALL
.Lfunc_end42:
	.size	_Z14write_labelmapv, .Lfunc_end42-_Z14write_labelmapv
	.cfi_endproc
                                        # -- End function
	.globl	_Z15open_trace_filev    # -- Begin function _Z15open_trace_filev
	.p2align	4, 0x90
	.type	_Z15open_trace_filev,@function
_Z15open_trace_filev:                   # @_Z15open_trace_filev
.Lfunc_begin43:
	.cfi_startproc
# %bb.0:
	pushq	%rbp
	.cfi_def_cfa_offset 16
	.cfi_offset %rbp, -16
	movq	%rsp, %rbp
	.cfi_def_cfa_register %rbp
	subq	$64, %rsp
	movabsq	$lock, %rdi
	callq	pthread_mutex_lock
	movl	%eax, -20(%rbp)         # 4-byte Spill
	callq	_ZTW5trace
	movabsq	$_Z8gz_filesB5cxx11, %rdi
	movq	(%rax), %rsi
	callq	_ZNSt3mapINSt7__cxx1112basic_stringIcSt11char_traitsIcESaIcEEEP8gzFile_sSt4lessIS5_ESaISt4pairIKS5_S7_EEE4findERSB_
	movabsq	$_Z8gz_filesB5cxx11, %rdi
	movq	%rax, -8(%rbp)
	callq	_ZNSt3mapINSt7__cxx1112basic_stringIcSt11char_traitsIcESaIcEEEP8gzFile_sSt4lessIS5_ESaISt4pairIKS5_S7_EEE3endEv
	leaq	-8(%rbp), %rdi
	leaq	-16(%rbp), %rsi
	movq	%rax, -16(%rbp)
	callq	_ZNKSt17_Rb_tree_iteratorISt4pairIKNSt7__cxx1112basic_stringIcSt11char_traitsIcESaIcEEEP8gzFile_sEEneERKSB_
	movb	%al, -21(%rbp)          # 1-byte Spill
	callq	_ZTW5trace
	movq	(%rax), %rax
	movb	-21(%rbp), %cl          # 1-byte Reload
	testb	$1, %cl
	movq	%rax, -32(%rbp)         # 8-byte Spill
	jne	.LBB43_1
	jmp	.LBB43_2
.LBB43_1:
	movabsq	$_Z8gz_filesB5cxx11, %rdi
	movq	-32(%rbp), %rsi         # 8-byte Reload
	callq	_ZNSt3mapINSt7__cxx1112basic_stringIcSt11char_traitsIcESaIcEEEP8gzFile_sSt4lessIS5_ESaISt4pairIKS5_S7_EEE2atERSB_
	movq	(%rax), %rax
	movq	%rax, -40(%rbp)         # 8-byte Spill
	callq	_ZTW5trace
	movq	(%rax), %rax
	movq	-40(%rbp), %rsi         # 8-byte Reload
	movq	%rsi, 32(%rax)
	jmp	.LBB43_5
.LBB43_2:
	movq	-32(%rbp), %rdi         # 8-byte Reload
	callq	_ZNKSt7__cxx1112basic_stringIcSt11char_traitsIcESaIcEE5c_strEv
	movabsq	$.L.str.7.108, %rsi
	movq	%rax, %rdi
	callq	gzopen
	cmpq	$0, %rax
	movq	%rax, -48(%rbp)         # 8-byte Spill
	jne	.LBB43_4
# %bb.3:
	movabsq	$.L.str.8.109, %rdi
	callq	perror
	movl	$4294967295, %edi       # imm = 0xFFFFFFFF
	callq	exit
.LBB43_4:
	callq	_ZTW5trace
	movabsq	$_Z8gz_filesB5cxx11, %rdi
	movq	(%rax), %rsi
	callq	_ZNSt3mapINSt7__cxx1112basic_stringIcSt11char_traitsIcESaIcEEEP8gzFile_sSt4lessIS5_ESaISt4pairIKS5_S7_EEEixERSB_
	movq	-48(%rbp), %rsi         # 8-byte Reload
	movq	%rsi, (%rax)
	callq	_ZTW5trace
	movq	(%rax), %rax
	movq	-48(%rbp), %rsi         # 8-byte Reload
	movq	%rsi, 32(%rax)
	callq	_Z14write_labelmapv
.LBB43_5:
	movabsq	$lock, %rdi
	callq	pthread_mutex_unlock
	movl	%eax, -52(%rbp)         # 4-byte Spill
	addq	$64, %rsp
	popq	%rbp
	retq
.Lfunc_end43:
	.size	_Z15open_trace_filev, .Lfunc_end43-_Z15open_trace_filev
	.cfi_endproc
                                        # -- End function
	.section	.text._ZNSt3mapINSt7__cxx1112basic_stringIcSt11char_traitsIcESaIcEEEP8gzFile_sSt4lessIS5_ESaISt4pairIKS5_S7_EEE4findERSB_,"axG",@progbits,_ZNSt3mapINSt7__cxx1112basic_stringIcSt11char_traitsIcESaIcEEEP8gzFile_sSt4lessIS5_ESaISt4pairIKS5_S7_EEE4findERSB_,comdat
	.weak	_ZNSt3mapINSt7__cxx1112basic_stringIcSt11char_traitsIcESaIcEEEP8gzFile_sSt4lessIS5_ESaISt4pairIKS5_S7_EEE4findERSB_ # -- Begin function _ZNSt3mapINSt7__cxx1112basic_stringIcSt11char_traitsIcESaIcEEEP8gzFile_sSt4lessIS5_ESaISt4pairIKS5_S7_EEE4findERSB_
	.p2align	4, 0x90
	.type	_ZNSt3mapINSt7__cxx1112basic_stringIcSt11char_traitsIcESaIcEEEP8gzFile_sSt4lessIS5_ESaISt4pairIKS5_S7_EEE4findERSB_,@function
_ZNSt3mapINSt7__cxx1112basic_stringIcSt11char_traitsIcESaIcEEEP8gzFile_sSt4lessIS5_ESaISt4pairIKS5_S7_EEE4findERSB_: # @_ZNSt3mapINSt7__cxx1112basic_stringIcSt11char_traitsIcESaIcEEEP8gzFile_sSt4lessIS5_ESaISt4pairIKS5_S7_EEE4findERSB_
.Lfunc_begin44:
	.cfi_startproc
# %bb.0:
	pushq	%rbp
	.cfi_def_cfa_offset 16
	.cfi_offset %rbp, -16
	movq	%rsp, %rbp
	.cfi_def_cfa_register %rbp
	popq	%rbp
	jmp	_ZNSt8_Rb_treeINSt7__cxx1112basic_stringIcSt11char_traitsIcESaIcEEESt4pairIKS5_P8gzFile_sESt10_Select1stISA_ESt4lessIS5_ESaISA_EE4findERS7_ # TAILCALL
.Lfunc_end44:
	.size	_ZNSt3mapINSt7__cxx1112basic_stringIcSt11char_traitsIcESaIcEEEP8gzFile_sSt4lessIS5_ESaISt4pairIKS5_S7_EEE4findERSB_, .Lfunc_end44-_ZNSt3mapINSt7__cxx1112basic_stringIcSt11char_traitsIcESaIcEEEP8gzFile_sSt4lessIS5_ESaISt4pairIKS5_S7_EEE4findERSB_
	.cfi_endproc
                                        # -- End function
	.section	.text._ZNSt3mapINSt7__cxx1112basic_stringIcSt11char_traitsIcESaIcEEEP8gzFile_sSt4lessIS5_ESaISt4pairIKS5_S7_EEE3endEv,"axG",@progbits,_ZNSt3mapINSt7__cxx1112basic_stringIcSt11char_traitsIcESaIcEEEP8gzFile_sSt4lessIS5_ESaISt4pairIKS5_S7_EEE3endEv,comdat
	.weak	_ZNSt3mapINSt7__cxx1112basic_stringIcSt11char_traitsIcESaIcEEEP8gzFile_sSt4lessIS5_ESaISt4pairIKS5_S7_EEE3endEv # -- Begin function _ZNSt3mapINSt7__cxx1112basic_stringIcSt11char_traitsIcESaIcEEEP8gzFile_sSt4lessIS5_ESaISt4pairIKS5_S7_EEE3endEv
	.p2align	4, 0x90
	.type	_ZNSt3mapINSt7__cxx1112basic_stringIcSt11char_traitsIcESaIcEEEP8gzFile_sSt4lessIS5_ESaISt4pairIKS5_S7_EEE3endEv,@function
_ZNSt3mapINSt7__cxx1112basic_stringIcSt11char_traitsIcESaIcEEEP8gzFile_sSt4lessIS5_ESaISt4pairIKS5_S7_EEE3endEv: # @_ZNSt3mapINSt7__cxx1112basic_stringIcSt11char_traitsIcESaIcEEEP8gzFile_sSt4lessIS5_ESaISt4pairIKS5_S7_EEE3endEv
.Lfunc_begin45:
	.cfi_startproc
# %bb.0:
	pushq	%rbp
	.cfi_def_cfa_offset 16
	.cfi_offset %rbp, -16
	movq	%rsp, %rbp
	.cfi_def_cfa_register %rbp
	popq	%rbp
	jmp	_ZNSt8_Rb_treeINSt7__cxx1112basic_stringIcSt11char_traitsIcESaIcEEESt4pairIKS5_P8gzFile_sESt10_Select1stISA_ESt4lessIS5_ESaISA_EE3endEv # TAILCALL
.Lfunc_end45:
	.size	_ZNSt3mapINSt7__cxx1112basic_stringIcSt11char_traitsIcESaIcEEEP8gzFile_sSt4lessIS5_ESaISt4pairIKS5_S7_EEE3endEv, .Lfunc_end45-_ZNSt3mapINSt7__cxx1112basic_stringIcSt11char_traitsIcESaIcEEEP8gzFile_sSt4lessIS5_ESaISt4pairIKS5_S7_EEE3endEv
	.cfi_endproc
                                        # -- End function
	.section	.text._ZNKSt17_Rb_tree_iteratorISt4pairIKNSt7__cxx1112basic_stringIcSt11char_traitsIcESaIcEEEP8gzFile_sEEneERKSB_,"axG",@progbits,_ZNKSt17_Rb_tree_iteratorISt4pairIKNSt7__cxx1112basic_stringIcSt11char_traitsIcESaIcEEEP8gzFile_sEEneERKSB_,comdat
	.weak	_ZNKSt17_Rb_tree_iteratorISt4pairIKNSt7__cxx1112basic_stringIcSt11char_traitsIcESaIcEEEP8gzFile_sEEneERKSB_ # -- Begin function _ZNKSt17_Rb_tree_iteratorISt4pairIKNSt7__cxx1112basic_stringIcSt11char_traitsIcESaIcEEEP8gzFile_sEEneERKSB_
	.p2align	4, 0x90
	.type	_ZNKSt17_Rb_tree_iteratorISt4pairIKNSt7__cxx1112basic_stringIcSt11char_traitsIcESaIcEEEP8gzFile_sEEneERKSB_,@function
_ZNKSt17_Rb_tree_iteratorISt4pairIKNSt7__cxx1112basic_stringIcSt11char_traitsIcESaIcEEEP8gzFile_sEEneERKSB_: # @_ZNKSt17_Rb_tree_iteratorISt4pairIKNSt7__cxx1112basic_stringIcSt11char_traitsIcESaIcEEEP8gzFile_sEEneERKSB_
.Lfunc_begin46:
	.cfi_startproc
# %bb.0:
	pushq	%rbp
	.cfi_def_cfa_offset 16
	.cfi_offset %rbp, -16
	movq	%rsp, %rbp
	.cfi_def_cfa_register %rbp
	movq	(%rdi), %rdi
	cmpq	(%rsi), %rdi
	setne	%al
	andb	$1, %al
	movzbl	%al, %eax
	popq	%rbp
	retq
.Lfunc_end46:
	.size	_ZNKSt17_Rb_tree_iteratorISt4pairIKNSt7__cxx1112basic_stringIcSt11char_traitsIcESaIcEEEP8gzFile_sEEneERKSB_, .Lfunc_end46-_ZNKSt17_Rb_tree_iteratorISt4pairIKNSt7__cxx1112basic_stringIcSt11char_traitsIcESaIcEEEP8gzFile_sEEneERKSB_
	.cfi_endproc
                                        # -- End function
	.section	.text._ZNSt3mapINSt7__cxx1112basic_stringIcSt11char_traitsIcESaIcEEEP8gzFile_sSt4lessIS5_ESaISt4pairIKS5_S7_EEE2atERSB_,"axG",@progbits,_ZNSt3mapINSt7__cxx1112basic_stringIcSt11char_traitsIcESaIcEEEP8gzFile_sSt4lessIS5_ESaISt4pairIKS5_S7_EEE2atERSB_,comdat
	.weak	_ZNSt3mapINSt7__cxx1112basic_stringIcSt11char_traitsIcESaIcEEEP8gzFile_sSt4lessIS5_ESaISt4pairIKS5_S7_EEE2atERSB_ # -- Begin function _ZNSt3mapINSt7__cxx1112basic_stringIcSt11char_traitsIcESaIcEEEP8gzFile_sSt4lessIS5_ESaISt4pairIKS5_S7_EEE2atERSB_
	.p2align	4, 0x90
	.type	_ZNSt3mapINSt7__cxx1112basic_stringIcSt11char_traitsIcESaIcEEEP8gzFile_sSt4lessIS5_ESaISt4pairIKS5_S7_EEE2atERSB_,@function
_ZNSt3mapINSt7__cxx1112basic_stringIcSt11char_traitsIcESaIcEEEP8gzFile_sSt4lessIS5_ESaISt4pairIKS5_S7_EEE2atERSB_: # @_ZNSt3mapINSt7__cxx1112basic_stringIcSt11char_traitsIcESaIcEEEP8gzFile_sSt4lessIS5_ESaISt4pairIKS5_S7_EEE2atERSB_
.Lfunc_begin47:
	.cfi_startproc
# %bb.0:
	pushq	%rbp
	.cfi_def_cfa_offset 16
	.cfi_offset %rbp, -16
	movq	%rsp, %rbp
	.cfi_def_cfa_register %rbp
	subq	$64, %rsp
	leaq	-8(%rbp), %rax
	movq	%rdi, -32(%rbp)         # 8-byte Spill
	movq	%rsi, -40(%rbp)         # 8-byte Spill
	movq	%rax, -48(%rbp)         # 8-byte Spill
	callq	_ZNSt3mapINSt7__cxx1112basic_stringIcSt11char_traitsIcESaIcEEEP8gzFile_sSt4lessIS5_ESaISt4pairIKS5_S7_EEE11lower_boundERSB_
	leaq	-16(%rbp), %rsi
	movq	%rax, -8(%rbp)
	movq	-32(%rbp), %rdi         # 8-byte Reload
	movq	%rsi, -56(%rbp)         # 8-byte Spill
	callq	_ZNSt3mapINSt7__cxx1112basic_stringIcSt11char_traitsIcESaIcEEEP8gzFile_sSt4lessIS5_ESaISt4pairIKS5_S7_EEE3endEv
	leaq	-8(%rbp), %rdi
	leaq	-16(%rbp), %rsi
	movq	%rax, -16(%rbp)
	callq	_ZNKSt17_Rb_tree_iteratorISt4pairIKNSt7__cxx1112basic_stringIcSt11char_traitsIcESaIcEEEP8gzFile_sEEeqERKSB_
	testb	$1, %al
	jne	.LBB47_2
# %bb.1:
	movq	-32(%rbp), %rdi         # 8-byte Reload
	callq	_ZNKSt3mapINSt7__cxx1112basic_stringIcSt11char_traitsIcESaIcEEEP8gzFile_sSt4lessIS5_ESaISt4pairIKS5_S7_EEE8key_compEv
	leaq	-8(%rbp), %rdi
	callq	_ZNKSt17_Rb_tree_iteratorISt4pairIKNSt7__cxx1112basic_stringIcSt11char_traitsIcESaIcEEEP8gzFile_sEEdeEv
	leaq	-24(%rbp), %rdi
	movq	-40(%rbp), %rsi         # 8-byte Reload
	movq	%rax, %rdx
	callq	_ZNKSt4lessINSt7__cxx1112basic_stringIcSt11char_traitsIcESaIcEEEEclERKS5_S8_
	testb	$1, %al
	jne	.LBB47_3
	jmp	.LBB47_4
.LBB47_2:
.LBB47_3:
	movabsq	$.L.str.36.110, %rdi
	callq	_ZSt20__throw_out_of_rangePKc
.LBB47_4:
	leaq	-8(%rbp), %rdi
	callq	_ZNKSt17_Rb_tree_iteratorISt4pairIKNSt7__cxx1112basic_stringIcSt11char_traitsIcESaIcEEEP8gzFile_sEEdeEv
	addq	$32, %rax
	addq	$64, %rsp
	popq	%rbp
	retq
.Lfunc_end47:
	.size	_ZNSt3mapINSt7__cxx1112basic_stringIcSt11char_traitsIcESaIcEEEP8gzFile_sSt4lessIS5_ESaISt4pairIKS5_S7_EEE2atERSB_, .Lfunc_end47-_ZNSt3mapINSt7__cxx1112basic_stringIcSt11char_traitsIcESaIcEEEP8gzFile_sSt4lessIS5_ESaISt4pairIKS5_S7_EEE2atERSB_
	.cfi_endproc
                                        # -- End function
	.section	.text._ZNSt3mapINSt7__cxx1112basic_stringIcSt11char_traitsIcESaIcEEEP8gzFile_sSt4lessIS5_ESaISt4pairIKS5_S7_EEEixERSB_,"axG",@progbits,_ZNSt3mapINSt7__cxx1112basic_stringIcSt11char_traitsIcESaIcEEEP8gzFile_sSt4lessIS5_ESaISt4pairIKS5_S7_EEEixERSB_,comdat
	.weak	_ZNSt3mapINSt7__cxx1112basic_stringIcSt11char_traitsIcESaIcEEEP8gzFile_sSt4lessIS5_ESaISt4pairIKS5_S7_EEEixERSB_ # -- Begin function _ZNSt3mapINSt7__cxx1112basic_stringIcSt11char_traitsIcESaIcEEEP8gzFile_sSt4lessIS5_ESaISt4pairIKS5_S7_EEEixERSB_
	.p2align	4, 0x90
	.type	_ZNSt3mapINSt7__cxx1112basic_stringIcSt11char_traitsIcESaIcEEEP8gzFile_sSt4lessIS5_ESaISt4pairIKS5_S7_EEEixERSB_,@function
_ZNSt3mapINSt7__cxx1112basic_stringIcSt11char_traitsIcESaIcEEEP8gzFile_sSt4lessIS5_ESaISt4pairIKS5_S7_EEEixERSB_: # @_ZNSt3mapINSt7__cxx1112basic_stringIcSt11char_traitsIcESaIcEEEP8gzFile_sSt4lessIS5_ESaISt4pairIKS5_S7_EEEixERSB_
.Lfunc_begin48:
	.cfi_startproc
# %bb.0:
	pushq	%rbp
	.cfi_def_cfa_offset 16
	.cfi_offset %rbp, -16
	movq	%rsp, %rbp
	.cfi_def_cfa_register %rbp
	subq	$96, %rsp
	leaq	-8(%rbp), %rax
	movq	%rdi, -56(%rbp)         # 8-byte Spill
	movq	%rsi, -64(%rbp)         # 8-byte Spill
	movq	%rax, -72(%rbp)         # 8-byte Spill
	callq	_ZNSt3mapINSt7__cxx1112basic_stringIcSt11char_traitsIcESaIcEEEP8gzFile_sSt4lessIS5_ESaISt4pairIKS5_S7_EEE11lower_boundERSB_
	leaq	-16(%rbp), %rsi
	leaq	-8(%rbp), %rdi
	movq	%rax, -8(%rbp)
	movq	-56(%rbp), %rax         # 8-byte Reload
	movq	%rdi, -80(%rbp)         # 8-byte Spill
	movq	%rax, %rdi
	movq	%rsi, -88(%rbp)         # 8-byte Spill
	callq	_ZNSt3mapINSt7__cxx1112basic_stringIcSt11char_traitsIcESaIcEEEP8gzFile_sSt4lessIS5_ESaISt4pairIKS5_S7_EEE3endEv
	leaq	-8(%rbp), %rdi
	leaq	-16(%rbp), %rsi
	movq	%rax, -16(%rbp)
	callq	_ZNKSt17_Rb_tree_iteratorISt4pairIKNSt7__cxx1112basic_stringIcSt11char_traitsIcESaIcEEEP8gzFile_sEEeqERKSB_
	testb	$1, %al
	jne	.LBB48_2
# %bb.1:
	movq	-56(%rbp), %rdi         # 8-byte Reload
	callq	_ZNKSt3mapINSt7__cxx1112basic_stringIcSt11char_traitsIcESaIcEEEP8gzFile_sSt4lessIS5_ESaISt4pairIKS5_S7_EEE8key_compEv
	leaq	-8(%rbp), %rdi
	callq	_ZNKSt17_Rb_tree_iteratorISt4pairIKNSt7__cxx1112basic_stringIcSt11char_traitsIcESaIcEEEP8gzFile_sEEdeEv
	leaq	-24(%rbp), %rdi
	movq	-64(%rbp), %rsi         # 8-byte Reload
	movq	%rax, %rdx
	callq	_ZNKSt4lessINSt7__cxx1112basic_stringIcSt11char_traitsIcESaIcEEEEclERKS5_S8_
	testb	$1, %al
	jne	.LBB48_3
	jmp	.LBB48_4
.LBB48_2:
.LBB48_3:
	leaq	-32(%rbp), %rdi
	leaq	-8(%rbp), %rsi
	callq	_ZNSt23_Rb_tree_const_iteratorISt4pairIKNSt7__cxx1112basic_stringIcSt11char_traitsIcESaIcEEEP8gzFile_sEEC2ERKSt17_Rb_tree_iteratorISA_E
	leaq	-40(%rbp), %rdi
	movq	-64(%rbp), %rsi         # 8-byte Reload
	callq	_ZNSt5tupleIJRKNSt7__cxx1112basic_stringIcSt11char_traitsIcESaIcEEEEEC2IvLb1EEES7_
	movabsq	$_ZStL19piecewise_construct, %rdx
	leaq	-40(%rbp), %rcx
	leaq	-48(%rbp), %r8
	movq	-32(%rbp), %rsi
	movq	-56(%rbp), %rdi         # 8-byte Reload
	callq	_ZNSt8_Rb_treeINSt7__cxx1112basic_stringIcSt11char_traitsIcESaIcEEESt4pairIKS5_P8gzFile_sESt10_Select1stISA_ESt4lessIS5_ESaISA_EE22_M_emplace_hint_uniqueIJRKSt21piecewise_construct_tSt5tupleIJRS7_EESL_IJEEEEESt17_Rb_tree_iteratorISA_ESt23_Rb_tree_const_iteratorISA_EDpOT_
	movq	-80(%rbp), %rcx         # 8-byte Reload
	movq	%rax, (%rcx)
.LBB48_4:
	leaq	-8(%rbp), %rdi
	callq	_ZNKSt17_Rb_tree_iteratorISt4pairIKNSt7__cxx1112basic_stringIcSt11char_traitsIcESaIcEEEP8gzFile_sEEdeEv
	addq	$32, %rax
	addq	$96, %rsp
	popq	%rbp
	retq
.Lfunc_end48:
	.size	_ZNSt3mapINSt7__cxx1112basic_stringIcSt11char_traitsIcESaIcEEEP8gzFile_sSt4lessIS5_ESaISt4pairIKS5_S7_EEEixERSB_, .Lfunc_end48-_ZNSt3mapINSt7__cxx1112basic_stringIcSt11char_traitsIcESaIcEEEP8gzFile_sSt4lessIS5_ESaISt4pairIKS5_S7_EEEixERSB_
	.cfi_endproc
                                        # -- End function
	.section	.text._ZNSt3mapINSt7__cxx1112basic_stringIcSt11char_traitsIcESaIcEEEP8gzFile_sSt4lessIS5_ESaISt4pairIKS5_S7_EEE11lower_boundERSB_,"axG",@progbits,_ZNSt3mapINSt7__cxx1112basic_stringIcSt11char_traitsIcESaIcEEEP8gzFile_sSt4lessIS5_ESaISt4pairIKS5_S7_EEE11lower_boundERSB_,comdat
	.weak	_ZNSt3mapINSt7__cxx1112basic_stringIcSt11char_traitsIcESaIcEEEP8gzFile_sSt4lessIS5_ESaISt4pairIKS5_S7_EEE11lower_boundERSB_ # -- Begin function _ZNSt3mapINSt7__cxx1112basic_stringIcSt11char_traitsIcESaIcEEEP8gzFile_sSt4lessIS5_ESaISt4pairIKS5_S7_EEE11lower_boundERSB_
	.p2align	4, 0x90
	.type	_ZNSt3mapINSt7__cxx1112basic_stringIcSt11char_traitsIcESaIcEEEP8gzFile_sSt4lessIS5_ESaISt4pairIKS5_S7_EEE11lower_boundERSB_,@function
_ZNSt3mapINSt7__cxx1112basic_stringIcSt11char_traitsIcESaIcEEEP8gzFile_sSt4lessIS5_ESaISt4pairIKS5_S7_EEE11lower_boundERSB_: # @_ZNSt3mapINSt7__cxx1112basic_stringIcSt11char_traitsIcESaIcEEEP8gzFile_sSt4lessIS5_ESaISt4pairIKS5_S7_EEE11lower_boundERSB_
.Lfunc_begin49:
	.cfi_startproc
# %bb.0:
	pushq	%rbp
	.cfi_def_cfa_offset 16
	.cfi_offset %rbp, -16
	movq	%rsp, %rbp
	.cfi_def_cfa_register %rbp
	popq	%rbp
	jmp	_ZNSt8_Rb_treeINSt7__cxx1112basic_stringIcSt11char_traitsIcESaIcEEESt4pairIKS5_P8gzFile_sESt10_Select1stISA_ESt4lessIS5_ESaISA_EE11lower_boundERS7_ # TAILCALL
.Lfunc_end49:
	.size	_ZNSt3mapINSt7__cxx1112basic_stringIcSt11char_traitsIcESaIcEEEP8gzFile_sSt4lessIS5_ESaISt4pairIKS5_S7_EEE11lower_boundERSB_, .Lfunc_end49-_ZNSt3mapINSt7__cxx1112basic_stringIcSt11char_traitsIcESaIcEEEP8gzFile_sSt4lessIS5_ESaISt4pairIKS5_S7_EEE11lower_boundERSB_
	.cfi_endproc
                                        # -- End function
	.section	.text._ZNKSt17_Rb_tree_iteratorISt4pairIKNSt7__cxx1112basic_stringIcSt11char_traitsIcESaIcEEEP8gzFile_sEEeqERKSB_,"axG",@progbits,_ZNKSt17_Rb_tree_iteratorISt4pairIKNSt7__cxx1112basic_stringIcSt11char_traitsIcESaIcEEEP8gzFile_sEEeqERKSB_,comdat
	.weak	_ZNKSt17_Rb_tree_iteratorISt4pairIKNSt7__cxx1112basic_stringIcSt11char_traitsIcESaIcEEEP8gzFile_sEEeqERKSB_ # -- Begin function _ZNKSt17_Rb_tree_iteratorISt4pairIKNSt7__cxx1112basic_stringIcSt11char_traitsIcESaIcEEEP8gzFile_sEEeqERKSB_
	.p2align	4, 0x90
	.type	_ZNKSt17_Rb_tree_iteratorISt4pairIKNSt7__cxx1112basic_stringIcSt11char_traitsIcESaIcEEEP8gzFile_sEEeqERKSB_,@function
_ZNKSt17_Rb_tree_iteratorISt4pairIKNSt7__cxx1112basic_stringIcSt11char_traitsIcESaIcEEEP8gzFile_sEEeqERKSB_: # @_ZNKSt17_Rb_tree_iteratorISt4pairIKNSt7__cxx1112basic_stringIcSt11char_traitsIcESaIcEEEP8gzFile_sEEeqERKSB_
.Lfunc_begin50:
	.cfi_startproc
# %bb.0:
	pushq	%rbp
	.cfi_def_cfa_offset 16
	.cfi_offset %rbp, -16
	movq	%rsp, %rbp
	.cfi_def_cfa_register %rbp
	movq	(%rdi), %rdi
	cmpq	(%rsi), %rdi
	sete	%al
	andb	$1, %al
	movzbl	%al, %eax
	popq	%rbp
	retq
.Lfunc_end50:
	.size	_ZNKSt17_Rb_tree_iteratorISt4pairIKNSt7__cxx1112basic_stringIcSt11char_traitsIcESaIcEEEP8gzFile_sEEeqERKSB_, .Lfunc_end50-_ZNKSt17_Rb_tree_iteratorISt4pairIKNSt7__cxx1112basic_stringIcSt11char_traitsIcESaIcEEEP8gzFile_sEEeqERKSB_
	.cfi_endproc
                                        # -- End function
	.section	.text._ZNKSt3mapINSt7__cxx1112basic_stringIcSt11char_traitsIcESaIcEEEP8gzFile_sSt4lessIS5_ESaISt4pairIKS5_S7_EEE8key_compEv,"axG",@progbits,_ZNKSt3mapINSt7__cxx1112basic_stringIcSt11char_traitsIcESaIcEEEP8gzFile_sSt4lessIS5_ESaISt4pairIKS5_S7_EEE8key_compEv,comdat
	.weak	_ZNKSt3mapINSt7__cxx1112basic_stringIcSt11char_traitsIcESaIcEEEP8gzFile_sSt4lessIS5_ESaISt4pairIKS5_S7_EEE8key_compEv # -- Begin function _ZNKSt3mapINSt7__cxx1112basic_stringIcSt11char_traitsIcESaIcEEEP8gzFile_sSt4lessIS5_ESaISt4pairIKS5_S7_EEE8key_compEv
	.p2align	4, 0x90
	.type	_ZNKSt3mapINSt7__cxx1112basic_stringIcSt11char_traitsIcESaIcEEEP8gzFile_sSt4lessIS5_ESaISt4pairIKS5_S7_EEE8key_compEv,@function
_ZNKSt3mapINSt7__cxx1112basic_stringIcSt11char_traitsIcESaIcEEEP8gzFile_sSt4lessIS5_ESaISt4pairIKS5_S7_EEE8key_compEv: # @_ZNKSt3mapINSt7__cxx1112basic_stringIcSt11char_traitsIcESaIcEEEP8gzFile_sSt4lessIS5_ESaISt4pairIKS5_S7_EEE8key_compEv
.Lfunc_begin51:
	.cfi_startproc
# %bb.0:
	pushq	%rbp
	.cfi_def_cfa_offset 16
	.cfi_offset %rbp, -16
	movq	%rsp, %rbp
	.cfi_def_cfa_register %rbp
	popq	%rbp
	jmp	_ZNKSt8_Rb_treeINSt7__cxx1112basic_stringIcSt11char_traitsIcESaIcEEESt4pairIKS5_P8gzFile_sESt10_Select1stISA_ESt4lessIS5_ESaISA_EE8key_compEv # TAILCALL
.Lfunc_end51:
	.size	_ZNKSt3mapINSt7__cxx1112basic_stringIcSt11char_traitsIcESaIcEEEP8gzFile_sSt4lessIS5_ESaISt4pairIKS5_S7_EEE8key_compEv, .Lfunc_end51-_ZNKSt3mapINSt7__cxx1112basic_stringIcSt11char_traitsIcESaIcEEEP8gzFile_sSt4lessIS5_ESaISt4pairIKS5_S7_EEE8key_compEv
	.cfi_endproc
                                        # -- End function
	.section	.text._ZNKSt17_Rb_tree_iteratorISt4pairIKNSt7__cxx1112basic_stringIcSt11char_traitsIcESaIcEEEP8gzFile_sEEdeEv,"axG",@progbits,_ZNKSt17_Rb_tree_iteratorISt4pairIKNSt7__cxx1112basic_stringIcSt11char_traitsIcESaIcEEEP8gzFile_sEEdeEv,comdat
	.weak	_ZNKSt17_Rb_tree_iteratorISt4pairIKNSt7__cxx1112basic_stringIcSt11char_traitsIcESaIcEEEP8gzFile_sEEdeEv # -- Begin function _ZNKSt17_Rb_tree_iteratorISt4pairIKNSt7__cxx1112basic_stringIcSt11char_traitsIcESaIcEEEP8gzFile_sEEdeEv
	.p2align	4, 0x90
	.type	_ZNKSt17_Rb_tree_iteratorISt4pairIKNSt7__cxx1112basic_stringIcSt11char_traitsIcESaIcEEEP8gzFile_sEEdeEv,@function
_ZNKSt17_Rb_tree_iteratorISt4pairIKNSt7__cxx1112basic_stringIcSt11char_traitsIcESaIcEEEP8gzFile_sEEdeEv: # @_ZNKSt17_Rb_tree_iteratorISt4pairIKNSt7__cxx1112basic_stringIcSt11char_traitsIcESaIcEEEP8gzFile_sEEdeEv
.Lfunc_begin52:
	.cfi_startproc
# %bb.0:
	pushq	%rbp
	.cfi_def_cfa_offset 16
	.cfi_offset %rbp, -16
	movq	%rsp, %rbp
	.cfi_def_cfa_register %rbp
	movq	(%rdi), %rdi
	callq	_ZNSt13_Rb_tree_nodeISt4pairIKNSt7__cxx1112basic_stringIcSt11char_traitsIcESaIcEEEP8gzFile_sEE9_M_valptrEv
	popq	%rbp
	retq
.Lfunc_end52:
	.size	_ZNKSt17_Rb_tree_iteratorISt4pairIKNSt7__cxx1112basic_stringIcSt11char_traitsIcESaIcEEEP8gzFile_sEEdeEv, .Lfunc_end52-_ZNKSt17_Rb_tree_iteratorISt4pairIKNSt7__cxx1112basic_stringIcSt11char_traitsIcESaIcEEEP8gzFile_sEEdeEv
	.cfi_endproc
                                        # -- End function
	.section	.text._ZNKSt4lessINSt7__cxx1112basic_stringIcSt11char_traitsIcESaIcEEEEclERKS5_S8_,"axG",@progbits,_ZNKSt4lessINSt7__cxx1112basic_stringIcSt11char_traitsIcESaIcEEEEclERKS5_S8_,comdat
	.weak	_ZNKSt4lessINSt7__cxx1112basic_stringIcSt11char_traitsIcESaIcEEEEclERKS5_S8_ # -- Begin function _ZNKSt4lessINSt7__cxx1112basic_stringIcSt11char_traitsIcESaIcEEEEclERKS5_S8_
	.p2align	4, 0x90
	.type	_ZNKSt4lessINSt7__cxx1112basic_stringIcSt11char_traitsIcESaIcEEEEclERKS5_S8_,@function
_ZNKSt4lessINSt7__cxx1112basic_stringIcSt11char_traitsIcESaIcEEEEclERKS5_S8_: # @_ZNKSt4lessINSt7__cxx1112basic_stringIcSt11char_traitsIcESaIcEEEEclERKS5_S8_
.Lfunc_begin53:
	.cfi_startproc
# %bb.0:
	pushq	%rbp
	.cfi_def_cfa_offset 16
	.cfi_offset %rbp, -16
	movq	%rsp, %rbp
	.cfi_def_cfa_register %rbp
	movq	%rdi, -8(%rbp)          # 8-byte Spill
	movq	%rsi, %rdi
	movq	%rdx, %rsi
	popq	%rbp
	jmp	_ZStltIcSt11char_traitsIcESaIcEEbRKNSt7__cxx1112basic_stringIT_T0_T1_EESA_ # TAILCALL
.Lfunc_end53:
	.size	_ZNKSt4lessINSt7__cxx1112basic_stringIcSt11char_traitsIcESaIcEEEEclERKS5_S8_, .Lfunc_end53-_ZNKSt4lessINSt7__cxx1112basic_stringIcSt11char_traitsIcESaIcEEEEclERKS5_S8_
	.cfi_endproc
                                        # -- End function
	.section	.text._ZNSt23_Rb_tree_const_iteratorISt4pairIKNSt7__cxx1112basic_stringIcSt11char_traitsIcESaIcEEEP8gzFile_sEEC2ERKSt17_Rb_tree_iteratorISA_E,"axG",@progbits,_ZNSt23_Rb_tree_const_iteratorISt4pairIKNSt7__cxx1112basic_stringIcSt11char_traitsIcESaIcEEEP8gzFile_sEEC2ERKSt17_Rb_tree_iteratorISA_E,comdat
	.weak	_ZNSt23_Rb_tree_const_iteratorISt4pairIKNSt7__cxx1112basic_stringIcSt11char_traitsIcESaIcEEEP8gzFile_sEEC2ERKSt17_Rb_tree_iteratorISA_E # -- Begin function _ZNSt23_Rb_tree_const_iteratorISt4pairIKNSt7__cxx1112basic_stringIcSt11char_traitsIcESaIcEEEP8gzFile_sEEC2ERKSt17_Rb_tree_iteratorISA_E
	.p2align	4, 0x90
	.type	_ZNSt23_Rb_tree_const_iteratorISt4pairIKNSt7__cxx1112basic_stringIcSt11char_traitsIcESaIcEEEP8gzFile_sEEC2ERKSt17_Rb_tree_iteratorISA_E,@function
_ZNSt23_Rb_tree_const_iteratorISt4pairIKNSt7__cxx1112basic_stringIcSt11char_traitsIcESaIcEEEP8gzFile_sEEC2ERKSt17_Rb_tree_iteratorISA_E: # @_ZNSt23_Rb_tree_const_iteratorISt4pairIKNSt7__cxx1112basic_stringIcSt11char_traitsIcESaIcEEEP8gzFile_sEEC2ERKSt17_Rb_tree_iteratorISA_E
.Lfunc_begin54:
	.cfi_startproc
# %bb.0:
	pushq	%rbp
	.cfi_def_cfa_offset 16
	.cfi_offset %rbp, -16
	movq	%rsp, %rbp
	.cfi_def_cfa_register %rbp
	movq	(%rsi), %rsi
	movq	%rsi, (%rdi)
	popq	%rbp
	retq
.Lfunc_end54:
	.size	_ZNSt23_Rb_tree_const_iteratorISt4pairIKNSt7__cxx1112basic_stringIcSt11char_traitsIcESaIcEEEP8gzFile_sEEC2ERKSt17_Rb_tree_iteratorISA_E, .Lfunc_end54-_ZNSt23_Rb_tree_const_iteratorISt4pairIKNSt7__cxx1112basic_stringIcSt11char_traitsIcESaIcEEEP8gzFile_sEEC2ERKSt17_Rb_tree_iteratorISA_E
	.cfi_endproc
                                        # -- End function
	.section	.text._ZNSt5tupleIJRKNSt7__cxx1112basic_stringIcSt11char_traitsIcESaIcEEEEEC2IvLb1EEES7_,"axG",@progbits,_ZNSt5tupleIJRKNSt7__cxx1112basic_stringIcSt11char_traitsIcESaIcEEEEEC2IvLb1EEES7_,comdat
	.weak	_ZNSt5tupleIJRKNSt7__cxx1112basic_stringIcSt11char_traitsIcESaIcEEEEEC2IvLb1EEES7_ # -- Begin function _ZNSt5tupleIJRKNSt7__cxx1112basic_stringIcSt11char_traitsIcESaIcEEEEEC2IvLb1EEES7_
	.p2align	4, 0x90
	.type	_ZNSt5tupleIJRKNSt7__cxx1112basic_stringIcSt11char_traitsIcESaIcEEEEEC2IvLb1EEES7_,@function
_ZNSt5tupleIJRKNSt7__cxx1112basic_stringIcSt11char_traitsIcESaIcEEEEEC2IvLb1EEES7_: # @_ZNSt5tupleIJRKNSt7__cxx1112basic_stringIcSt11char_traitsIcESaIcEEEEEC2IvLb1EEES7_
.Lfunc_begin55:
	.cfi_startproc
# %bb.0:
	pushq	%rbp
	.cfi_def_cfa_offset 16
	.cfi_offset %rbp, -16
	movq	%rsp, %rbp
	.cfi_def_cfa_register %rbp
	popq	%rbp
	jmp	_ZNSt11_Tuple_implILm0EJRKNSt7__cxx1112basic_stringIcSt11char_traitsIcESaIcEEEEEC2ES7_ # TAILCALL
.Lfunc_end55:
	.size	_ZNSt5tupleIJRKNSt7__cxx1112basic_stringIcSt11char_traitsIcESaIcEEEEEC2IvLb1EEES7_, .Lfunc_end55-_ZNSt5tupleIJRKNSt7__cxx1112basic_stringIcSt11char_traitsIcESaIcEEEEEC2IvLb1EEES7_
	.cfi_endproc
                                        # -- End function
	.section	.text._ZNSt8_Rb_treeINSt7__cxx1112basic_stringIcSt11char_traitsIcESaIcEEESt4pairIKS5_P8gzFile_sESt10_Select1stISA_ESt4lessIS5_ESaISA_EE22_M_emplace_hint_uniqueIJRKSt21piecewise_construct_tSt5tupleIJRS7_EESL_IJEEEEESt17_Rb_tree_iteratorISA_ESt23_Rb_tree_const_iteratorISA_EDpOT_,"axG",@progbits,_ZNSt8_Rb_treeINSt7__cxx1112basic_stringIcSt11char_traitsIcESaIcEEESt4pairIKS5_P8gzFile_sESt10_Select1stISA_ESt4lessIS5_ESaISA_EE22_M_emplace_hint_uniqueIJRKSt21piecewise_construct_tSt5tupleIJRS7_EESL_IJEEEEESt17_Rb_tree_iteratorISA_ESt23_Rb_tree_const_iteratorISA_EDpOT_,comdat
	.weak	_ZNSt8_Rb_treeINSt7__cxx1112basic_stringIcSt11char_traitsIcESaIcEEESt4pairIKS5_P8gzFile_sESt10_Select1stISA_ESt4lessIS5_ESaISA_EE22_M_emplace_hint_uniqueIJRKSt21piecewise_construct_tSt5tupleIJRS7_EESL_IJEEEEESt17_Rb_tree_iteratorISA_ESt23_Rb_tree_const_iteratorISA_EDpOT_ # -- Begin function _ZNSt8_Rb_treeINSt7__cxx1112basic_stringIcSt11char_traitsIcESaIcEEESt4pairIKS5_P8gzFile_sESt10_Select1stISA_ESt4lessIS5_ESaISA_EE22_M_emplace_hint_uniqueIJRKSt21piecewise_construct_tSt5tupleIJRS7_EESL_IJEEEEESt17_Rb_tree_iteratorISA_ESt23_Rb_tree_const_iteratorISA_EDpOT_
	.p2align	4, 0x90
	.type	_ZNSt8_Rb_treeINSt7__cxx1112basic_stringIcSt11char_traitsIcESaIcEEESt4pairIKS5_P8gzFile_sESt10_Select1stISA_ESt4lessIS5_ESaISA_EE22_M_emplace_hint_uniqueIJRKSt21piecewise_construct_tSt5tupleIJRS7_EESL_IJEEEEESt17_Rb_tree_iteratorISA_ESt23_Rb_tree_const_iteratorISA_EDpOT_,@function
_ZNSt8_Rb_treeINSt7__cxx1112basic_stringIcSt11char_traitsIcESaIcEEESt4pairIKS5_P8gzFile_sESt10_Select1stISA_ESt4lessIS5_ESaISA_EE22_M_emplace_hint_uniqueIJRKSt21piecewise_construct_tSt5tupleIJRS7_EESL_IJEEEEESt17_Rb_tree_iteratorISA_ESt23_Rb_tree_const_iteratorISA_EDpOT_: # @_ZNSt8_Rb_treeINSt7__cxx1112basic_stringIcSt11char_traitsIcESaIcEEESt4pairIKS5_P8gzFile_sESt10_Select1stISA_ESt4lessIS5_ESaISA_EE22_M_emplace_hint_uniqueIJRKSt21piecewise_construct_tSt5tupleIJRS7_EESL_IJEEEEESt17_Rb_tree_iteratorISA_ESt23_Rb_tree_const_iteratorISA_EDpOT_
.Lfunc_begin56:
	.cfi_startproc
