	.text
	.file	"llvm-link"
	.section	.rodata.cst4,"aM",@progbits,4
	.p2align	2               # -- Begin function step1
.LCPI0_0:
	.long	1060439283              # float 0.707106769
	.section	.rodata.cst8,"aM",@progbits,8
	.p2align	3
.LCPI0_1:
	.quad	4604544271108800512     # double 0.70710676908493042
	.text
	.globl	step1
	.p2align	4, 0x90
	.type	step1,@function
step1:                                  # @step1
.Lfunc_begin0:
	.file	1 "fft.c"
	.loc	1 16 0                  # fft.c:16:0
	.cfi_startproc
# %bb.0:
	pushq	%rbp
	.cfi_def_cfa_offset 16
	.cfi_offset %rbp, -16
	movq	%rsp, %rbp
	.cfi_def_cfa_register %rbp
	pushq	%r15
	pushq	%r14
	pushq	%r13
	pushq	%r12
	pushq	%rbx
	subq	$8552, %rsp             # imm = 0x2168
	.cfi_offset %rbx, -56
	.cfi_offset %r12, -48
	.cfi_offset %r13, -40
	.cfi_offset %r14, -32
	.cfi_offset %r15, -24
	movq	56(%rbp), %rax
	movq	48(%rbp), %r10
	movq	40(%rbp), %r11
	movq	32(%rbp), %rbx
	movq	24(%rbp), %r14
	movq	16(%rbp), %r15
	movl	$24601, %r12d           # imm = 0x6019
	movl	%r12d, %r13d
	movl	$64, %r12d
                                        # kill: def %r12 killed %r12d
	movq	%rsi, -48(%rbp)         # 8-byte Spill
	movl	$1, %esi
                                        # kill: def %rsi killed %esi
	movq	%rax, -56(%rbp)         # 8-byte Spill
	movabsq	$.L.str.33, %rax
	movq	%rsi, -64(%rbp)         # 8-byte Spill
	xorl	%esi, %esi
                                        # kill: def %rsi killed %esi
	movq	%rax, -72(%rbp)         # 8-byte Spill
	movabsq	$.L.str.5, %rax
.Ltmp0:
	.loc	1 8 17 prologue_end     # fft.c:8:17
	movq	%rdi, -80(%rbp)         # 8-byte Spill
	movq	%r13, %rdi
	movq	%rsi, -88(%rbp)         # 8-byte Spill
	movq	%r12, %rsi
	movq	-80(%rbp), %r12         # 8-byte Reload
	movq	%rdx, -96(%rbp)         # 8-byte Spill
	movq	%r12, %rdx
	movq	-64(%rbp), %r13         # 8-byte Reload
	movq	%rcx, -104(%rbp)        # 8-byte Spill
	movq	%r13, %rcx
	movq	-72(%rbp), %r12         # 8-byte Reload
	movq	%r8, -112(%rbp)         # 8-byte Spill
	movq	%r12, %r8
	movq	-88(%rbp), %r12         # 8-byte Reload
	movq	%r9, -120(%rbp)         # 8-byte Spill
	movq	%r12, %r9
	movq	%rax, (%rsp)
	movq	%r15, -128(%rbp)        # 8-byte Spill
	movq	%r11, -136(%rbp)        # 8-byte Spill
	movq	%rbx, -144(%rbp)        # 8-byte Spill
	movq	%r14, -152(%rbp)        # 8-byte Spill
	movq	%r10, -160(%rbp)        # 8-byte Spill
	callq	trace_logger_log_ptr
	movl	$24601, %esi            # imm = 0x6019
	movl	%esi, %edi
	movl	$64, %esi
                                        # kill: def %rsi killed %esi
	movl	$1, %r8d
	movl	%r8d, %ecx
	movabsq	$.L.str.38, %r8
	xorl	%r9d, %r9d
                                        # kill: def %r9 killed %r9d
	movabsq	$.L.str.5, %rax
	movq	-48(%rbp), %rdx         # 8-byte Reload
	movq	%rax, (%rsp)
	callq	trace_logger_log_ptr
	movl	$24601, %esi            # imm = 0x6019
	movl	%esi, %edi
	movl	$64, %esi
                                        # kill: def %rsi killed %esi
	movl	$1, %r8d
	movl	%r8d, %ecx
	movabsq	$.L.str.268, %r8
	xorl	%r9d, %r9d
                                        # kill: def %r9 killed %r9d
	movabsq	$.L.str.5, %rax
	movq	-96(%rbp), %rdx         # 8-byte Reload
	movq	%rax, (%rsp)
	callq	trace_logger_log_ptr
	movl	$24601, %esi            # imm = 0x6019
	movl	%esi, %edi
	movl	$64, %esi
                                        # kill: def %rsi killed %esi
	movl	$1, %r8d
	movl	%r8d, %ecx
	movabsq	$.L.str.273, %r8
	xorl	%r9d, %r9d
                                        # kill: def %r9 killed %r9d
	movabsq	$.L.str.5, %rax
	movq	-104(%rbp), %rdx        # 8-byte Reload
	movq	%rax, (%rsp)
	callq	trace_logger_log_ptr
	movl	$24601, %esi            # imm = 0x6019
	movl	%esi, %edi
	movl	$64, %esi
                                        # kill: def %rsi killed %esi
	movl	$1, %r8d
	movl	%r8d, %ecx
	movabsq	$.L.str.6, %r8
	xorl	%r9d, %r9d
                                        # kill: def %r9 killed %r9d
	movabsq	$.L.str.5, %rax
	movq	-112(%rbp), %rdx        # 8-byte Reload
	movq	%rax, (%rsp)
	callq	trace_logger_log_ptr
	movl	$24601, %esi            # imm = 0x6019
	movl	%esi, %edi
	movl	$64, %esi
                                        # kill: def %rsi killed %esi
	movl	$1, %r8d
	movl	%r8d, %ecx
	movabsq	$.L.str.8, %r8
	xorl	%r9d, %r9d
                                        # kill: def %r9 killed %r9d
	movabsq	$.L.str.5, %rax
	movq	-120(%rbp), %rdx        # 8-byte Reload
	movq	%rax, (%rsp)
	callq	trace_logger_log_ptr
	movl	$24601, %esi            # imm = 0x6019
	movl	%esi, %edi
	movl	$64, %esi
                                        # kill: def %rsi killed %esi
	movl	$1, %r8d
	movl	%r8d, %ecx
	movabsq	$.L.str.281, %r8
	xorl	%r9d, %r9d
                                        # kill: def %r9 killed %r9d
	movabsq	$.L.str.5, %rax
	movq	-128(%rbp), %rdx        # 8-byte Reload
	movq	%rax, (%rsp)
	callq	trace_logger_log_ptr
	movl	$24601, %esi            # imm = 0x6019
	movl	%esi, %edi
	movl	$64, %esi
                                        # kill: def %rsi killed %esi
	movl	$1, %r8d
	movl	%r8d, %ecx
	movabsq	$.L.str.282, %r8
	xorl	%r9d, %r9d
                                        # kill: def %r9 killed %r9d
	movabsq	$.L.str.5, %rax
	movq	-152(%rbp), %rdx        # 8-byte Reload
	movq	%rax, (%rsp)
	callq	trace_logger_log_ptr
	movl	$24601, %esi            # imm = 0x6019
	movl	%esi, %edi
	movl	$64, %esi
                                        # kill: def %rsi killed %esi
	movl	$1, %r8d
	movl	%r8d, %ecx
	movabsq	$.L.str.283, %r8
	xorl	%r9d, %r9d
                                        # kill: def %r9 killed %r9d
	movabsq	$.L.str.5, %rax
	movq	-144(%rbp), %rdx        # 8-byte Reload
	movq	%rax, (%rsp)
	callq	trace_logger_log_ptr
	movl	$24601, %esi            # imm = 0x6019
	movl	%esi, %edi
	movl	$64, %esi
                                        # kill: def %rsi killed %esi
	movl	$1, %r8d
	movl	%r8d, %ecx
	movabsq	$.L.str.284, %r8
	xorl	%r9d, %r9d
                                        # kill: def %r9 killed %r9d
	movabsq	$.L.str.5, %rax
	movq	-136(%rbp), %rdx        # 8-byte Reload
	movq	%rax, (%rsp)
	callq	trace_logger_log_ptr
	movl	$24601, %esi            # imm = 0x6019
	movl	%esi, %edi
	movl	$64, %esi
                                        # kill: def %rsi killed %esi
	movl	$1, %r8d
	movl	%r8d, %ecx
	movabsq	$.L.str.241, %r8
	xorl	%r9d, %r9d
                                        # kill: def %r9 killed %r9d
	movabsq	$.L.str.5, %rax
	movq	-160(%rbp), %rdx        # 8-byte Reload
	movq	%rax, (%rsp)
	callq	trace_logger_log_ptr
	movl	$24601, %esi            # imm = 0x6019
	movl	%esi, %edi
	movl	$64, %esi
                                        # kill: def %rsi killed %esi
	movl	$1, %r8d
	movl	%r8d, %ecx
	movabsq	$.L.str.237, %r8
	xorl	%r9d, %r9d
                                        # kill: def %r9 killed %r9d
	movabsq	$.L.str.5, %rax
	movq	-56(%rbp), %rdx         # 8-byte Reload
	movq	%rax, (%rsp)
	callq	trace_logger_log_ptr
	movq	$-1, %rdi
	movabsq	$.L.str.1, %rsi
	movabsq	$.L.str.2, %rdx
	movabsq	$.L.str.3, %rcx
	movl	$32, %r8d
                                        # kill: def %r8 killed %r8d
	xorl	%r9d, %r9d
	movl	$1, %r10d
	#DEBUG_VALUE: step1:work_x <- [DW_OP_constu 80, DW_OP_minus] [%rbp+0]
	#DEBUG_VALUE: step1:work_y <- [DW_OP_constu 48, DW_OP_minus] [%rbp+0]
	#DEBUG_VALUE: step1:DATA_x <- [DW_OP_constu 96, DW_OP_minus] [%rbp+0]
	#DEBUG_VALUE: step1:DATA_y <- [DW_OP_constu 104, DW_OP_minus] [%rbp+0]
	#DEBUG_VALUE: step1:data_x <- [DW_OP_constu 112, DW_OP_minus] [%rbp+0]
	#DEBUG_VALUE: step1:data_y <- [DW_OP_constu 120, DW_OP_minus] [%rbp+0]
	#DEBUG_VALUE: step1:smem <- [DW_OP_constu 128, DW_OP_minus] [%rbp+0]
	#DEBUG_VALUE: step1:reversed <- [DW_OP_constu 152, DW_OP_minus] [%rbp+0]
	#DEBUG_VALUE: step1:sin_64 <- [DW_OP_constu 144, DW_OP_minus] [%rbp+0]
	#DEBUG_VALUE: step1:cos_64 <- [DW_OP_constu 136, DW_OP_minus] [%rbp+0]
	#DEBUG_VALUE: step1:sin_512 <- [DW_OP_constu 160, DW_OP_minus] [%rbp+0]
	#DEBUG_VALUE: step1:cos_512 <- [DW_OP_constu 56, DW_OP_minus] [%rbp+0]
.Ltmp1:
	#DEBUG_VALUE: step1:stride <- 64
	#DEBUG_VALUE: step1:tid <- 0
	.loc	1 0 17 is_stmt 0        # fft.c:0:17
	movl	$1, (%rsp)
	movl	%r10d, -164(%rbp)       # 4-byte Spill
	callq	trace_logger_log0
	movl	$2, %r9d
	movl	%r9d, %edi
	movl	$64, %r9d
	movl	%r9d, %esi
	movl	$4, %r9d
	movl	%r9d, %edx
	xorl	%r9d, %r9d
	movl	%r9d, %eax
	movabsq	$.L.str.4, %r8
	movabsq	$.L.str.5, %rcx
	movq	%rcx, -176(%rbp)        # 8-byte Spill
	movq	%rax, %rcx
	movq	%rax, %r9
	movq	-176(%rbp), %rax        # 8-byte Reload
	movq	%rax, (%rsp)
	callq	trace_logger_log_int
	movl	$1, %r10d
	movl	%r10d, %eax
	movl	$64, %r10d
	movl	%r10d, %esi
	movabsq	$.L.str.6, %r8
	xorl	%r10d, %r10d
	movl	%r10d, %r9d
	movabsq	$.L.str.5, %rcx
	movq	%rax, %rdi
	movq	-112(%rbp), %rdx        # 8-byte Reload
	movq	%rcx, -184(%rbp)        # 8-byte Spill
	movq	%rax, %rcx
	movq	-184(%rbp), %rax        # 8-byte Reload
	movq	%rax, (%rsp)
	callq	trace_logger_log_ptr
	movl	$19134, %r10d           # imm = 0x4ABE
	movl	%r10d, %edi
	movl	$64, %r10d
	movl	%r10d, %esi
	movl	$1, %r10d
	movl	%r10d, %ecx
	movabsq	$.L.str.3, %r8
	xorl	%r10d, %r10d
	movl	%r10d, %r9d
	movabsq	$.L.str.5, %rax
	movq	-112(%rbp), %rdx        # 8-byte Reload
	addq	$16, %rdx
	movq	%rdx, -192(%rbp)        # 8-byte Spill
	movq	%rax, (%rsp)
	callq	trace_logger_log_ptr
	movq	$-1, %rdi
	movabsq	$.L.str.1, %rsi
	movabsq	$.L.str.2, %rdx
	movabsq	$.L.str.7, %rcx
	movl	$32, %r10d
	movl	%r10d, %r8d
	xorl	%r9d, %r9d
	movl	$1, %r10d
	movl	$1, (%rsp)
	movl	%r10d, -196(%rbp)       # 4-byte Spill
	callq	trace_logger_log0
	movl	$2, %r9d
	movl	%r9d, %edi
	movl	$64, %r9d
	movl	%r9d, %esi
	movl	$4, %r9d
	movl	%r9d, %edx
	xorl	%r9d, %r9d
	movl	%r9d, %eax
	movabsq	$.L.str.4, %r8
	movabsq	$.L.str.5, %rcx
	movq	%rcx, -208(%rbp)        # 8-byte Spill
	movq	%rax, %rcx
	movq	%rax, %r9
	movq	-208(%rbp), %rax        # 8-byte Reload
	movq	%rax, (%rsp)
	callq	trace_logger_log_int
	movl	$1, %r10d
	movl	%r10d, %eax
	movl	$64, %r10d
	movl	%r10d, %esi
	movabsq	$.L.str.8, %r8
	xorl	%r10d, %r10d
	movl	%r10d, %r9d
	movabsq	$.L.str.5, %rcx
	movq	%rax, %rdi
	movq	-120(%rbp), %rdx        # 8-byte Reload
	movq	%rcx, -216(%rbp)        # 8-byte Spill
	movq	%rax, %rcx
	movq	-216(%rbp), %rax        # 8-byte Reload
	movq	%rax, (%rsp)
	callq	trace_logger_log_ptr
	movl	$19134, %r10d           # imm = 0x4ABE
	movl	%r10d, %edi
	movl	$64, %r10d
	movl	%r10d, %esi
	movl	$1, %r10d
	movl	%r10d, %ecx
	movabsq	$.L.str.7, %r8
	xorl	%r10d, %r10d
	movl	%r10d, %r9d
	movabsq	$.L.str.5, %rax
	movq	-120(%rbp), %rdx        # 8-byte Reload
	addq	$16, %rdx
	movq	%rdx, -224(%rbp)        # 8-byte Spill
	movq	%rax, (%rsp)
	callq	trace_logger_log_ptr
	movq	$-1, %rdi
	movabsq	$.L.str.1, %rsi
	movabsq	$.L.str.2, %rdx
	movabsq	$.L.str.9, %rcx
	movl	$32, %r10d
	movl	%r10d, %r8d
	xorl	%r9d, %r9d
	movl	$1, %r10d
	movl	$1, (%rsp)
	movl	%r10d, -228(%rbp)       # 4-byte Spill
	callq	trace_logger_log0
	movl	$2, %r9d
	movl	%r9d, %edi
	movl	$64, %r9d
	movl	%r9d, %esi
	movl	$1, %r9d
	movl	%r9d, %edx
	xorl	%r9d, %r9d
	movl	%r9d, %eax
	movabsq	$.L.str.4, %r8
	movabsq	$.L.str.5, %rcx
	movq	%rcx, -240(%rbp)        # 8-byte Spill
	movq	%rax, %rcx
	movq	%rax, %r9
	movq	-240(%rbp), %rax        # 8-byte Reload
	movq	%rax, (%rsp)
	callq	trace_logger_log_int
	movl	$1, %r10d
	movl	%r10d, %eax
	movl	$64, %r10d
	movl	%r10d, %esi
	movabsq	$.L.str.6, %r8
	xorl	%r10d, %r10d
	movl	%r10d, %r9d
	movabsq	$.L.str.5, %rcx
	movq	%rax, %rdi
	movq	-112(%rbp), %rdx        # 8-byte Reload
	movq	%rcx, -248(%rbp)        # 8-byte Spill
	movq	%rax, %rcx
	movq	-248(%rbp), %rax        # 8-byte Reload
	movq	%rax, (%rsp)
	callq	trace_logger_log_ptr
	movl	$19134, %r10d           # imm = 0x4ABE
	movl	%r10d, %edi
	movl	$64, %r10d
	movl	%r10d, %esi
	movl	$1, %r10d
	movl	%r10d, %ecx
	movabsq	$.L.str.9, %r8
	xorl	%r10d, %r10d
	movl	%r10d, %r9d
	movabsq	$.L.str.5, %rax
	movq	-112(%rbp), %rdx        # 8-byte Reload
	addq	$4, %rdx
	movq	%rdx, -256(%rbp)        # 8-byte Spill
	movq	%rax, (%rsp)
	callq	trace_logger_log_ptr
	movq	$-1, %rdi
	movabsq	$.L.str.1, %rsi
	movabsq	$.L.str.2, %rdx
	movabsq	$.L.str.10, %rcx
	movl	$32, %r10d
	movl	%r10d, %r8d
	xorl	%r9d, %r9d
	movl	$1, %r10d
	movl	$1, (%rsp)
	movl	%r10d, -260(%rbp)       # 4-byte Spill
	callq	trace_logger_log0
	movl	$2, %r9d
	movl	%r9d, %edi
	movl	$64, %r9d
	movl	%r9d, %esi
	movl	$1, %r9d
	movl	%r9d, %edx
	xorl	%r9d, %r9d
	movl	%r9d, %eax
	movabsq	$.L.str.4, %r8
	movabsq	$.L.str.5, %rcx
	movq	%rcx, -272(%rbp)        # 8-byte Spill
	movq	%rax, %rcx
	movq	%rax, %r9
	movq	-272(%rbp), %rax        # 8-byte Reload
	movq	%rax, (%rsp)
	callq	trace_logger_log_int
	movl	$1, %r10d
	movl	%r10d, %eax
	movl	$64, %r10d
	movl	%r10d, %esi
	movabsq	$.L.str.8, %r8
	xorl	%r10d, %r10d
	movl	%r10d, %r9d
	movabsq	$.L.str.5, %rcx
	movq	%rax, %rdi
	movq	-120(%rbp), %rdx        # 8-byte Reload
	movq	%rcx, -280(%rbp)        # 8-byte Spill
	movq	%rax, %rcx
	movq	-280(%rbp), %rax        # 8-byte Reload
	movq	%rax, (%rsp)
	callq	trace_logger_log_ptr
	movl	$19134, %r10d           # imm = 0x4ABE
	movl	%r10d, %edi
	movl	$64, %r10d
	movl	%r10d, %esi
	movl	$1, %r10d
	movl	%r10d, %ecx
	movabsq	$.L.str.10, %r8
	xorl	%r10d, %r10d
	movl	%r10d, %r9d
	movabsq	$.L.str.5, %rax
	movq	-120(%rbp), %rdx        # 8-byte Reload
	addq	$4, %rdx
	movq	%rdx, -288(%rbp)        # 8-byte Spill
	movq	%rax, (%rsp)
	callq	trace_logger_log_ptr
	movq	$-1, %rdi
	movabsq	$.L.str.1, %rsi
	movabsq	$.L.str.2, %rdx
	movabsq	$.L.str.11, %rcx
	movl	$32, %r10d
	movl	%r10d, %r8d
	xorl	%r9d, %r9d
	movl	$1, %r10d
	movl	$1, (%rsp)
	movl	%r10d, -292(%rbp)       # 4-byte Spill
	callq	trace_logger_log0
	movl	$2, %r9d
	movl	%r9d, %edi
	movl	$64, %r9d
	movl	%r9d, %esi
	movl	$5, %r9d
	movl	%r9d, %edx
	xorl	%r9d, %r9d
	movl	%r9d, %eax
	movabsq	$.L.str.4, %r8
	movabsq	$.L.str.5, %rcx
	movq	%rcx, -304(%rbp)        # 8-byte Spill
	movq	%rax, %rcx
	movq	%rax, %r9
	movq	-304(%rbp), %rax        # 8-byte Reload
	movq	%rax, (%rsp)
	callq	trace_logger_log_int
	movl	$1, %r10d
	movl	%r10d, %eax
	movl	$64, %r10d
	movl	%r10d, %esi
	movabsq	$.L.str.6, %r8
	xorl	%r10d, %r10d
	movl	%r10d, %r9d
	movabsq	$.L.str.5, %rcx
	movq	%rax, %rdi
	movq	-112(%rbp), %rdx        # 8-byte Reload
	movq	%rcx, -312(%rbp)        # 8-byte Spill
	movq	%rax, %rcx
	movq	-312(%rbp), %rax        # 8-byte Reload
	movq	%rax, (%rsp)
	callq	trace_logger_log_ptr
	movl	$19134, %r10d           # imm = 0x4ABE
	movl	%r10d, %edi
	movl	$64, %r10d
	movl	%r10d, %esi
	movl	$1, %r10d
	movl	%r10d, %ecx
	movabsq	$.L.str.11, %r8
	xorl	%r10d, %r10d
	movl	%r10d, %r9d
	movabsq	$.L.str.5, %rax
	movq	-112(%rbp), %rdx        # 8-byte Reload
	addq	$20, %rdx
	movq	%rdx, -320(%rbp)        # 8-byte Spill
	movq	%rax, (%rsp)
	callq	trace_logger_log_ptr
	movq	$-1, %rdi
	movabsq	$.L.str.1, %rsi
	movabsq	$.L.str.2, %rdx
	movabsq	$.L.str.12, %rcx
	movl	$32, %r10d
	movl	%r10d, %r8d
	xorl	%r9d, %r9d
	movl	$1, %r10d
	movl	$1, (%rsp)
	movl	%r10d, -324(%rbp)       # 4-byte Spill
	callq	trace_logger_log0
	movl	$2, %r9d
	movl	%r9d, %edi
	movl	$64, %r9d
	movl	%r9d, %esi
	movl	$5, %r9d
	movl	%r9d, %edx
	xorl	%r9d, %r9d
	movl	%r9d, %eax
	movabsq	$.L.str.4, %r8
	movabsq	$.L.str.5, %rcx
	movq	%rcx, -336(%rbp)        # 8-byte Spill
	movq	%rax, %rcx
	movq	%rax, %r9
	movq	-336(%rbp), %rax        # 8-byte Reload
	movq	%rax, (%rsp)
	callq	trace_logger_log_int
	movl	$1, %r10d
	movl	%r10d, %eax
	movl	$64, %r10d
	movl	%r10d, %esi
	movabsq	$.L.str.8, %r8
	xorl	%r10d, %r10d
	movl	%r10d, %r9d
	movabsq	$.L.str.5, %rcx
	movq	%rax, %rdi
	movq	-120(%rbp), %rdx        # 8-byte Reload
	movq	%rcx, -344(%rbp)        # 8-byte Spill
	movq	%rax, %rcx
	movq	-344(%rbp), %rax        # 8-byte Reload
	movq	%rax, (%rsp)
	callq	trace_logger_log_ptr
	movl	$19134, %r10d           # imm = 0x4ABE
	movl	%r10d, %edi
	movl	$64, %r10d
	movl	%r10d, %esi
	movl	$1, %r10d
	movl	%r10d, %ecx
	movabsq	$.L.str.12, %r8
	xorl	%r10d, %r10d
	movl	%r10d, %r9d
	movabsq	$.L.str.5, %rax
	movq	-120(%rbp), %rdx        # 8-byte Reload
	addq	$20, %rdx
	movq	%rdx, -352(%rbp)        # 8-byte Spill
	movq	%rax, (%rsp)
	callq	trace_logger_log_ptr
	movq	$-1, %rdi
	movabsq	$.L.str.1, %rsi
	movabsq	$.L.str.2, %rdx
	movabsq	$.L.str.13, %rcx
	movl	$32, %r10d
	movl	%r10d, %r8d
	xorl	%r9d, %r9d
	movl	$1, %r10d
	movl	$1, (%rsp)
	movl	%r10d, -356(%rbp)       # 4-byte Spill
	callq	trace_logger_log0
	movl	$2, %r9d
	movl	%r9d, %eax
	movl	$64, %r9d
	movl	%r9d, %esi
	xorl	%r9d, %r9d
	movl	%r9d, %ecx
	movabsq	$.L.str.4, %r8
	movabsq	$.L.str.5, %rdx
	movq	%rax, %rdi
	movq	%rdx, -368(%rbp)        # 8-byte Spill
	movq	%rax, %rdx
	movq	%rcx, -376(%rbp)        # 8-byte Spill
	movq	-376(%rbp), %r9         # 8-byte Reload
	movq	-368(%rbp), %rax        # 8-byte Reload
	movq	%rax, (%rsp)
	callq	trace_logger_log_int
	movl	$1, %r10d
	movl	%r10d, %eax
	movl	$64, %r10d
	movl	%r10d, %esi
	movabsq	$.L.str.6, %r8
	xorl	%r10d, %r10d
	movl	%r10d, %r9d
	movabsq	$.L.str.5, %rcx
	movq	%rax, %rdi
	movq	-112(%rbp), %rdx        # 8-byte Reload
	movq	%rcx, -384(%rbp)        # 8-byte Spill
	movq	%rax, %rcx
	movq	-384(%rbp), %rax        # 8-byte Reload
	movq	%rax, (%rsp)
	callq	trace_logger_log_ptr
	movl	$19134, %r10d           # imm = 0x4ABE
	movl	%r10d, %edi
	movl	$64, %r10d
	movl	%r10d, %esi
	movl	$1, %r10d
	movl	%r10d, %ecx
	movabsq	$.L.str.13, %r8
	xorl	%r10d, %r10d
	movl	%r10d, %r9d
	movabsq	$.L.str.5, %rax
	movq	-112(%rbp), %rdx        # 8-byte Reload
	addq	$8, %rdx
	movq	%rdx, -392(%rbp)        # 8-byte Spill
	movq	%rax, (%rsp)
	callq	trace_logger_log_ptr
	movq	$-1, %rdi
	movabsq	$.L.str.1, %rsi
	movabsq	$.L.str.2, %rdx
	movabsq	$.L.str.14, %rcx
	movl	$32, %r10d
	movl	%r10d, %r8d
	xorl	%r9d, %r9d
	movl	$1, %r10d
	movl	$1, (%rsp)
	movl	%r10d, -396(%rbp)       # 4-byte Spill
	callq	trace_logger_log0
	movl	$2, %r9d
	movl	%r9d, %eax
	movl	$64, %r9d
	movl	%r9d, %esi
	xorl	%r9d, %r9d
	movl	%r9d, %ecx
	movabsq	$.L.str.4, %r8
	movabsq	$.L.str.5, %rdx
	movq	%rax, %rdi
	movq	%rdx, -408(%rbp)        # 8-byte Spill
	movq	%rax, %rdx
	movq	%rcx, -416(%rbp)        # 8-byte Spill
	movq	-416(%rbp), %r9         # 8-byte Reload
	movq	-408(%rbp), %rax        # 8-byte Reload
	movq	%rax, (%rsp)
	callq	trace_logger_log_int
	movl	$1, %r10d
	movl	%r10d, %eax
	movl	$64, %r10d
	movl	%r10d, %esi
	movabsq	$.L.str.8, %r8
	xorl	%r10d, %r10d
	movl	%r10d, %r9d
	movabsq	$.L.str.5, %rcx
	movq	%rax, %rdi
	movq	-120(%rbp), %rdx        # 8-byte Reload
	movq	%rcx, -424(%rbp)        # 8-byte Spill
	movq	%rax, %rcx
	movq	-424(%rbp), %rax        # 8-byte Reload
	movq	%rax, (%rsp)
	callq	trace_logger_log_ptr
	movl	$19134, %r10d           # imm = 0x4ABE
	movl	%r10d, %edi
	movl	$64, %r10d
	movl	%r10d, %esi
	movl	$1, %r10d
	movl	%r10d, %ecx
	movabsq	$.L.str.14, %r8
	xorl	%r10d, %r10d
	movl	%r10d, %r9d
	movabsq	$.L.str.5, %rax
	movq	-120(%rbp), %rdx        # 8-byte Reload
	addq	$8, %rdx
	movq	%rdx, -432(%rbp)        # 8-byte Spill
	movq	%rax, (%rsp)
	callq	trace_logger_log_ptr
	movq	$-1, %rdi
	movabsq	$.L.str.1, %rsi
	movabsq	$.L.str.2, %rdx
	movabsq	$.L.str.15, %rcx
	movl	$32, %r10d
	movl	%r10d, %r8d
	xorl	%r9d, %r9d
	movl	$1, %r10d
	movl	$1, (%rsp)
	movl	%r10d, -436(%rbp)       # 4-byte Spill
	callq	trace_logger_log0
	movl	$2, %r9d
	movl	%r9d, %edi
	movl	$64, %r9d
	movl	%r9d, %esi
	movl	$6, %r9d
	movl	%r9d, %edx
	xorl	%r9d, %r9d
	movl	%r9d, %eax
	movabsq	$.L.str.4, %r8
	movabsq	$.L.str.5, %rcx
	movq	%rcx, -448(%rbp)        # 8-byte Spill
	movq	%rax, %rcx
	movq	%rax, %r9
	movq	-448(%rbp), %rax        # 8-byte Reload
	movq	%rax, (%rsp)
	callq	trace_logger_log_int
	movl	$1, %r10d
	movl	%r10d, %eax
	movl	$64, %r10d
	movl	%r10d, %esi
	movabsq	$.L.str.6, %r8
	xorl	%r10d, %r10d
	movl	%r10d, %r9d
	movabsq	$.L.str.5, %rcx
	movq	%rax, %rdi
	movq	-112(%rbp), %rdx        # 8-byte Reload
	movq	%rcx, -456(%rbp)        # 8-byte Spill
	movq	%rax, %rcx
	movq	-456(%rbp), %rax        # 8-byte Reload
	movq	%rax, (%rsp)
	callq	trace_logger_log_ptr
	movl	$19134, %r10d           # imm = 0x4ABE
	movl	%r10d, %edi
	movl	$64, %r10d
	movl	%r10d, %esi
	movl	$1, %r10d
	movl	%r10d, %ecx
	movabsq	$.L.str.15, %r8
	xorl	%r10d, %r10d
	movl	%r10d, %r9d
	movabsq	$.L.str.5, %rax
	movq	-112(%rbp), %rdx        # 8-byte Reload
	addq	$24, %rdx
	movq	%rdx, -464(%rbp)        # 8-byte Spill
	movq	%rax, (%rsp)
	callq	trace_logger_log_ptr
	movq	$-1, %rdi
	movabsq	$.L.str.1, %rsi
	movabsq	$.L.str.2, %rdx
	movabsq	$.L.str.16, %rcx
	movl	$32, %r10d
	movl	%r10d, %r8d
	xorl	%r9d, %r9d
	movl	$1, %r10d
	movl	$1, (%rsp)
	movl	%r10d, -468(%rbp)       # 4-byte Spill
	callq	trace_logger_log0
	movl	$2, %r9d
	movl	%r9d, %edi
	movl	$64, %r9d
	movl	%r9d, %esi
	movl	$6, %r9d
	movl	%r9d, %edx
	xorl	%r9d, %r9d
	movl	%r9d, %eax
	movabsq	$.L.str.4, %r8
	movabsq	$.L.str.5, %rcx
	movq	%rcx, -480(%rbp)        # 8-byte Spill
	movq	%rax, %rcx
	movq	%rax, %r9
	movq	-480(%rbp), %rax        # 8-byte Reload
	movq	%rax, (%rsp)
	callq	trace_logger_log_int
	movl	$1, %r10d
	movl	%r10d, %eax
	movl	$64, %r10d
	movl	%r10d, %esi
	movabsq	$.L.str.8, %r8
	xorl	%r10d, %r10d
	movl	%r10d, %r9d
	movabsq	$.L.str.5, %rcx
	movq	%rax, %rdi
	movq	-120(%rbp), %rdx        # 8-byte Reload
	movq	%rcx, -488(%rbp)        # 8-byte Spill
	movq	%rax, %rcx
	movq	-488(%rbp), %rax        # 8-byte Reload
	movq	%rax, (%rsp)
	callq	trace_logger_log_ptr
	movl	$19134, %r10d           # imm = 0x4ABE
	movl	%r10d, %edi
	movl	$64, %r10d
	movl	%r10d, %esi
	movl	$1, %r10d
	movl	%r10d, %ecx
	movabsq	$.L.str.16, %r8
	xorl	%r10d, %r10d
	movl	%r10d, %r9d
	movabsq	$.L.str.5, %rax
	movq	-120(%rbp), %rdx        # 8-byte Reload
	addq	$24, %rdx
	movq	%rdx, -496(%rbp)        # 8-byte Spill
	movq	%rax, (%rsp)
	callq	trace_logger_log_ptr
	movq	$-1, %rdi
	movabsq	$.L.str.1, %rsi
	movabsq	$.L.str.2, %rdx
	movabsq	$.L.str.17, %rcx
	movl	$32, %r10d
	movl	%r10d, %r8d
	xorl	%r9d, %r9d
	movl	$1, %r10d
	movl	$1, (%rsp)
	movl	%r10d, -500(%rbp)       # 4-byte Spill
	callq	trace_logger_log0
	movl	$2, %r9d
	movl	%r9d, %edi
	movl	$64, %r9d
	movl	%r9d, %esi
	movl	$3, %r9d
	movl	%r9d, %edx
	xorl	%r9d, %r9d
	movl	%r9d, %eax
	movabsq	$.L.str.4, %r8
	movabsq	$.L.str.5, %rcx
	movq	%rcx, -512(%rbp)        # 8-byte Spill
	movq	%rax, %rcx
	movq	%rax, %r9
	movq	-512(%rbp), %rax        # 8-byte Reload
	movq	%rax, (%rsp)
	callq	trace_logger_log_int
	movl	$1, %r10d
	movl	%r10d, %eax
	movl	$64, %r10d
	movl	%r10d, %esi
	movabsq	$.L.str.6, %r8
	xorl	%r10d, %r10d
	movl	%r10d, %r9d
	movabsq	$.L.str.5, %rcx
	movq	%rax, %rdi
	movq	-112(%rbp), %rdx        # 8-byte Reload
	movq	%rcx, -520(%rbp)        # 8-byte Spill
	movq	%rax, %rcx
	movq	-520(%rbp), %rax        # 8-byte Reload
	movq	%rax, (%rsp)
	callq	trace_logger_log_ptr
	movl	$19134, %r10d           # imm = 0x4ABE
	movl	%r10d, %edi
	movl	$64, %r10d
	movl	%r10d, %esi
	movl	$1, %r10d
	movl	%r10d, %ecx
	movabsq	$.L.str.17, %r8
	xorl	%r10d, %r10d
	movl	%r10d, %r9d
	movabsq	$.L.str.5, %rax
	movq	-112(%rbp), %rdx        # 8-byte Reload
	addq	$12, %rdx
	movq	%rdx, -528(%rbp)        # 8-byte Spill
	movq	%rax, (%rsp)
	callq	trace_logger_log_ptr
	movq	$-1, %rdi
	movabsq	$.L.str.1, %rsi
	movabsq	$.L.str.2, %rdx
	movabsq	$.L.str.18, %rcx
	movl	$32, %r10d
	movl	%r10d, %r8d
	xorl	%r9d, %r9d
	movl	$1, %r10d
	movl	$1, (%rsp)
	movl	%r10d, -532(%rbp)       # 4-byte Spill
	callq	trace_logger_log0
	movl	$2, %r9d
	movl	%r9d, %edi
	movl	$64, %r9d
	movl	%r9d, %esi
	movl	$3, %r9d
	movl	%r9d, %edx
	xorl	%r9d, %r9d
	movl	%r9d, %eax
	movabsq	$.L.str.4, %r8
	movabsq	$.L.str.5, %rcx
	movq	%rcx, -544(%rbp)        # 8-byte Spill
	movq	%rax, %rcx
	movq	%rax, %r9
	movq	-544(%rbp), %rax        # 8-byte Reload
	movq	%rax, (%rsp)
	callq	trace_logger_log_int
	movl	$1, %r10d
	movl	%r10d, %eax
	movl	$64, %r10d
	movl	%r10d, %esi
	movabsq	$.L.str.8, %r8
	xorl	%r10d, %r10d
	movl	%r10d, %r9d
	movabsq	$.L.str.5, %rcx
	movq	%rax, %rdi
	movq	-120(%rbp), %rdx        # 8-byte Reload
	movq	%rcx, -552(%rbp)        # 8-byte Spill
	movq	%rax, %rcx
	movq	-552(%rbp), %rax        # 8-byte Reload
	movq	%rax, (%rsp)
	callq	trace_logger_log_ptr
	movl	$19134, %r10d           # imm = 0x4ABE
	movl	%r10d, %edi
	movl	$64, %r10d
	movl	%r10d, %esi
	movl	$1, %r10d
	movl	%r10d, %ecx
	movabsq	$.L.str.18, %r8
	xorl	%r10d, %r10d
	movl	%r10d, %r9d
	movabsq	$.L.str.5, %rax
	movq	-120(%rbp), %rdx        # 8-byte Reload
	addq	$12, %rdx
	movq	%rdx, -560(%rbp)        # 8-byte Spill
	movq	%rax, (%rsp)
	callq	trace_logger_log_ptr
	movq	$-1, %rdi
	movabsq	$.L.str.1, %rsi
	movabsq	$.L.str.2, %rdx
	movabsq	$.L.str.19, %rcx
	movl	$32, %r10d
	movl	%r10d, %r8d
	xorl	%r9d, %r9d
	movl	$1, %r10d
	movl	$1, (%rsp)
	movl	%r10d, -564(%rbp)       # 4-byte Spill
	callq	trace_logger_log0
	movl	$2, %r9d
	movl	%r9d, %edi
	movl	$64, %r9d
	movl	%r9d, %esi
	movl	$7, %r9d
	movl	%r9d, %edx
	xorl	%r9d, %r9d
	movl	%r9d, %eax
	movabsq	$.L.str.4, %r8
	movabsq	$.L.str.5, %rcx
	movq	%rcx, -576(%rbp)        # 8-byte Spill
	movq	%rax, %rcx
	movq	%rax, %r9
	movq	-576(%rbp), %rax        # 8-byte Reload
	movq	%rax, (%rsp)
	callq	trace_logger_log_int
	movl	$1, %r10d
	movl	%r10d, %eax
	movl	$64, %r10d
	movl	%r10d, %esi
	movabsq	$.L.str.6, %r8
	xorl	%r10d, %r10d
	movl	%r10d, %r9d
	movabsq	$.L.str.5, %rcx
	movq	%rax, %rdi
	movq	-112(%rbp), %rdx        # 8-byte Reload
	movq	%rcx, -584(%rbp)        # 8-byte Spill
	movq	%rax, %rcx
	movq	-584(%rbp), %rax        # 8-byte Reload
	movq	%rax, (%rsp)
	callq	trace_logger_log_ptr
	movl	$19134, %r10d           # imm = 0x4ABE
	movl	%r10d, %edi
	movl	$64, %r10d
	movl	%r10d, %esi
	movl	$1, %r10d
	movl	%r10d, %ecx
	movabsq	$.L.str.19, %r8
	xorl	%r10d, %r10d
	movl	%r10d, %r9d
	movabsq	$.L.str.5, %rax
	movq	-112(%rbp), %rdx        # 8-byte Reload
	addq	$28, %rdx
	movq	%rdx, -592(%rbp)        # 8-byte Spill
	movq	%rax, (%rsp)
	callq	trace_logger_log_ptr
	movq	$-1, %rdi
	movabsq	$.L.str.1, %rsi
	movabsq	$.L.str.2, %rdx
	movabsq	$.L.str.20, %rcx
	movl	$32, %r10d
	movl	%r10d, %r8d
	xorl	%r9d, %r9d
	movl	$1, %r10d
	movl	$1, (%rsp)
	movl	%r10d, -596(%rbp)       # 4-byte Spill
	callq	trace_logger_log0
	movl	$2, %r9d
	movl	%r9d, %edi
	movl	$64, %r9d
	movl	%r9d, %esi
	movl	$7, %r9d
	movl	%r9d, %edx
	xorl	%r9d, %r9d
	movl	%r9d, %eax
	movabsq	$.L.str.4, %r8
	movabsq	$.L.str.5, %rcx
	movq	%rcx, -608(%rbp)        # 8-byte Spill
	movq	%rax, %rcx
	movq	%rax, %r9
	movq	-608(%rbp), %rax        # 8-byte Reload
	movq	%rax, (%rsp)
	callq	trace_logger_log_int
	movl	$1, %r10d
	movl	%r10d, %eax
	movl	$64, %r10d
	movl	%r10d, %esi
	movabsq	$.L.str.8, %r8
	xorl	%r10d, %r10d
	movl	%r10d, %r9d
	movabsq	$.L.str.5, %rcx
	movq	%rax, %rdi
	movq	-120(%rbp), %rdx        # 8-byte Reload
	movq	%rcx, -616(%rbp)        # 8-byte Spill
	movq	%rax, %rcx
	movq	-616(%rbp), %rax        # 8-byte Reload
	movq	%rax, (%rsp)
	callq	trace_logger_log_ptr
	movl	$19134, %r10d           # imm = 0x4ABE
	movl	%r10d, %edi
	movl	$64, %r10d
	movl	%r10d, %esi
	movl	$1, %r10d
	movl	%r10d, %ecx
	movabsq	$.L.str.20, %r8
	xorl	%r10d, %r10d
	movl	%r10d, %r9d
	movabsq	$.L.str.5, %rax
	movq	-120(%rbp), %rdx        # 8-byte Reload
	addq	$28, %rdx
.Ltmp2:
	.loc	1 20 9 is_stmt 1        # fft.c:20:9
	movq	%rdx, -624(%rbp)        # 8-byte Spill
	movq	%rax, (%rsp)
	callq	trace_logger_log_ptr
	movl	$20, %r10d
	movl	%r10d, %edi
	movabsq	$.L.str.1, %rsi
	movabsq	$.L.str.2, %rdx
	movabsq	$.L.str.21, %rcx
	movl	$2, %r10d
	movl	%r10d, %r8d
	xorl	%r9d, %r9d
	movl	$1, %r10d
	movl	$1, (%rsp)
	movl	%r10d, -628(%rbp)       # 4-byte Spill
	callq	trace_logger_log0
	movl	$1, %r9d
	movl	%r9d, %eax
	xorl	%r9d, %r9d
	movl	%r9d, %ecx
	movabsq	$.L.str.22, %r8
	movabsq	$.L.str.5, %rdx
	movq	%rax, %rdi
	movq	%rcx, %rsi
	movq	%rdx, -640(%rbp)        # 8-byte Spill
	movq	%rcx, %rdx
	movq	%rcx, -648(%rbp)        # 8-byte Spill
	movq	%rax, %rcx
	movq	-648(%rbp), %r9         # 8-byte Reload
	movq	-640(%rbp), %rax        # 8-byte Reload
	movq	%rax, (%rsp)
	callq	trace_logger_log_int
	xorl	%r10d, %r10d
	movl	%r10d, %eax
	movq	%rax, -656(%rbp)        # 8-byte Spill
.Ltmp3:
.LBB0_1:                                # =>This Loop Header: Depth=1
                                        #     Child Loop BB0_2 Depth 2
                                        #     Child Loop BB0_4 Depth 2
                                        #     Child Loop BB0_6 Depth 2
	#DEBUG_VALUE: step1:cos_512 <- [DW_OP_constu 56, DW_OP_minus] [%rbp+0]
	#DEBUG_VALUE: step1:sin_512 <- [DW_OP_constu 160, DW_OP_minus] [%rbp+0]
	#DEBUG_VALUE: step1:cos_64 <- [DW_OP_constu 136, DW_OP_minus] [%rbp+0]
	#DEBUG_VALUE: step1:sin_64 <- [DW_OP_constu 144, DW_OP_minus] [%rbp+0]
	#DEBUG_VALUE: step1:reversed <- [DW_OP_constu 152, DW_OP_minus] [%rbp+0]
	#DEBUG_VALUE: step1:smem <- [DW_OP_constu 128, DW_OP_minus] [%rbp+0]
	#DEBUG_VALUE: step1:data_y <- [DW_OP_constu 120, DW_OP_minus] [%rbp+0]
	#DEBUG_VALUE: step1:data_x <- [DW_OP_constu 112, DW_OP_minus] [%rbp+0]
	#DEBUG_VALUE: step1:DATA_y <- [DW_OP_constu 104, DW_OP_minus] [%rbp+0]
	#DEBUG_VALUE: step1:DATA_x <- [DW_OP_constu 96, DW_OP_minus] [%rbp+0]
	#DEBUG_VALUE: step1:work_y <- [DW_OP_constu 48, DW_OP_minus] [%rbp+0]
	#DEBUG_VALUE: step1:work_x <- [DW_OP_constu 80, DW_OP_minus] [%rbp+0]
	.loc	1 0 9 is_stmt 0         # fft.c:0:9
	movq	-656(%rbp), %rax        # 8-byte Reload
	movq	$-1, %rdi
	movabsq	$.L.str.1, %rsi
	movabsq	$.L.str.22, %rdx
	movabsq	$.L.str.23, %rcx
	movl	$53, %r8d
                                        # kill: def %r8 killed %r8d
	xorl	%r9d, %r9d
	movl	$1, %r10d
	.loc	1 17 19 is_stmt 1       # fft.c:17:19
	movl	$1, (%rsp)
	movq	%rax, -664(%rbp)        # 8-byte Spill
	movl	%r10d, -668(%rbp)       # 4-byte Spill
	callq	trace_logger_log0
	movl	$2, %r9d
	movl	%r9d, %edi
	movl	$64, %r9d
	movl	%r9d, %esi
	xorl	%r9d, %r9d
	movl	%r9d, %edx
	movl	$1, %r9d
	movl	%r9d, %eax
	movabsq	$.L.str.24, %r8
	movabsq	$.L.str.25, %rcx
	movq	%rcx, -680(%rbp)        # 8-byte Spill
	movq	%rax, %rcx
	movq	%rax, %r9
	movq	-680(%rbp), %rax        # 8-byte Reload
	movq	%rax, (%rsp)
	callq	trace_logger_log_int
	movl	$1, %r10d
	movl	%r10d, %eax
	movl	$64, %r10d
	movl	%r10d, %esi
	xorl	%r10d, %r10d
	movl	%r10d, %ecx
	movabsq	$.L.str.4, %r8
	movabsq	$.L.str.2, %rdx
	movq	%rax, %rdi
	movq	%rdx, -688(%rbp)        # 8-byte Spill
	movq	%rcx, %rdx
	movq	%rax, %r9
	movq	-688(%rbp), %rax        # 8-byte Reload
	movq	%rax, (%rsp)
	callq	trace_logger_log_int
	movl	$19134, %r10d           # imm = 0x4ABE
	movl	%r10d, %edi
	movl	$64, %r10d
	movl	%r10d, %esi
	movl	$1, %r10d
	movl	%r10d, %ecx
	movabsq	$.L.str.23, %r8
	xorl	%r10d, %r10d
	movl	%r10d, %r9d
	movabsq	$.L.str.2, %rax
	movq	-664(%rbp), %rdx        # 8-byte Reload
	movq	%rax, (%rsp)
	callq	trace_logger_log_int
	movl	$22, %r10d
	movl	%r10d, %edi
	movabsq	$.L.str.1, %rsi
	movabsq	$.L.str.22, %rdx
	movabsq	$.L.str.26, %rcx
	movl	$2, %r10d
	movl	%r10d, %r8d
	xorl	%r9d, %r9d
	movl	$1, %r10d
.Ltmp4:
	#DEBUG_VALUE: step1:i <- 0
	#DEBUG_VALUE: step1:tid <- [DW_OP_constu 664, DW_OP_minus] [%rbp+0]
	.loc	1 22 10                 # fft.c:22:10
	movl	$1, (%rsp)
	movl	%r10d, -692(%rbp)       # 4-byte Spill
	callq	trace_logger_log0
	movl	$1, %r9d
	movl	%r9d, %eax
	xorl	%r9d, %r9d
	movl	%r9d, %ecx
	movabsq	$.L.str.27, %r8
	movabsq	$.L.str.5, %rdx
	movq	%rax, %rdi
	movq	%rcx, %rsi
	movq	%rdx, -704(%rbp)        # 8-byte Spill
	movq	%rcx, %rdx
	movq	%rcx, -712(%rbp)        # 8-byte Spill
	movq	%rax, %rcx
	movq	-712(%rbp), %r9         # 8-byte Reload
	movq	-704(%rbp), %rax        # 8-byte Reload
	movq	%rax, (%rsp)
	callq	trace_logger_log_int
	xorl	%r10d, %r10d
	movl	%r10d, %eax
	movq	%rax, -720(%rbp)        # 8-byte Spill
.Ltmp5:
.LBB0_2:                                #   Parent Loop BB0_1 Depth=1
                                        # =>  This Inner Loop Header: Depth=2
	#DEBUG_VALUE: step1:tid <- [DW_OP_constu 664, DW_OP_minus] [%rbp+0]
	#DEBUG_VALUE: step1:cos_512 <- [DW_OP_constu 56, DW_OP_minus] [%rbp+0]
	#DEBUG_VALUE: step1:sin_512 <- [DW_OP_constu 160, DW_OP_minus] [%rbp+0]
	#DEBUG_VALUE: step1:cos_64 <- [DW_OP_constu 136, DW_OP_minus] [%rbp+0]
	#DEBUG_VALUE: step1:sin_64 <- [DW_OP_constu 144, DW_OP_minus] [%rbp+0]
	#DEBUG_VALUE: step1:reversed <- [DW_OP_constu 152, DW_OP_minus] [%rbp+0]
	#DEBUG_VALUE: step1:smem <- [DW_OP_constu 128, DW_OP_minus] [%rbp+0]
	#DEBUG_VALUE: step1:data_y <- [DW_OP_constu 120, DW_OP_minus] [%rbp+0]
	#DEBUG_VALUE: step1:data_x <- [DW_OP_constu 112, DW_OP_minus] [%rbp+0]
	#DEBUG_VALUE: step1:DATA_y <- [DW_OP_constu 104, DW_OP_minus] [%rbp+0]
	#DEBUG_VALUE: step1:DATA_x <- [DW_OP_constu 96, DW_OP_minus] [%rbp+0]
	#DEBUG_VALUE: step1:work_y <- [DW_OP_constu 48, DW_OP_minus] [%rbp+0]
	#DEBUG_VALUE: step1:work_x <- [DW_OP_constu 80, DW_OP_minus] [%rbp+0]
	.loc	1 0 10 is_stmt 0        # fft.c:0:10
	movq	-720(%rbp), %rax        # 8-byte Reload
	movq	$-1, %rdi
	movabsq	$.L.str.1, %rsi
	movabsq	$.L.str.27, %rdx
	movabsq	$.L.str.28, %rcx
	movl	$53, %r8d
                                        # kill: def %r8 killed %r8d
	xorl	%r9d, %r9d
	movl	$1, %r10d
	.loc	1 17 19 is_stmt 1       # fft.c:17:19
	movl	$1, (%rsp)
	movq	%rax, -728(%rbp)        # 8-byte Spill
	movl	%r10d, -732(%rbp)       # 4-byte Spill
	callq	trace_logger_log0
	movl	$2, %r9d
	movl	%r9d, %edi
	movl	$64, %r9d
	movl	%r9d, %esi
	xorl	%r9d, %r9d
	movl	%r9d, %edx
	movl	$1, %r9d
	movl	%r9d, %eax
	movabsq	$.L.str.29, %r8
	movabsq	$.L.str.27, %rcx
	movq	%rcx, -744(%rbp)        # 8-byte Spill
	movq	%rax, %rcx
	movq	%rax, %r9
	movq	-744(%rbp), %rax        # 8-byte Reload
	movq	%rax, (%rsp)
	callq	trace_logger_log_int
	movl	$1, %r10d
	movl	%r10d, %eax
	movl	$64, %r10d
	movl	%r10d, %esi
	xorl	%r10d, %r10d
	movl	%r10d, %ecx
	movabsq	$.L.str.4, %r8
	movabsq	$.L.str.22, %rdx
	movq	%rax, %rdi
	movq	%rdx, -752(%rbp)        # 8-byte Spill
	movq	%rcx, %rdx
	movq	%rax, %r9
	movq	-752(%rbp), %rax        # 8-byte Reload
	movq	%rax, (%rsp)
	callq	trace_logger_log_int
	movl	$19134, %r10d           # imm = 0x4ABE
	movl	%r10d, %edi
	movl	$64, %r10d
	movl	%r10d, %esi
	movl	$1, %r10d
	movl	%r10d, %ecx
	movabsq	$.L.str.28, %r8
	xorl	%r10d, %r10d
	movl	%r10d, %r9d
	movabsq	$.L.str.22, %rax
	movq	-728(%rbp), %rdx        # 8-byte Reload
	movq	%rax, (%rsp)
	callq	trace_logger_log_int
	movl	$23, %r10d
	movl	%r10d, %eax
	movabsq	$.L.str.1, %rsi
	movabsq	$.L.str.27, %rdx
	movabsq	$.L.str.30, %rcx
	xorl	%r9d, %r9d
	movl	$1, %r10d
.Ltmp6:
	#DEBUG_VALUE: step1:i <- [DW_OP_constu 728, DW_OP_minus] [%rbp+0]
	.loc	1 23 24                 # fft.c:23:24
	movq	%rax, %rdi
	movq	%rax, %r8
	movl	$1, (%rsp)
	movl	%r10d, -756(%rbp)       # 4-byte Spill
	callq	trace_logger_log0
	movl	$2, %r9d
	movl	%r9d, %edi
	movl	$64, %r9d
	movl	%r9d, %esi
	movl	$6, %r9d
	movl	%r9d, %edx
	xorl	%r9d, %r9d
	movl	%r9d, %eax
	movabsq	$.L.str.4, %r8
	movabsq	$.L.str.5, %rcx
	movq	%rcx, -768(%rbp)        # 8-byte Spill
	movq	%rax, %rcx
	movq	%rax, %r9
	movq	-768(%rbp), %rax        # 8-byte Reload
	movq	%rax, (%rsp)
	callq	trace_logger_log_int
	movl	$1, %r10d
	movl	%r10d, %eax
	movl	$64, %r10d
	movl	%r10d, %esi
	movabsq	$.L.str.28, %r8
	xorl	%r10d, %r10d
	movl	%r10d, %r9d
	movabsq	$.L.str.5, %rcx
	movq	%rax, %rdi
	movq	-728(%rbp), %rdx        # 8-byte Reload
	movq	%rcx, -776(%rbp)        # 8-byte Spill
	movq	%rax, %rcx
	movq	-776(%rbp), %rax        # 8-byte Reload
	movq	%rax, (%rsp)
	callq	trace_logger_log_int
	movl	$19134, %r10d           # imm = 0x4ABE
	movl	%r10d, %edi
	movl	$64, %r10d
	movl	%r10d, %esi
	movl	$1, %r10d
	movl	%r10d, %ecx
	movabsq	$.L.str.30, %r8
	xorl	%r10d, %r10d
	movl	%r10d, %r9d
	movabsq	$.L.str.5, %rax
	movq	-728(%rbp), %rdx        # 8-byte Reload
	shlq	$6, %rdx
	.loc	1 23 31 is_stmt 0       # fft.c:23:31
	movq	%rdx, -784(%rbp)        # 8-byte Spill
	movq	%rax, (%rsp)
	callq	trace_logger_log_int
	movl	$23, %r10d
	movl	%r10d, %edi
	movabsq	$.L.str.1, %rsi
	movabsq	$.L.str.27, %rdx
	movabsq	$.L.str.31, %rcx
	movl	$11, %r10d
	movl	%r10d, %r8d
	xorl	%r9d, %r9d
	movl	$1, %r10d
	movl	$1, (%rsp)
	movl	%r10d, -788(%rbp)       # 4-byte Spill
	callq	trace_logger_log0
	movl	$2, %r9d
	movl	%r9d, %edi
	movl	$64, %r9d
	movl	%r9d, %esi
	movl	$1, %r9d
	movl	%r9d, %ecx
	movabsq	$.L.str.23, %r8
	xorl	%r9d, %r9d
                                        # kill: def %r9 killed %r9d
	movabsq	$.L.str.5, %rax
	movq	-664(%rbp), %rdx        # 8-byte Reload
	movq	%rax, (%rsp)
	callq	trace_logger_log_int
	movl	$1, %r10d
	movl	%r10d, %eax
	movl	$64, %r10d
	movl	%r10d, %esi
	movabsq	$.L.str.30, %r8
	xorl	%r10d, %r10d
	movl	%r10d, %r9d
	movabsq	$.L.str.5, %rcx
	movq	%rax, %rdi
	movq	-784(%rbp), %rdx        # 8-byte Reload
	movq	%rcx, -800(%rbp)        # 8-byte Spill
	movq	%rax, %rcx
	movq	-800(%rbp), %rax        # 8-byte Reload
	movq	%rax, (%rsp)
	callq	trace_logger_log_int
	movl	$19134, %r10d           # imm = 0x4ABE
	movl	%r10d, %edi
	movl	$64, %r10d
	movl	%r10d, %esi
	movl	$1, %r10d
	movl	%r10d, %ecx
	movabsq	$.L.str.31, %r8
	xorl	%r10d, %r10d
	movl	%r10d, %r9d
	movabsq	$.L.str.5, %rax
	movq	-784(%rbp), %rdx        # 8-byte Reload
	movq	-664(%rbp), %r11        # 8-byte Reload
	addq	%r11, %rdx
	.loc	1 23 16                 # fft.c:23:16
	movq	%rdx, -808(%rbp)        # 8-byte Spill
	movq	%rax, (%rsp)
	callq	trace_logger_log_int
	movl	$23, %r10d
	movl	%r10d, %edi
	movabsq	$.L.str.1, %rsi
	movabsq	$.L.str.27, %rdx
	movabsq	$.L.str.32, %rcx
	movl	$32, %r10d
	movl	%r10d, %r8d
	xorl	%r9d, %r9d
	movl	$1, %r10d
	movl	$1, (%rsp)
	movl	%r10d, -812(%rbp)       # 4-byte Spill
	callq	trace_logger_log0
	movl	$2, %r9d
	movl	%r9d, %edi
	movl	$64, %r9d
	movl	%r9d, %esi
	movl	$1, %r9d
	movl	%r9d, %ecx
	movabsq	$.L.str.31, %r8
	xorl	%r9d, %r9d
                                        # kill: def %r9 killed %r9d
	movabsq	$.L.str.5, %rax
	movq	-808(%rbp), %rdx        # 8-byte Reload
	movq	%rax, (%rsp)
	callq	trace_logger_log_int
	movl	$1, %r10d
	movl	%r10d, %eax
	movl	$64, %r10d
	movl	%r10d, %esi
	movabsq	$.L.str.33, %r8
	xorl	%r10d, %r10d
	movl	%r10d, %r9d
	movabsq	$.L.str.5, %rcx
	movq	%rax, %rdi
	movq	-80(%rbp), %rdx         # 8-byte Reload
	movq	%rcx, -824(%rbp)        # 8-byte Spill
	movq	%rax, %rcx
	movq	-824(%rbp), %rax        # 8-byte Reload
	movq	%rax, (%rsp)
	callq	trace_logger_log_ptr
	movl	$19134, %r10d           # imm = 0x4ABE
	movl	%r10d, %edi
	movl	$64, %r10d
	movl	%r10d, %esi
	movl	$1, %r10d
	movl	%r10d, %ecx
	movabsq	$.L.str.32, %r8
	xorl	%r10d, %r10d
	movl	%r10d, %r9d
	movabsq	$.L.str.5, %rax
	movq	-808(%rbp), %rdx        # 8-byte Reload
	shlq	$2, %rdx
	movq	-80(%rbp), %r11         # 8-byte Reload
	addq	%rdx, %r11
	movq	%r11, %rdx
	movq	%rax, (%rsp)
	movq	%r11, -832(%rbp)        # 8-byte Spill
	callq	trace_logger_log_ptr
	movl	$23, %r10d
	movl	%r10d, %edi
	movabsq	$.L.str.1, %rsi
	movabsq	$.L.str.27, %rdx
	movabsq	$.L.str.34, %rcx
	movl	$30, %r10d
	movl	%r10d, %r8d
	xorl	%r9d, %r9d
	movl	$1, %r10d
	movl	$1, (%rsp)
	movl	%r10d, -836(%rbp)       # 4-byte Spill
	callq	trace_logger_log0
	movl	$1, %r9d
	movl	%r9d, %eax
	movl	$64, %r9d
	movl	%r9d, %esi
	movabsq	$.L.str.32, %r8
	xorl	%r9d, %r9d
                                        # kill: def %r9 killed %r9d
	movabsq	$.L.str.5, %rcx
	movq	%rax, %rdi
	movq	-832(%rbp), %rdx        # 8-byte Reload
	movq	%rcx, -848(%rbp)        # 8-byte Spill
	movq	%rax, %rcx
	movq	-848(%rbp), %rax        # 8-byte Reload
	movq	%rax, (%rsp)
	callq	trace_logger_log_ptr
	movl	$19134, %r10d           # imm = 0x4ABE
	movl	%r10d, %edi
	movl	$32, %r10d
	movl	%r10d, %esi
	movl	$1, %r10d
	movl	%r10d, %ecx
	movabsq	$.L.str.34, %r8
	xorl	%r10d, %r10d
	movl	%r10d, %r9d
	movabsq	$.L.str.5, %rax
	movq	-80(%rbp), %rdx         # 8-byte Reload
	movq	-808(%rbp), %r11        # 8-byte Reload
	movl	(%rdx,%r11,4), %r10d
	.loc	1 23 4                  # fft.c:23:4
	movl	%r10d, %ebx
	movl	%ebx, %edx
	movq	%rax, (%rsp)
	movl	%r10d, -852(%rbp)       # 4-byte Spill
	callq	trace_logger_log_int
	movl	$23, %r10d
	movl	%r10d, %edi
	movabsq	$.L.str.1, %rsi
	movabsq	$.L.str.27, %rdx
	movabsq	$.L.str.35, %rcx
	movl	$32, %r10d
	movl	%r10d, %r8d
	xorl	%r9d, %r9d
	movl	$1, %r10d
	movl	$1, (%rsp)
	movl	%r10d, -856(%rbp)       # 4-byte Spill
	callq	trace_logger_log0
	movl	$2, %r9d
	movl	%r9d, %edi
	movl	$64, %r9d
	movl	%r9d, %esi
	movl	$1, %r9d
	movl	%r9d, %ecx
	movabsq	$.L.str.28, %r8
	xorl	%r9d, %r9d
                                        # kill: def %r9 killed %r9d
	movabsq	$.L.str.5, %rax
	movq	-728(%rbp), %rdx        # 8-byte Reload
	movq	%rax, (%rsp)
	callq	trace_logger_log_int
	movl	$1, %r10d
	movl	%r10d, %eax
	movl	$64, %r10d
	movl	%r10d, %esi
	movabsq	$.L.str.6, %r8
	xorl	%r10d, %r10d
	movl	%r10d, %r9d
	movabsq	$.L.str.5, %rcx
	movq	%rax, %rdi
	movq	-112(%rbp), %rdx        # 8-byte Reload
	movq	%rcx, -864(%rbp)        # 8-byte Spill
	movq	%rax, %rcx
	movq	-864(%rbp), %rax        # 8-byte Reload
	movq	%rax, (%rsp)
	callq	trace_logger_log_ptr
	movl	$19134, %r10d           # imm = 0x4ABE
	movl	%r10d, %edi
	movl	$64, %r10d
	movl	%r10d, %esi
	movl	$1, %r10d
	movl	%r10d, %ecx
	movabsq	$.L.str.35, %r8
	xorl	%r10d, %r10d
	movl	%r10d, %r9d
	movabsq	$.L.str.5, %rax
	movq	-728(%rbp), %rdx        # 8-byte Reload
	shlq	$2, %rdx
	movq	-112(%rbp), %r11        # 8-byte Reload
	addq	%rdx, %r11
	.loc	1 23 14                 # fft.c:23:14
	movq	%r11, %rdx
	movq	%rax, (%rsp)
	movq	%r11, -872(%rbp)        # 8-byte Spill
	callq	trace_logger_log_ptr
	movl	$23, %r10d
	movl	%r10d, %edi
	movabsq	$.L.str.1, %rsi
	movabsq	$.L.str.27, %rdx
	movabsq	$.L.str.36, %rcx
	movl	$31, %r10d
	movl	%r10d, %r8d
	xorl	%r9d, %r9d
	movl	$1, %r10d
	movl	$1, (%rsp)
	movl	%r10d, -876(%rbp)       # 4-byte Spill
	callq	trace_logger_log0
	movl	$2, %r9d
	movl	%r9d, %edi
	movl	$64, %r9d
	movl	%r9d, %esi
	movl	$1, %r9d
	movl	%r9d, %ecx
	movabsq	$.L.str.35, %r8
	xorl	%r9d, %r9d
                                        # kill: def %r9 killed %r9d
	movabsq	$.L.str.5, %rax
	movq	-872(%rbp), %rdx        # 8-byte Reload
	movq	%rax, (%rsp)
	callq	trace_logger_log_ptr
	movl	$1, %r10d
	movl	%r10d, %eax
	movl	$32, %r10d
	movl	%r10d, %esi
	movabsq	$.L.str.34, %r8
	xorl	%r10d, %r10d
	movl	%r10d, %r9d
	movabsq	$.L.str.5, %rcx
	movl	-852(%rbp), %r10d       # 4-byte Reload
	movl	%r10d, %ebx
	movl	%ebx, %edx
	movq	%rax, %rdi
	movq	%rcx, -888(%rbp)        # 8-byte Spill
	movq	%rax, %rcx
	movq	-888(%rbp), %rax        # 8-byte Reload
	movq	%rax, (%rsp)
	callq	trace_logger_log_int
	movl	$24, %r10d
	movl	%r10d, %edi
	movabsq	$.L.str.1, %rsi
	movabsq	$.L.str.27, %rdx
	movabsq	$.L.str.37, %rcx
	movl	$32, %r10d
	movl	%r10d, %r8d
	xorl	%r9d, %r9d
	movl	$1, %r10d
	movq	-112(%rbp), %rax        # 8-byte Reload
	movq	-728(%rbp), %r11        # 8-byte Reload
	movl	-852(%rbp), %ebx        # 4-byte Reload
	movl	%ebx, (%rax,%r11,4)
	.loc	1 24 16 is_stmt 1       # fft.c:24:16
	movl	$1, (%rsp)
	movl	%r10d, -892(%rbp)       # 4-byte Spill
	callq	trace_logger_log0
	movl	$2, %r9d
	movl	%r9d, %edi
	movl	$64, %r9d
	movl	%r9d, %esi
	movl	$1, %r9d
	movl	%r9d, %ecx
	movabsq	$.L.str.31, %r8
	xorl	%r9d, %r9d
                                        # kill: def %r9 killed %r9d
	movabsq	$.L.str.5, %rax
	movq	-808(%rbp), %rdx        # 8-byte Reload
	movq	%rax, (%rsp)
	callq	trace_logger_log_int
	movl	$1, %r10d
	movl	%r10d, %eax
	movl	$64, %r10d
	movl	%r10d, %esi
	movabsq	$.L.str.38, %r8
	xorl	%r10d, %r10d
	movl	%r10d, %r9d
	movabsq	$.L.str.5, %rcx
	movq	%rax, %rdi
	movq	-48(%rbp), %rdx         # 8-byte Reload
	movq	%rcx, -904(%rbp)        # 8-byte Spill
	movq	%rax, %rcx
	movq	-904(%rbp), %rax        # 8-byte Reload
	movq	%rax, (%rsp)
	callq	trace_logger_log_ptr
	movl	$19134, %r10d           # imm = 0x4ABE
	movl	%r10d, %edi
	movl	$64, %r10d
	movl	%r10d, %esi
	movl	$1, %r10d
	movl	%r10d, %ecx
	movabsq	$.L.str.37, %r8
	xorl	%r10d, %r10d
	movl	%r10d, %r9d
	movabsq	$.L.str.5, %rax
	movq	-808(%rbp), %rdx        # 8-byte Reload
	shlq	$2, %rdx
	movq	-48(%rbp), %r11         # 8-byte Reload
	addq	%rdx, %r11
	movq	%r11, %rdx
	movq	%rax, (%rsp)
	movq	%r11, -912(%rbp)        # 8-byte Spill
	callq	trace_logger_log_ptr
	movl	$24, %r10d
	movl	%r10d, %edi
	movabsq	$.L.str.1, %rsi
	movabsq	$.L.str.27, %rdx
	movabsq	$.L.str.39, %rcx
	movl	$30, %r10d
	movl	%r10d, %r8d
	xorl	%r9d, %r9d
	movl	$1, %r10d
	movl	$1, (%rsp)
	movl	%r10d, -916(%rbp)       # 4-byte Spill
	callq	trace_logger_log0
	movl	$1, %r9d
	movl	%r9d, %eax
	movl	$64, %r9d
	movl	%r9d, %esi
	movabsq	$.L.str.37, %r8
	xorl	%r9d, %r9d
                                        # kill: def %r9 killed %r9d
	movabsq	$.L.str.5, %rcx
	movq	%rax, %rdi
	movq	-912(%rbp), %rdx        # 8-byte Reload
	movq	%rcx, -928(%rbp)        # 8-byte Spill
	movq	%rax, %rcx
	movq	-928(%rbp), %rax        # 8-byte Reload
	movq	%rax, (%rsp)
	callq	trace_logger_log_ptr
	movl	$19134, %r10d           # imm = 0x4ABE
	movl	%r10d, %edi
	movl	$32, %r10d
	movl	%r10d, %esi
	movl	$1, %r10d
	movl	%r10d, %ecx
	movabsq	$.L.str.39, %r8
	xorl	%r10d, %r10d
	movl	%r10d, %r9d
	movabsq	$.L.str.5, %rax
	movq	-48(%rbp), %rdx         # 8-byte Reload
	movq	-808(%rbp), %r11        # 8-byte Reload
	movl	(%rdx,%r11,4), %r10d
	.loc	1 24 4 is_stmt 0        # fft.c:24:4
	movl	%r10d, %ebx
	movl	%ebx, %edx
	movq	%rax, (%rsp)
	movl	%r10d, -932(%rbp)       # 4-byte Spill
	callq	trace_logger_log_int
	movl	$24, %r10d
	movl	%r10d, %edi
	movabsq	$.L.str.1, %rsi
	movabsq	$.L.str.27, %rdx
	movabsq	$.L.str.40, %rcx
	movl	$32, %r10d
	movl	%r10d, %r8d
	xorl	%r9d, %r9d
	movl	$1, %r10d
	movl	$1, (%rsp)
	movl	%r10d, -936(%rbp)       # 4-byte Spill
	callq	trace_logger_log0
	movl	$2, %r9d
	movl	%r9d, %edi
	movl	$64, %r9d
	movl	%r9d, %esi
	movl	$1, %r9d
	movl	%r9d, %ecx
	movabsq	$.L.str.28, %r8
	xorl	%r9d, %r9d
                                        # kill: def %r9 killed %r9d
	movabsq	$.L.str.5, %rax
	movq	-728(%rbp), %rdx        # 8-byte Reload
	movq	%rax, (%rsp)
	callq	trace_logger_log_int
	movl	$1, %r10d
	movl	%r10d, %eax
	movl	$64, %r10d
	movl	%r10d, %esi
	movabsq	$.L.str.8, %r8
	xorl	%r10d, %r10d
	movl	%r10d, %r9d
	movabsq	$.L.str.5, %rcx
	movq	%rax, %rdi
	movq	-120(%rbp), %rdx        # 8-byte Reload
	movq	%rcx, -944(%rbp)        # 8-byte Spill
	movq	%rax, %rcx
	movq	-944(%rbp), %rax        # 8-byte Reload
	movq	%rax, (%rsp)
	callq	trace_logger_log_ptr
	movl	$19134, %r10d           # imm = 0x4ABE
	movl	%r10d, %edi
	movl	$64, %r10d
	movl	%r10d, %esi
	movl	$1, %r10d
	movl	%r10d, %ecx
	movabsq	$.L.str.40, %r8
	xorl	%r10d, %r10d
	movl	%r10d, %r9d
	movabsq	$.L.str.5, %rax
	movq	-728(%rbp), %rdx        # 8-byte Reload
	shlq	$2, %rdx
	movq	-120(%rbp), %r11        # 8-byte Reload
	addq	%rdx, %r11
	.loc	1 24 14                 # fft.c:24:14
	movq	%r11, %rdx
	movq	%rax, (%rsp)
	movq	%r11, -952(%rbp)        # 8-byte Spill
	callq	trace_logger_log_ptr
	movl	$24, %r10d
	movl	%r10d, %edi
	movabsq	$.L.str.1, %rsi
	movabsq	$.L.str.27, %rdx
	movabsq	$.L.str.41, %rcx
	movl	$31, %r10d
	movl	%r10d, %r8d
	xorl	%r9d, %r9d
	movl	$1, %r10d
	movl	$1, (%rsp)
	movl	%r10d, -956(%rbp)       # 4-byte Spill
	callq	trace_logger_log0
	movl	$2, %r9d
	movl	%r9d, %edi
	movl	$64, %r9d
	movl	%r9d, %esi
	movl	$1, %r9d
	movl	%r9d, %ecx
	movabsq	$.L.str.40, %r8
	xorl	%r9d, %r9d
                                        # kill: def %r9 killed %r9d
	movabsq	$.L.str.5, %rax
	movq	-952(%rbp), %rdx        # 8-byte Reload
	movq	%rax, (%rsp)
	callq	trace_logger_log_ptr
	movl	$1, %r10d
	movl	%r10d, %eax
	movl	$32, %r10d
	movl	%r10d, %esi
	movabsq	$.L.str.39, %r8
	xorl	%r10d, %r10d
	movl	%r10d, %r9d
	movabsq	$.L.str.5, %rcx
	movl	-932(%rbp), %r10d       # 4-byte Reload
	movl	%r10d, %ebx
	movl	%ebx, %edx
	movq	%rax, %rdi
	movq	%rcx, -968(%rbp)        # 8-byte Spill
	movq	%rax, %rcx
	movq	-968(%rbp), %rax        # 8-byte Reload
	movq	%rax, (%rsp)
	callq	trace_logger_log_int
	movl	$22, %r10d
	movl	%r10d, %edi
	movabsq	$.L.str.1, %rsi
	movabsq	$.L.str.27, %rdx
	movabsq	$.L.str.29, %rcx
	movl	$11, %r10d
	movl	%r10d, %r8d
	xorl	%r9d, %r9d
	movl	$1, %r10d
	movq	-120(%rbp), %rax        # 8-byte Reload
	movq	-728(%rbp), %r11        # 8-byte Reload
	movl	-932(%rbp), %ebx        # 4-byte Reload
	movl	%ebx, (%rax,%r11,4)
.Ltmp7:
	.loc	1 22 26 is_stmt 1       # fft.c:22:26
	movl	$1, (%rsp)
	movl	%r10d, -972(%rbp)       # 4-byte Spill
	callq	trace_logger_log0
	movl	$2, %r9d
	movl	%r9d, %edi
	movl	$64, %r9d
	movl	%r9d, %esi
	movl	$1, %r9d
	movl	%r9d, %edx
	xorl	%r9d, %r9d
	movl	%r9d, %eax
	movabsq	$.L.str.4, %r8
	movabsq	$.L.str.5, %rcx
	movq	%rcx, -984(%rbp)        # 8-byte Spill
	movq	%rax, %rcx
	movq	%rax, %r9
	movq	-984(%rbp), %rax        # 8-byte Reload
	movq	%rax, (%rsp)
	callq	trace_logger_log_int
	movl	$1, %r10d
	movl	%r10d, %eax
	movl	$64, %r10d
	movl	%r10d, %esi
	movabsq	$.L.str.28, %r8
	xorl	%r10d, %r10d
	movl	%r10d, %r9d
	movabsq	$.L.str.5, %rcx
	movq	%rax, %rdi
	movq	-728(%rbp), %rdx        # 8-byte Reload
	movq	%rcx, -992(%rbp)        # 8-byte Spill
	movq	%rax, %rcx
	movq	-992(%rbp), %rax        # 8-byte Reload
	movq	%rax, (%rsp)
	callq	trace_logger_log_int
	movl	$19134, %r10d           # imm = 0x4ABE
	movl	%r10d, %edi
	movl	$64, %r10d
	movl	%r10d, %esi
	movl	$1, %r10d
	movl	%r10d, %ecx
	movabsq	$.L.str.29, %r8
	xorl	%r10d, %r10d
	movl	%r10d, %r9d
	movabsq	$.L.str.5, %rax
	movq	-728(%rbp), %rdx        # 8-byte Reload
	addq	$1, %rdx
	.loc	1 22 22 is_stmt 0       # fft.c:22:22
	movq	%rdx, -1000(%rbp)       # 8-byte Spill
	movq	%rax, (%rsp)
	callq	trace_logger_log_int
	movl	$22, %r10d
	movl	%r10d, %edi
	movabsq	$.L.str.1, %rsi
	movabsq	$.L.str.27, %rdx
	movabsq	$.L.str.42, %rcx
	movl	$51, %r10d
	movl	%r10d, %r8d
	xorl	%r9d, %r9d
	movl	$1, %r10d
	movl	$1, (%rsp)
	movl	%r10d, -1004(%rbp)      # 4-byte Spill
	callq	trace_logger_log0
	movl	$2, %r9d
	movl	%r9d, %edi
	movl	$64, %r9d
	movl	%r9d, %esi
	movl	$8, %r9d
	movl	%r9d, %edx
	xorl	%r9d, %r9d
	movl	%r9d, %eax
	movabsq	$.L.str.4, %r8
	movabsq	$.L.str.5, %rcx
	movq	%rcx, -1016(%rbp)       # 8-byte Spill
	movq	%rax, %rcx
	movq	%rax, %r9
	movq	-1016(%rbp), %rax       # 8-byte Reload
	movq	%rax, (%rsp)
	callq	trace_logger_log_int
	movl	$1, %r10d
	movl	%r10d, %eax
	movl	$64, %r10d
	movl	%r10d, %esi
	movabsq	$.L.str.29, %r8
	xorl	%r10d, %r10d
	movl	%r10d, %r9d
	movabsq	$.L.str.5, %rcx
	movq	%rax, %rdi
	movq	-1000(%rbp), %rdx       # 8-byte Reload
	movq	%rcx, -1024(%rbp)       # 8-byte Spill
	movq	%rax, %rcx
	movq	-1024(%rbp), %rax       # 8-byte Reload
	movq	%rax, (%rsp)
	callq	trace_logger_log_int
	movl	$19134, %r10d           # imm = 0x4ABE
	movl	%r10d, %edi
	movl	$1, %r10d
	movl	%r10d, %eax
	movabsq	$.L.str.42, %r8
	xorl	%r10d, %r10d
	movl	%r10d, %r9d
	movabsq	$.L.str.5, %rcx
	movq	-1000(%rbp), %rdx       # 8-byte Reload
	cmpq	$8, %rdx
	sete	%r14b
.Ltmp8:
	.loc	1 22 10                 # fft.c:22:10
	movb	%r14b, %r15b
	andb	$1, %r15b
	movzbl	%r15b, %r10d
	movl	%r10d, %edx
	movq	%rax, %rsi
	movq	%rcx, -1032(%rbp)       # 8-byte Spill
	movq	%rax, %rcx
	movq	-1032(%rbp), %rax       # 8-byte Reload
	movq	%rax, (%rsp)
	movb	%r14b, -1033(%rbp)      # 1-byte Spill
	callq	trace_logger_log_int
	movl	$22, %r10d
	movl	%r10d, %edi
	movabsq	$.L.str.1, %rsi
	movabsq	$.L.str.27, %rdx
	movabsq	$.L.str.43, %rcx
	movl	$2, %r10d
	movl	%r10d, %r8d
	xorl	%r9d, %r9d
	movl	$1, %r10d
	movl	$1, (%rsp)
	movl	%r10d, -1040(%rbp)      # 4-byte Spill
	callq	trace_logger_log0
	movl	$3, %r9d
	movl	%r9d, %edi
	xorl	%r9d, %r9d
	movl	%r9d, %eax
	movl	$1, %r9d
	movl	%r9d, %ecx
	movabsq	$.L.str.44, %r8
	movabsq	$.L.str.5, %rdx
	movq	%rax, %rsi
	movq	%rdx, -1048(%rbp)       # 8-byte Spill
	movq	%rax, %rdx
	movq	%rax, %r9
	movq	-1048(%rbp), %rax       # 8-byte Reload
	movq	%rax, (%rsp)
	callq	trace_logger_log_int
	movl	$2, %r10d
	movl	%r10d, %edi
	xorl	%r10d, %r10d
	movl	%r10d, %eax
	movl	$1, %r10d
	movl	%r10d, %ecx
	movabsq	$.L.str.27, %r8
	movabsq	$.L.str.5, %rdx
	movq	%rax, %rsi
	movq	%rdx, -1056(%rbp)       # 8-byte Spill
	movq	%rax, %rdx
	movq	%rax, %r9
	movq	-1056(%rbp), %rax       # 8-byte Reload
	movq	%rax, (%rsp)
	callq	trace_logger_log_int
	movl	$1, %r10d
	movl	%r10d, %eax
	movabsq	$.L.str.42, %r8
	xorl	%r10d, %r10d
	movl	%r10d, %r9d
	movabsq	$.L.str.5, %rcx
	movb	-1033(%rbp), %r14b      # 1-byte Reload
	andb	$1, %r14b
	movzbl	%r14b, %r10d
	movl	%r10d, %edx
	movq	%rax, %rdi
	movq	%rax, %rsi
	movq	%rcx, -1064(%rbp)       # 8-byte Spill
	movq	%rax, %rcx
	movq	-1064(%rbp), %rax       # 8-byte Reload
	movq	%rax, (%rsp)
	callq	trace_logger_log_int
	movb	-1033(%rbp), %r14b      # 1-byte Reload
	testb	$1, %r14b
	movq	-1000(%rbp), %rax       # 8-byte Reload
	movq	%rax, -720(%rbp)        # 8-byte Spill
	jne	.LBB0_3
	jmp	.LBB0_2
.Ltmp9:
.LBB0_3:                                #   in Loop: Header=BB0_1 Depth=1
	#DEBUG_VALUE: step1:i <- [DW_OP_constu 728, DW_OP_minus] [%rbp+0]
	#DEBUG_VALUE: step1:tid <- [DW_OP_constu 664, DW_OP_minus] [%rbp+0]
	#DEBUG_VALUE: step1:cos_512 <- [DW_OP_constu 56, DW_OP_minus] [%rbp+0]
	#DEBUG_VALUE: step1:sin_512 <- [DW_OP_constu 160, DW_OP_minus] [%rbp+0]
	#DEBUG_VALUE: step1:cos_64 <- [DW_OP_constu 136, DW_OP_minus] [%rbp+0]
	#DEBUG_VALUE: step1:sin_64 <- [DW_OP_constu 144, DW_OP_minus] [%rbp+0]
	#DEBUG_VALUE: step1:reversed <- [DW_OP_constu 152, DW_OP_minus] [%rbp+0]
	#DEBUG_VALUE: step1:smem <- [DW_OP_constu 128, DW_OP_minus] [%rbp+0]
	#DEBUG_VALUE: step1:data_y <- [DW_OP_constu 120, DW_OP_minus] [%rbp+0]
	#DEBUG_VALUE: step1:data_x <- [DW_OP_constu 112, DW_OP_minus] [%rbp+0]
	#DEBUG_VALUE: step1:DATA_y <- [DW_OP_constu 104, DW_OP_minus] [%rbp+0]
	#DEBUG_VALUE: step1:DATA_x <- [DW_OP_constu 96, DW_OP_minus] [%rbp+0]
	#DEBUG_VALUE: step1:work_y <- [DW_OP_constu 48, DW_OP_minus] [%rbp+0]
	#DEBUG_VALUE: step1:work_x <- [DW_OP_constu 80, DW_OP_minus] [%rbp+0]
	.loc	1 0 10                  # fft.c:0:10
	movl	$26, %eax
	movl	%eax, %edi
	movabsq	$.L.str.1, %rsi
	movabsq	$.L.str.44, %rdx
	movabsq	$.L.str.45, %rcx
	movl	$30, %eax
	movl	%eax, %r8d
	xorl	%r9d, %r9d
	movl	$1, %eax
.Ltmp10:
	#DEBUG_VALUE: exp_1_8_x <- 1
	#DEBUG_VALUE: exp_1_8_y <- 4294967295
	#DEBUG_VALUE: exp_1_4_x <- 0
	#DEBUG_VALUE: exp_1_4_y <- 4294967295
	#DEBUG_VALUE: exp_3_8_x <- 4294967295
	#DEBUG_VALUE: exp_3_8_y <- 4294967295
	.loc	1 26 3 is_stmt 1        # fft.c:26:3
	movl	$1, (%rsp)
	movl	%eax, -1068(%rbp)       # 4-byte Spill
	callq	trace_logger_log0
	movl	$1, %eax
	movl	%eax, %ecx
	movl	$64, %eax
	movl	%eax, %esi
	movabsq	$.L.str.6, %r8
	xorl	%eax, %eax
	movl	%eax, %r9d
	movabsq	$.L.str.5, %rdx
	movq	%rcx, %rdi
	movq	-112(%rbp), %r10        # 8-byte Reload
	movq	%rdx, -1080(%rbp)       # 8-byte Spill
	movq	%r10, %rdx
	movq	-1080(%rbp), %r11       # 8-byte Reload
	movq	%r11, (%rsp)
	callq	trace_logger_log_ptr
	movl	$19134, %eax            # imm = 0x4ABE
	movl	%eax, %edi
	movl	$32, %eax
	movl	%eax, %esi
	movl	$1, %eax
	movl	%eax, %ecx
	movabsq	$.L.str.45, %r8
	xorl	%eax, %eax
	movl	%eax, %r9d
	movabsq	$.L.str.5, %rdx
	movq	-112(%rbp), %r10        # 8-byte Reload
	movl	(%r10), %eax
	movl	%eax, %ebx
	movl	%ebx, %r11d
	movq	%rdx, -1088(%rbp)       # 8-byte Spill
	movq	%r11, %rdx
	movq	-1088(%rbp), %r11       # 8-byte Reload
	movq	%r11, (%rsp)
	movl	%eax, -1092(%rbp)       # 4-byte Spill
	callq	trace_logger_log_int
	movl	$26, %eax
	movl	%eax, %edi
	movabsq	$.L.str.1, %rsi
	movabsq	$.L.str.44, %rdx
	movabsq	$.L.str.46, %rcx
	movl	$30, %eax
	movl	%eax, %r8d
	xorl	%r9d, %r9d
	movl	$1, %eax
.Ltmp11:
	#DEBUG_VALUE: c0_x <- [DW_OP_constu 1092, DW_OP_minus] [%rbp+0]
	movl	$1, (%rsp)
	movl	%eax, -1096(%rbp)       # 4-byte Spill
	callq	trace_logger_log0
	movl	$1, %eax
	movl	%eax, %ecx
	movl	$64, %eax
	movl	%eax, %esi
	movabsq	$.L.str.8, %r8
	xorl	%eax, %eax
	movl	%eax, %r9d
	movabsq	$.L.str.5, %rdx
	movq	%rcx, %rdi
	movq	-120(%rbp), %r10        # 8-byte Reload
	movq	%rdx, -1104(%rbp)       # 8-byte Spill
	movq	%r10, %rdx
	movq	-1104(%rbp), %r11       # 8-byte Reload
	movq	%r11, (%rsp)
	callq	trace_logger_log_ptr
	movl	$19134, %eax            # imm = 0x4ABE
	movl	%eax, %edi
	movl	$32, %eax
	movl	%eax, %esi
	movl	$1, %eax
	movl	%eax, %ecx
	movabsq	$.L.str.46, %r8
	xorl	%eax, %eax
	movl	%eax, %r9d
	movabsq	$.L.str.5, %rdx
	movq	-120(%rbp), %r10        # 8-byte Reload
	movl	(%r10), %eax
	movl	%eax, %ebx
	movl	%ebx, %r11d
	movq	%rdx, -1112(%rbp)       # 8-byte Spill
	movq	%r11, %rdx
	movq	-1112(%rbp), %r11       # 8-byte Reload
	movq	%r11, (%rsp)
	movl	%eax, -1116(%rbp)       # 4-byte Spill
	callq	trace_logger_log_int
	movl	$26, %eax
	movl	%eax, %edi
	movabsq	$.L.str.1, %rsi
	movabsq	$.L.str.44, %rdx
	movabsq	$.L.str.47, %rcx
	movl	$30, %eax
	movl	%eax, %r8d
	xorl	%r9d, %r9d
	movl	$1, %eax
.Ltmp12:
	#DEBUG_VALUE: c0_y <- [DW_OP_constu 1116, DW_OP_minus] [%rbp+0]
	movl	$1, (%rsp)
	movl	%eax, -1120(%rbp)       # 4-byte Spill
	callq	trace_logger_log0
	movl	$1, %eax
	movl	%eax, %ecx
	movl	$64, %eax
	movl	%eax, %esi
	movabsq	$.L.str.3, %r8
	xorl	%eax, %eax
	movl	%eax, %r9d
	movabsq	$.L.str.5, %rdx
	movq	%rcx, %rdi
	movq	-192(%rbp), %r10        # 8-byte Reload
	movq	%rdx, -1128(%rbp)       # 8-byte Spill
	movq	%r10, %rdx
	movq	-1128(%rbp), %r11       # 8-byte Reload
	movq	%r11, (%rsp)
	callq	trace_logger_log_ptr
	movl	$19134, %eax            # imm = 0x4ABE
	movl	%eax, %edi
	movl	$32, %eax
	movl	%eax, %esi
	movl	$1, %eax
	movl	%eax, %ecx
	movabsq	$.L.str.47, %r8
	xorl	%eax, %eax
	movl	%eax, %r9d
	movabsq	$.L.str.5, %rdx
	movq	-192(%rbp), %r10        # 8-byte Reload
	movl	(%r10), %eax
	movl	%eax, %ebx
	movl	%ebx, %r11d
	movq	%rdx, -1136(%rbp)       # 8-byte Spill
	movq	%r11, %rdx
	movq	-1136(%rbp), %r11       # 8-byte Reload
	movq	%r11, (%rsp)
	movl	%eax, -1140(%rbp)       # 4-byte Spill
	callq	trace_logger_log_int
	movl	$26, %eax
	movl	%eax, %edi
	movabsq	$.L.str.1, %rsi
	movabsq	$.L.str.44, %rdx
	movabsq	$.L.str.48, %rcx
	movl	$11, %eax
	movl	%eax, %r8d
	xorl	%r9d, %r9d
	movl	$1, %eax
	movl	$1, (%rsp)
	movl	%eax, -1144(%rbp)       # 4-byte Spill
	callq	trace_logger_log0
	movl	$2, %eax
	movl	%eax, %edi
	movl	$32, %eax
	movl	%eax, %esi
	movl	$1, %eax
	movl	%eax, %ecx
	movabsq	$.L.str.45, %r8
	xorl	%eax, %eax
	movl	%eax, %r9d
	movabsq	$.L.str.5, %rdx
	movl	-1092(%rbp), %eax       # 4-byte Reload
	movl	%eax, %ebx
	movl	%ebx, %r10d
	movq	%rdx, -1152(%rbp)       # 8-byte Spill
	movq	%r10, %rdx
	movq	-1152(%rbp), %r10       # 8-byte Reload
	movq	%r10, (%rsp)
	callq	trace_logger_log_int
	movl	$1, %eax
	movl	%eax, %ecx
	movl	$32, %eax
	movl	%eax, %esi
	movabsq	$.L.str.47, %r8
	xorl	%eax, %eax
	movl	%eax, %r9d
	movabsq	$.L.str.5, %rdx
	movl	-1140(%rbp), %eax       # 4-byte Reload
	movl	%eax, %ebx
	movl	%ebx, %edi
	movq	%rdi, -1160(%rbp)       # 8-byte Spill
	movq	%rcx, %rdi
	movq	-1160(%rbp), %r10       # 8-byte Reload
	movq	%rdx, -1168(%rbp)       # 8-byte Spill
	movq	%r10, %rdx
	movq	-1168(%rbp), %r11       # 8-byte Reload
	movq	%r11, (%rsp)
	callq	trace_logger_log_int
	movl	$19134, %eax            # imm = 0x4ABE
	movl	%eax, %edi
	movl	$32, %eax
	movl	%eax, %esi
	movl	$1, %eax
	movl	%eax, %ecx
	movabsq	$.L.str.48, %r8
	xorl	%eax, %eax
	movl	%eax, %r9d
	movabsq	$.L.str.5, %rdx
	movl	-1140(%rbp), %eax       # 4-byte Reload
	movl	-1092(%rbp), %ebx       # 4-byte Reload
	addl	%ebx, %eax
	movl	%eax, %r14d
	movl	%r14d, %r10d
	movq	%rdx, -1176(%rbp)       # 8-byte Spill
	movq	%r10, %rdx
	movq	-1176(%rbp), %r10       # 8-byte Reload
	movq	%r10, (%rsp)
	movl	%eax, -1180(%rbp)       # 4-byte Spill
	callq	trace_logger_log_int
	movl	$26, %eax
	movl	%eax, %edi
	movabsq	$.L.str.1, %rsi
	movabsq	$.L.str.44, %rdx
	movabsq	$.L.str.49, %rcx
	movl	$31, %eax
	movl	%eax, %r8d
	xorl	%r9d, %r9d
	movl	$1, %eax
	movl	$1, (%rsp)
	movl	%eax, -1184(%rbp)       # 4-byte Spill
	callq	trace_logger_log0
	movl	$2, %eax
	movl	%eax, %edi
	movl	$64, %eax
	movl	%eax, %esi
	movl	$1, %eax
	movl	%eax, %ecx
	movabsq	$.L.str.6, %r8
	xorl	%eax, %eax
	movl	%eax, %r9d
	movabsq	$.L.str.5, %rdx
	movq	-112(%rbp), %r10        # 8-byte Reload
	movq	%rdx, -1192(%rbp)       # 8-byte Spill
	movq	%r10, %rdx
	movq	-1192(%rbp), %r11       # 8-byte Reload
	movq	%r11, (%rsp)
	callq	trace_logger_log_ptr
	movl	$1, %eax
	movl	%eax, %ecx
	movl	$32, %eax
	movl	%eax, %esi
	movabsq	$.L.str.48, %r8
	xorl	%eax, %eax
	movl	%eax, %r9d
	movabsq	$.L.str.5, %rdx
	movl	-1180(%rbp), %eax       # 4-byte Reload
	movl	%eax, %ebx
	movl	%ebx, %edi
	movq	%rdi, -1200(%rbp)       # 8-byte Spill
	movq	%rcx, %rdi
	movq	-1200(%rbp), %r10       # 8-byte Reload
	movq	%rdx, -1208(%rbp)       # 8-byte Spill
	movq	%r10, %rdx
	movq	-1208(%rbp), %r11       # 8-byte Reload
	movq	%r11, (%rsp)
	callq	trace_logger_log_int
	movl	$26, %eax
	movl	%eax, %edi
	movabsq	$.L.str.1, %rsi
	movabsq	$.L.str.44, %rdx
	movabsq	$.L.str.50, %rcx
	movl	$30, %eax
	movl	%eax, %r8d
	xorl	%r9d, %r9d
	movl	$1, %eax
	movq	-112(%rbp), %r10        # 8-byte Reload
	movl	-1180(%rbp), %ebx       # 4-byte Reload
	movl	%ebx, (%r10)
	movl	$1, (%rsp)
	movl	%eax, -1212(%rbp)       # 4-byte Spill
	callq	trace_logger_log0
	movl	$1, %eax
	movl	%eax, %ecx
	movl	$64, %eax
	movl	%eax, %esi
	movabsq	$.L.str.7, %r8
	xorl	%eax, %eax
	movl	%eax, %r9d
	movabsq	$.L.str.5, %rdx
	movq	%rcx, %rdi
	movq	-224(%rbp), %r10        # 8-byte Reload
	movq	%rdx, -1224(%rbp)       # 8-byte Spill
	movq	%r10, %rdx
	movq	-1224(%rbp), %r11       # 8-byte Reload
	movq	%r11, (%rsp)
	callq	trace_logger_log_ptr
	movl	$19134, %eax            # imm = 0x4ABE
	movl	%eax, %edi
	movl	$32, %eax
	movl	%eax, %esi
	movl	$1, %eax
	movl	%eax, %ecx
	movabsq	$.L.str.50, %r8
	xorl	%eax, %eax
	movl	%eax, %r9d
	movabsq	$.L.str.5, %rdx
	movq	-224(%rbp), %r10        # 8-byte Reload
	movl	(%r10), %eax
	movl	%eax, %ebx
	movl	%ebx, %r11d
	movq	%rdx, -1232(%rbp)       # 8-byte Spill
	movq	%r11, %rdx
	movq	-1232(%rbp), %r11       # 8-byte Reload
	movq	%r11, (%rsp)
	movl	%eax, -1236(%rbp)       # 4-byte Spill
	callq	trace_logger_log_int
	movl	$26, %eax
	movl	%eax, %edi
	movabsq	$.L.str.1, %rsi
	movabsq	$.L.str.44, %rdx
	movabsq	$.L.str.51, %rcx
	movl	$11, %eax
	movl	%eax, %r8d
	xorl	%r9d, %r9d
	movl	$1, %eax
	movl	$1, (%rsp)
	movl	%eax, -1240(%rbp)       # 4-byte Spill
	callq	trace_logger_log0
	movl	$2, %eax
	movl	%eax, %edi
	movl	$32, %eax
	movl	%eax, %esi
	movl	$1, %eax
	movl	%eax, %ecx
	movabsq	$.L.str.46, %r8
	xorl	%eax, %eax
	movl	%eax, %r9d
	movabsq	$.L.str.5, %rdx
	movl	-1116(%rbp), %eax       # 4-byte Reload
	movl	%eax, %ebx
	movl	%ebx, %r10d
	movq	%rdx, -1248(%rbp)       # 8-byte Spill
	movq	%r10, %rdx
	movq	-1248(%rbp), %r10       # 8-byte Reload
	movq	%r10, (%rsp)
	callq	trace_logger_log_int
	movl	$1, %eax
	movl	%eax, %ecx
	movl	$32, %eax
	movl	%eax, %esi
	movabsq	$.L.str.50, %r8
	xorl	%eax, %eax
	movl	%eax, %r9d
	movabsq	$.L.str.5, %rdx
	movl	-1236(%rbp), %eax       # 4-byte Reload
	movl	%eax, %ebx
	movl	%ebx, %edi
	movq	%rdi, -1256(%rbp)       # 8-byte Spill
	movq	%rcx, %rdi
	movq	-1256(%rbp), %r10       # 8-byte Reload
	movq	%rdx, -1264(%rbp)       # 8-byte Spill
	movq	%r10, %rdx
	movq	-1264(%rbp), %r11       # 8-byte Reload
	movq	%r11, (%rsp)
	callq	trace_logger_log_int
	movl	$19134, %eax            # imm = 0x4ABE
	movl	%eax, %edi
	movl	$32, %eax
	movl	%eax, %esi
	movl	$1, %eax
	movl	%eax, %ecx
	movabsq	$.L.str.51, %r8
	xorl	%eax, %eax
	movl	%eax, %r9d
	movabsq	$.L.str.5, %rdx
	movl	-1236(%rbp), %eax       # 4-byte Reload
	movl	-1116(%rbp), %ebx       # 4-byte Reload
	addl	%ebx, %eax
	movl	%eax, %r14d
	movl	%r14d, %r10d
	movq	%rdx, -1272(%rbp)       # 8-byte Spill
	movq	%r10, %rdx
	movq	-1272(%rbp), %r10       # 8-byte Reload
	movq	%r10, (%rsp)
	movl	%eax, -1276(%rbp)       # 4-byte Spill
	callq	trace_logger_log_int
	movl	$26, %eax
	movl	%eax, %edi
	movabsq	$.L.str.1, %rsi
	movabsq	$.L.str.44, %rdx
	movabsq	$.L.str.52, %rcx
	movl	$31, %eax
	movl	%eax, %r8d
	xorl	%r9d, %r9d
	movl	$1, %eax
	movl	$1, (%rsp)
	movl	%eax, -1280(%rbp)       # 4-byte Spill
	callq	trace_logger_log0
	movl	$2, %eax
	movl	%eax, %edi
	movl	$64, %eax
	movl	%eax, %esi
	movl	$1, %eax
	movl	%eax, %ecx
	movabsq	$.L.str.8, %r8
	xorl	%eax, %eax
	movl	%eax, %r9d
	movabsq	$.L.str.5, %rdx
	movq	-120(%rbp), %r10        # 8-byte Reload
	movq	%rdx, -1288(%rbp)       # 8-byte Spill
	movq	%r10, %rdx
	movq	-1288(%rbp), %r11       # 8-byte Reload
	movq	%r11, (%rsp)
	callq	trace_logger_log_ptr
	movl	$1, %eax
	movl	%eax, %ecx
	movl	$32, %eax
	movl	%eax, %esi
	movabsq	$.L.str.51, %r8
	xorl	%eax, %eax
	movl	%eax, %r9d
	movabsq	$.L.str.5, %rdx
	movl	-1276(%rbp), %eax       # 4-byte Reload
	movl	%eax, %ebx
	movl	%ebx, %edi
	movq	%rdi, -1296(%rbp)       # 8-byte Spill
	movq	%rcx, %rdi
	movq	-1296(%rbp), %r10       # 8-byte Reload
	movq	%rdx, -1304(%rbp)       # 8-byte Spill
	movq	%r10, %rdx
	movq	-1304(%rbp), %r11       # 8-byte Reload
	movq	%r11, (%rsp)
	callq	trace_logger_log_int
	movl	$26, %eax
	movl	%eax, %edi
	movabsq	$.L.str.1, %rsi
	movabsq	$.L.str.44, %rdx
	movabsq	$.L.str.53, %rcx
	movl	$30, %eax
	movl	%eax, %r8d
	xorl	%r9d, %r9d
	movl	$1, %eax
	movq	-120(%rbp), %r10        # 8-byte Reload
	movl	-1276(%rbp), %ebx       # 4-byte Reload
	movl	%ebx, (%r10)
	movl	$1, (%rsp)
	movl	%eax, -1308(%rbp)       # 4-byte Spill
	callq	trace_logger_log0
	movl	$1, %eax
	movl	%eax, %ecx
	movl	$64, %eax
	movl	%eax, %esi
	movabsq	$.L.str.3, %r8
	xorl	%eax, %eax
	movl	%eax, %r9d
	movabsq	$.L.str.5, %rdx
	movq	%rcx, %rdi
	movq	-192(%rbp), %r10        # 8-byte Reload
	movq	%rdx, -1320(%rbp)       # 8-byte Spill
	movq	%r10, %rdx
	movq	-1320(%rbp), %r11       # 8-byte Reload
	movq	%r11, (%rsp)
	callq	trace_logger_log_ptr
	movl	$19134, %eax            # imm = 0x4ABE
	movl	%eax, %edi
	movl	$32, %eax
	movl	%eax, %esi
	movl	$1, %eax
	movl	%eax, %ecx
	movabsq	$.L.str.53, %r8
	xorl	%eax, %eax
	movl	%eax, %r9d
	movabsq	$.L.str.5, %rdx
	movq	-192(%rbp), %r10        # 8-byte Reload
	movl	(%r10), %eax
	movl	%eax, %ebx
	movl	%ebx, %r11d
	movq	%rdx, -1328(%rbp)       # 8-byte Spill
	movq	%r11, %rdx
	movq	-1328(%rbp), %r11       # 8-byte Reload
	movq	%r11, (%rsp)
	movl	%eax, -1332(%rbp)       # 4-byte Spill
	callq	trace_logger_log_int
	movl	$26, %eax
	movl	%eax, %edi
	movabsq	$.L.str.1, %rsi
	movabsq	$.L.str.44, %rdx
	movabsq	$.L.str.54, %rcx
	movl	$13, %eax
	movl	%eax, %r8d
	xorl	%r9d, %r9d
	movl	$1, %eax
	movl	$1, (%rsp)
	movl	%eax, -1336(%rbp)       # 4-byte Spill
	callq	trace_logger_log0
	movl	$2, %eax
	movl	%eax, %edi
	movl	$32, %eax
	movl	%eax, %esi
	movl	$1, %eax
	movl	%eax, %ecx
	movabsq	$.L.str.53, %r8
	xorl	%eax, %eax
	movl	%eax, %r9d
	movabsq	$.L.str.5, %rdx
	movl	-1332(%rbp), %eax       # 4-byte Reload
	movl	%eax, %ebx
	movl	%ebx, %r10d
	movq	%rdx, -1344(%rbp)       # 8-byte Spill
	movq	%r10, %rdx
	movq	-1344(%rbp), %r10       # 8-byte Reload
	movq	%r10, (%rsp)
	callq	trace_logger_log_int
	movl	$1, %eax
	movl	%eax, %ecx
	movl	$32, %eax
	movl	%eax, %esi
	movabsq	$.L.str.45, %r8
	xorl	%eax, %eax
	movl	%eax, %r9d
	movabsq	$.L.str.5, %rdx
	movl	-1092(%rbp), %eax       # 4-byte Reload
	movl	%eax, %ebx
	movl	%ebx, %edi
	movq	%rdi, -1352(%rbp)       # 8-byte Spill
	movq	%rcx, %rdi
	movq	-1352(%rbp), %r10       # 8-byte Reload
	movq	%rdx, -1360(%rbp)       # 8-byte Spill
	movq	%r10, %rdx
	movq	-1360(%rbp), %r11       # 8-byte Reload
	movq	%r11, (%rsp)
	callq	trace_logger_log_int
	movl	$19134, %eax            # imm = 0x4ABE
	movl	%eax, %edi
	movl	$32, %eax
	movl	%eax, %esi
	movl	$1, %eax
	movl	%eax, %ecx
	movabsq	$.L.str.54, %r8
	xorl	%eax, %eax
	movl	%eax, %r9d
	movabsq	$.L.str.5, %rdx
	movl	-1092(%rbp), %eax       # 4-byte Reload
	movl	-1332(%rbp), %ebx       # 4-byte Reload
	subl	%ebx, %eax
	movl	%eax, %r14d
	movl	%r14d, %r10d
	movq	%rdx, -1368(%rbp)       # 8-byte Spill
	movq	%r10, %rdx
	movq	-1368(%rbp), %r10       # 8-byte Reload
	movq	%r10, (%rsp)
	movl	%eax, -1372(%rbp)       # 4-byte Spill
	callq	trace_logger_log_int
	movl	$26, %eax
	movl	%eax, %edi
	movabsq	$.L.str.1, %rsi
	movabsq	$.L.str.44, %rdx
	movabsq	$.L.str.55, %rcx
	movl	$31, %eax
	movl	%eax, %r8d
	xorl	%r9d, %r9d
	movl	$1, %eax
	movl	$1, (%rsp)
	movl	%eax, -1376(%rbp)       # 4-byte Spill
	callq	trace_logger_log0
	movl	$2, %eax
	movl	%eax, %edi
	movl	$64, %eax
	movl	%eax, %esi
	movl	$1, %eax
	movl	%eax, %ecx
	movabsq	$.L.str.3, %r8
	xorl	%eax, %eax
	movl	%eax, %r9d
	movabsq	$.L.str.5, %rdx
	movq	-192(%rbp), %r10        # 8-byte Reload
	movq	%rdx, -1384(%rbp)       # 8-byte Spill
	movq	%r10, %rdx
	movq	-1384(%rbp), %r11       # 8-byte Reload
	movq	%r11, (%rsp)
	callq	trace_logger_log_ptr
	movl	$1, %eax
	movl	%eax, %ecx
	movl	$32, %eax
	movl	%eax, %esi
	movabsq	$.L.str.54, %r8
	xorl	%eax, %eax
	movl	%eax, %r9d
	movabsq	$.L.str.5, %rdx
	movl	-1372(%rbp), %eax       # 4-byte Reload
	movl	%eax, %ebx
	movl	%ebx, %edi
	movq	%rdi, -1392(%rbp)       # 8-byte Spill
	movq	%rcx, %rdi
	movq	-1392(%rbp), %r10       # 8-byte Reload
	movq	%rdx, -1400(%rbp)       # 8-byte Spill
	movq	%r10, %rdx
	movq	-1400(%rbp), %r11       # 8-byte Reload
	movq	%r11, (%rsp)
	callq	trace_logger_log_int
	movl	$26, %eax
	movl	%eax, %edi
	movabsq	$.L.str.1, %rsi
	movabsq	$.L.str.44, %rdx
	movabsq	$.L.str.56, %rcx
	movl	$30, %eax
	movl	%eax, %r8d
	xorl	%r9d, %r9d
	movl	$1, %eax
	movq	-192(%rbp), %r10        # 8-byte Reload
	movl	-1372(%rbp), %ebx       # 4-byte Reload
	movl	%ebx, (%r10)
	movl	$1, (%rsp)
	movl	%eax, -1404(%rbp)       # 4-byte Spill
	callq	trace_logger_log0
	movl	$1, %eax
	movl	%eax, %ecx
	movl	$64, %eax
	movl	%eax, %esi
	movabsq	$.L.str.7, %r8
	xorl	%eax, %eax
	movl	%eax, %r9d
	movabsq	$.L.str.5, %rdx
	movq	%rcx, %rdi
	movq	-224(%rbp), %r10        # 8-byte Reload
	movq	%rdx, -1416(%rbp)       # 8-byte Spill
	movq	%r10, %rdx
	movq	-1416(%rbp), %r11       # 8-byte Reload
	movq	%r11, (%rsp)
	callq	trace_logger_log_ptr
	movl	$19134, %eax            # imm = 0x4ABE
	movl	%eax, %edi
	movl	$32, %eax
	movl	%eax, %esi
	movl	$1, %eax
	movl	%eax, %ecx
	movabsq	$.L.str.56, %r8
	xorl	%eax, %eax
	movl	%eax, %r9d
	movabsq	$.L.str.5, %rdx
	movq	-224(%rbp), %r10        # 8-byte Reload
	movl	(%r10), %eax
	movl	%eax, %ebx
	movl	%ebx, %r11d
	movq	%rdx, -1424(%rbp)       # 8-byte Spill
	movq	%r11, %rdx
	movq	-1424(%rbp), %r11       # 8-byte Reload
	movq	%r11, (%rsp)
	movl	%eax, -1428(%rbp)       # 4-byte Spill
	callq	trace_logger_log_int
	movl	$26, %eax
	movl	%eax, %edi
	movabsq	$.L.str.1, %rsi
	movabsq	$.L.str.44, %rdx
	movabsq	$.L.str.57, %rcx
	movl	$13, %eax
	movl	%eax, %r8d
	xorl	%r9d, %r9d
	movl	$1, %eax
	movl	$1, (%rsp)
	movl	%eax, -1432(%rbp)       # 4-byte Spill
	callq	trace_logger_log0
	movl	$2, %eax
	movl	%eax, %edi
	movl	$32, %eax
	movl	%eax, %esi
	movl	$1, %eax
	movl	%eax, %ecx
	movabsq	$.L.str.56, %r8
	xorl	%eax, %eax
	movl	%eax, %r9d
	movabsq	$.L.str.5, %rdx
	movl	-1428(%rbp), %eax       # 4-byte Reload
	movl	%eax, %ebx
	movl	%ebx, %r10d
	movq	%rdx, -1440(%rbp)       # 8-byte Spill
	movq	%r10, %rdx
	movq	-1440(%rbp), %r10       # 8-byte Reload
	movq	%r10, (%rsp)
	callq	trace_logger_log_int
	movl	$1, %eax
	movl	%eax, %ecx
	movl	$32, %eax
	movl	%eax, %esi
	movabsq	$.L.str.46, %r8
	xorl	%eax, %eax
	movl	%eax, %r9d
	movabsq	$.L.str.5, %rdx
	movl	-1116(%rbp), %eax       # 4-byte Reload
	movl	%eax, %ebx
	movl	%ebx, %edi
	movq	%rdi, -1448(%rbp)       # 8-byte Spill
	movq	%rcx, %rdi
	movq	-1448(%rbp), %r10       # 8-byte Reload
	movq	%rdx, -1456(%rbp)       # 8-byte Spill
	movq	%r10, %rdx
	movq	-1456(%rbp), %r11       # 8-byte Reload
	movq	%r11, (%rsp)
	callq	trace_logger_log_int
	movl	$19134, %eax            # imm = 0x4ABE
	movl	%eax, %edi
	movl	$32, %eax
	movl	%eax, %esi
	movl	$1, %eax
	movl	%eax, %ecx
	movabsq	$.L.str.57, %r8
	xorl	%eax, %eax
	movl	%eax, %r9d
	movabsq	$.L.str.5, %rdx
	movl	-1116(%rbp), %eax       # 4-byte Reload
	movl	-1428(%rbp), %ebx       # 4-byte Reload
	subl	%ebx, %eax
	movl	%eax, %r14d
	movl	%r14d, %r10d
	movq	%rdx, -1464(%rbp)       # 8-byte Spill
	movq	%r10, %rdx
	movq	-1464(%rbp), %r10       # 8-byte Reload
	movq	%r10, (%rsp)
	movl	%eax, -1468(%rbp)       # 4-byte Spill
	callq	trace_logger_log_int
	movl	$26, %eax
	movl	%eax, %edi
	movabsq	$.L.str.1, %rsi
	movabsq	$.L.str.44, %rdx
	movabsq	$.L.str.58, %rcx
	movl	$31, %eax
	movl	%eax, %r8d
	xorl	%r9d, %r9d
	movl	$1, %eax
	movl	$1, (%rsp)
	movl	%eax, -1472(%rbp)       # 4-byte Spill
	callq	trace_logger_log0
	movl	$2, %eax
	movl	%eax, %edi
	movl	$64, %eax
	movl	%eax, %esi
	movl	$1, %eax
	movl	%eax, %ecx
	movabsq	$.L.str.7, %r8
	xorl	%eax, %eax
	movl	%eax, %r9d
	movabsq	$.L.str.5, %rdx
	movq	-224(%rbp), %r10        # 8-byte Reload
	movq	%rdx, -1480(%rbp)       # 8-byte Spill
	movq	%r10, %rdx
	movq	-1480(%rbp), %r11       # 8-byte Reload
	movq	%r11, (%rsp)
	callq	trace_logger_log_ptr
	movl	$1, %eax
	movl	%eax, %ecx
	movl	$32, %eax
	movl	%eax, %esi
	movabsq	$.L.str.57, %r8
	xorl	%eax, %eax
	movl	%eax, %r9d
	movabsq	$.L.str.5, %rdx
	movl	-1468(%rbp), %eax       # 4-byte Reload
	movl	%eax, %ebx
	movl	%ebx, %edi
	movq	%rdi, -1488(%rbp)       # 8-byte Spill
	movq	%rcx, %rdi
	movq	-1488(%rbp), %r10       # 8-byte Reload
	movq	%rdx, -1496(%rbp)       # 8-byte Spill
	movq	%r10, %rdx
	movq	-1496(%rbp), %r11       # 8-byte Reload
	movq	%r11, (%rsp)
	callq	trace_logger_log_int
	movl	$26, %eax
	movl	%eax, %edi
	movabsq	$.L.str.1, %rsi
	movabsq	$.L.str.44, %rdx
	movabsq	$.L.str.45, %rcx
	movl	$30, %eax
	movl	%eax, %r8d
	xorl	%r9d, %r9d
	movl	$1, %eax
	movq	-224(%rbp), %r10        # 8-byte Reload
	movl	-1468(%rbp), %ebx       # 4-byte Reload
	movl	%ebx, (%r10)
.Ltmp13:
	.loc	1 26 3 is_stmt 0        # fft.c:26:3
	movl	$1, (%rsp)
	movl	%eax, -1500(%rbp)       # 4-byte Spill
	callq	trace_logger_log0
	movl	$1, %eax
	movl	%eax, %ecx
	movl	$64, %eax
	movl	%eax, %esi
	movabsq	$.L.str.9, %r8
	xorl	%eax, %eax
	movl	%eax, %r9d
	movabsq	$.L.str.5, %rdx
	movq	%rcx, %rdi
	movq	-256(%rbp), %r10        # 8-byte Reload
	movq	%rdx, -1512(%rbp)       # 8-byte Spill
	movq	%r10, %rdx
	movq	-1512(%rbp), %r11       # 8-byte Reload
	movq	%r11, (%rsp)
	callq	trace_logger_log_ptr
	movl	$19134, %eax            # imm = 0x4ABE
	movl	%eax, %edi
	movl	$32, %eax
	movl	%eax, %esi
	movl	$1, %eax
	movl	%eax, %ecx
	movabsq	$.L.str.45, %r8
	xorl	%eax, %eax
	movl	%eax, %r9d
	movabsq	$.L.str.5, %rdx
	movq	-256(%rbp), %r10        # 8-byte Reload
	movl	(%r10), %eax
	movl	%eax, %ebx
	movl	%ebx, %r11d
	movq	%rdx, -1520(%rbp)       # 8-byte Spill
	movq	%r11, %rdx
	movq	-1520(%rbp), %r11       # 8-byte Reload
	movq	%r11, (%rsp)
	movl	%eax, -1524(%rbp)       # 4-byte Spill
	callq	trace_logger_log_int
	movl	$26, %eax
	movl	%eax, %edi
	movabsq	$.L.str.1, %rsi
	movabsq	$.L.str.44, %rdx
	movabsq	$.L.str.46, %rcx
	movl	$30, %eax
	movl	%eax, %r8d
	xorl	%r9d, %r9d
	movl	$1, %eax
.Ltmp14:
	#DEBUG_VALUE: c0_x <- [DW_OP_constu 1524, DW_OP_minus] [%rbp+0]
	movl	$1, (%rsp)
	movl	%eax, -1528(%rbp)       # 4-byte Spill
	callq	trace_logger_log0
	movl	$1, %eax
	movl	%eax, %ecx
	movl	$64, %eax
	movl	%eax, %esi
	movabsq	$.L.str.10, %r8
	xorl	%eax, %eax
	movl	%eax, %r9d
	movabsq	$.L.str.5, %rdx
	movq	%rcx, %rdi
	movq	-288(%rbp), %r10        # 8-byte Reload
	movq	%rdx, -1536(%rbp)       # 8-byte Spill
	movq	%r10, %rdx
	movq	-1536(%rbp), %r11       # 8-byte Reload
	movq	%r11, (%rsp)
	callq	trace_logger_log_ptr
	movl	$19134, %eax            # imm = 0x4ABE
	movl	%eax, %edi
	movl	$32, %eax
	movl	%eax, %esi
	movl	$1, %eax
	movl	%eax, %ecx
	movabsq	$.L.str.46, %r8
	xorl	%eax, %eax
	movl	%eax, %r9d
	movabsq	$.L.str.5, %rdx
	movq	-288(%rbp), %r10        # 8-byte Reload
	movl	(%r10), %eax
	movl	%eax, %ebx
	movl	%ebx, %r11d
	movq	%rdx, -1544(%rbp)       # 8-byte Spill
	movq	%r11, %rdx
	movq	-1544(%rbp), %r11       # 8-byte Reload
	movq	%r11, (%rsp)
	movl	%eax, -1548(%rbp)       # 4-byte Spill
	callq	trace_logger_log_int
	movl	$26, %eax
	movl	%eax, %edi
	movabsq	$.L.str.1, %rsi
	movabsq	$.L.str.44, %rdx
	movabsq	$.L.str.59, %rcx
	movl	$30, %eax
	movl	%eax, %r8d
	xorl	%r9d, %r9d
	movl	$1, %eax
.Ltmp15:
	#DEBUG_VALUE: c0_y <- [DW_OP_constu 1548, DW_OP_minus] [%rbp+0]
	movl	$1, (%rsp)
	movl	%eax, -1552(%rbp)       # 4-byte Spill
	callq	trace_logger_log0
	movl	$1, %eax
	movl	%eax, %ecx
	movl	$64, %eax
	movl	%eax, %esi
	movabsq	$.L.str.11, %r8
	xorl	%eax, %eax
	movl	%eax, %r9d
	movabsq	$.L.str.5, %rdx
	movq	%rcx, %rdi
	movq	-320(%rbp), %r10        # 8-byte Reload
	movq	%rdx, -1560(%rbp)       # 8-byte Spill
	movq	%r10, %rdx
	movq	-1560(%rbp), %r11       # 8-byte Reload
	movq	%r11, (%rsp)
	callq	trace_logger_log_ptr
	movl	$19134, %eax            # imm = 0x4ABE
	movl	%eax, %edi
	movl	$32, %eax
	movl	%eax, %esi
	movl	$1, %eax
	movl	%eax, %ecx
	movabsq	$.L.str.59, %r8
	xorl	%eax, %eax
	movl	%eax, %r9d
	movabsq	$.L.str.5, %rdx
	movq	-320(%rbp), %r10        # 8-byte Reload
	movl	(%r10), %eax
	movl	%eax, %ebx
	movl	%ebx, %r11d
	movq	%rdx, -1568(%rbp)       # 8-byte Spill
	movq	%r11, %rdx
	movq	-1568(%rbp), %r11       # 8-byte Reload
	movq	%r11, (%rsp)
	movl	%eax, -1572(%rbp)       # 4-byte Spill
	callq	trace_logger_log_int
	movl	$26, %eax
	movl	%eax, %edi
	movabsq	$.L.str.1, %rsi
	movabsq	$.L.str.44, %rdx
	movabsq	$.L.str.60, %rcx
	movl	$11, %eax
	movl	%eax, %r8d
	xorl	%r9d, %r9d
	movl	$1, %eax
	movl	$1, (%rsp)
	movl	%eax, -1576(%rbp)       # 4-byte Spill
	callq	trace_logger_log0
	movl	$2, %eax
	movl	%eax, %edi
	movl	$32, %eax
	movl	%eax, %esi
	movl	$1, %eax
	movl	%eax, %ecx
	movabsq	$.L.str.45, %r8
	xorl	%eax, %eax
	movl	%eax, %r9d
	movabsq	$.L.str.5, %rdx
	movl	-1524(%rbp), %eax       # 4-byte Reload
	movl	%eax, %ebx
	movl	%ebx, %r10d
	movq	%rdx, -1584(%rbp)       # 8-byte Spill
	movq	%r10, %rdx
	movq	-1584(%rbp), %r10       # 8-byte Reload
	movq	%r10, (%rsp)
	callq	trace_logger_log_int
	movl	$1, %eax
	movl	%eax, %ecx
	movl	$32, %eax
	movl	%eax, %esi
	movabsq	$.L.str.59, %r8
	xorl	%eax, %eax
	movl	%eax, %r9d
	movabsq	$.L.str.5, %rdx
	movl	-1572(%rbp), %eax       # 4-byte Reload
	movl	%eax, %ebx
	movl	%ebx, %edi
	movq	%rdi, -1592(%rbp)       # 8-byte Spill
	movq	%rcx, %rdi
	movq	-1592(%rbp), %r10       # 8-byte Reload
	movq	%rdx, -1600(%rbp)       # 8-byte Spill
	movq	%r10, %rdx
	movq	-1600(%rbp), %r11       # 8-byte Reload
	movq	%r11, (%rsp)
	callq	trace_logger_log_int
	movl	$19134, %eax            # imm = 0x4ABE
	movl	%eax, %edi
	movl	$32, %eax
	movl	%eax, %esi
	movl	$1, %eax
	movl	%eax, %ecx
	movabsq	$.L.str.60, %r8
	xorl	%eax, %eax
	movl	%eax, %r9d
	movabsq	$.L.str.5, %rdx
	movl	-1572(%rbp), %eax       # 4-byte Reload
	movl	-1524(%rbp), %ebx       # 4-byte Reload
	addl	%ebx, %eax
	movl	%eax, %r14d
	movl	%r14d, %r10d
	movq	%rdx, -1608(%rbp)       # 8-byte Spill
	movq	%r10, %rdx
	movq	-1608(%rbp), %r10       # 8-byte Reload
	movq	%r10, (%rsp)
	movl	%eax, -1612(%rbp)       # 4-byte Spill
	callq	trace_logger_log_int
	movl	$26, %eax
	movl	%eax, %edi
	movabsq	$.L.str.1, %rsi
	movabsq	$.L.str.44, %rdx
	movabsq	$.L.str.61, %rcx
	movl	$31, %eax
	movl	%eax, %r8d
	xorl	%r9d, %r9d
	movl	$1, %eax
	movl	$1, (%rsp)
	movl	%eax, -1616(%rbp)       # 4-byte Spill
	callq	trace_logger_log0
	movl	$2, %eax
	movl	%eax, %edi
	movl	$64, %eax
	movl	%eax, %esi
	movl	$1, %eax
	movl	%eax, %ecx
	movabsq	$.L.str.9, %r8
	xorl	%eax, %eax
	movl	%eax, %r9d
	movabsq	$.L.str.5, %rdx
	movq	-256(%rbp), %r10        # 8-byte Reload
	movq	%rdx, -1624(%rbp)       # 8-byte Spill
	movq	%r10, %rdx
	movq	-1624(%rbp), %r11       # 8-byte Reload
	movq	%r11, (%rsp)
	callq	trace_logger_log_ptr
	movl	$1, %eax
	movl	%eax, %ecx
	movl	$32, %eax
	movl	%eax, %esi
	movabsq	$.L.str.60, %r8
	xorl	%eax, %eax
	movl	%eax, %r9d
	movabsq	$.L.str.5, %rdx
	movl	-1612(%rbp), %eax       # 4-byte Reload
	movl	%eax, %ebx
	movl	%ebx, %edi
	movq	%rdi, -1632(%rbp)       # 8-byte Spill
	movq	%rcx, %rdi
	movq	-1632(%rbp), %r10       # 8-byte Reload
	movq	%rdx, -1640(%rbp)       # 8-byte Spill
	movq	%r10, %rdx
	movq	-1640(%rbp), %r11       # 8-byte Reload
	movq	%r11, (%rsp)
	callq	trace_logger_log_int
	movl	$26, %eax
	movl	%eax, %edi
	movabsq	$.L.str.1, %rsi
	movabsq	$.L.str.44, %rdx
	movabsq	$.L.str.62, %rcx
	movl	$30, %eax
	movl	%eax, %r8d
	xorl	%r9d, %r9d
	movl	$1, %eax
	movq	-256(%rbp), %r10        # 8-byte Reload
	movl	-1612(%rbp), %ebx       # 4-byte Reload
	movl	%ebx, (%r10)
	movl	$1, (%rsp)
	movl	%eax, -1644(%rbp)       # 4-byte Spill
	callq	trace_logger_log0
	movl	$1, %eax
	movl	%eax, %ecx
	movl	$64, %eax
	movl	%eax, %esi
	movabsq	$.L.str.12, %r8
	xorl	%eax, %eax
	movl	%eax, %r9d
	movabsq	$.L.str.5, %rdx
	movq	%rcx, %rdi
	movq	-352(%rbp), %r10        # 8-byte Reload
	movq	%rdx, -1656(%rbp)       # 8-byte Spill
	movq	%r10, %rdx
	movq	-1656(%rbp), %r11       # 8-byte Reload
	movq	%r11, (%rsp)
	callq	trace_logger_log_ptr
	movl	$19134, %eax            # imm = 0x4ABE
	movl	%eax, %edi
	movl	$32, %eax
	movl	%eax, %esi
	movl	$1, %eax
	movl	%eax, %ecx
	movabsq	$.L.str.62, %r8
	xorl	%eax, %eax
	movl	%eax, %r9d
	movabsq	$.L.str.5, %rdx
	movq	-352(%rbp), %r10        # 8-byte Reload
	movl	(%r10), %eax
	movl	%eax, %ebx
	movl	%ebx, %r11d
	movq	%rdx, -1664(%rbp)       # 8-byte Spill
	movq	%r11, %rdx
	movq	-1664(%rbp), %r11       # 8-byte Reload
	movq	%r11, (%rsp)
	movl	%eax, -1668(%rbp)       # 4-byte Spill
	callq	trace_logger_log_int
	movl	$26, %eax
	movl	%eax, %edi
	movabsq	$.L.str.1, %rsi
	movabsq	$.L.str.44, %rdx
	movabsq	$.L.str.63, %rcx
	movl	$11, %eax
	movl	%eax, %r8d
	xorl	%r9d, %r9d
	movl	$1, %eax
	movl	$1, (%rsp)
	movl	%eax, -1672(%rbp)       # 4-byte Spill
	callq	trace_logger_log0
	movl	$2, %eax
	movl	%eax, %edi
	movl	$32, %eax
	movl	%eax, %esi
	movl	$1, %eax
	movl	%eax, %ecx
	movabsq	$.L.str.46, %r8
	xorl	%eax, %eax
	movl	%eax, %r9d
	movabsq	$.L.str.5, %rdx
	movl	-1548(%rbp), %eax       # 4-byte Reload
	movl	%eax, %ebx
	movl	%ebx, %r10d
	movq	%rdx, -1680(%rbp)       # 8-byte Spill
	movq	%r10, %rdx
	movq	-1680(%rbp), %r10       # 8-byte Reload
	movq	%r10, (%rsp)
	callq	trace_logger_log_int
	movl	$1, %eax
	movl	%eax, %ecx
	movl	$32, %eax
	movl	%eax, %esi
	movabsq	$.L.str.62, %r8
	xorl	%eax, %eax
	movl	%eax, %r9d
	movabsq	$.L.str.5, %rdx
	movl	-1668(%rbp), %eax       # 4-byte Reload
	movl	%eax, %ebx
	movl	%ebx, %edi
	movq	%rdi, -1688(%rbp)       # 8-byte Spill
	movq	%rcx, %rdi
	movq	-1688(%rbp), %r10       # 8-byte Reload
	movq	%rdx, -1696(%rbp)       # 8-byte Spill
	movq	%r10, %rdx
	movq	-1696(%rbp), %r11       # 8-byte Reload
	movq	%r11, (%rsp)
	callq	trace_logger_log_int
	movl	$19134, %eax            # imm = 0x4ABE
	movl	%eax, %edi
	movl	$32, %eax
	movl	%eax, %esi
	movl	$1, %eax
	movl	%eax, %ecx
	movabsq	$.L.str.63, %r8
	xorl	%eax, %eax
	movl	%eax, %r9d
	movabsq	$.L.str.5, %rdx
	movl	-1668(%rbp), %eax       # 4-byte Reload
	movl	-1548(%rbp), %ebx       # 4-byte Reload
	addl	%ebx, %eax
	movl	%eax, %r14d
	movl	%r14d, %r10d
	movq	%rdx, -1704(%rbp)       # 8-byte Spill
	movq	%r10, %rdx
	movq	-1704(%rbp), %r10       # 8-byte Reload
	movq	%r10, (%rsp)
	movl	%eax, -1708(%rbp)       # 4-byte Spill
	callq	trace_logger_log_int
	movl	$26, %eax
	movl	%eax, %edi
	movabsq	$.L.str.1, %rsi
	movabsq	$.L.str.44, %rdx
	movabsq	$.L.str.64, %rcx
	movl	$31, %eax
	movl	%eax, %r8d
	xorl	%r9d, %r9d
	movl	$1, %eax
	movl	$1, (%rsp)
	movl	%eax, -1712(%rbp)       # 4-byte Spill
	callq	trace_logger_log0
	movl	$2, %eax
	movl	%eax, %edi
	movl	$64, %eax
	movl	%eax, %esi
	movl	$1, %eax
	movl	%eax, %ecx
	movabsq	$.L.str.10, %r8
	xorl	%eax, %eax
	movl	%eax, %r9d
	movabsq	$.L.str.5, %rdx
	movq	-288(%rbp), %r10        # 8-byte Reload
	movq	%rdx, -1720(%rbp)       # 8-byte Spill
	movq	%r10, %rdx
	movq	-1720(%rbp), %r11       # 8-byte Reload
	movq	%r11, (%rsp)
	callq	trace_logger_log_ptr
	movl	$1, %eax
	movl	%eax, %ecx
	movl	$32, %eax
	movl	%eax, %esi
	movabsq	$.L.str.63, %r8
	xorl	%eax, %eax
	movl	%eax, %r9d
	movabsq	$.L.str.5, %rdx
	movl	-1708(%rbp), %eax       # 4-byte Reload
	movl	%eax, %ebx
	movl	%ebx, %edi
	movq	%rdi, -1728(%rbp)       # 8-byte Spill
	movq	%rcx, %rdi
	movq	-1728(%rbp), %r10       # 8-byte Reload
	movq	%rdx, -1736(%rbp)       # 8-byte Spill
	movq	%r10, %rdx
	movq	-1736(%rbp), %r11       # 8-byte Reload
	movq	%r11, (%rsp)
	callq	trace_logger_log_int
	movl	$26, %eax
	movl	%eax, %edi
	movabsq	$.L.str.1, %rsi
	movabsq	$.L.str.44, %rdx
	movabsq	$.L.str.65, %rcx
	movl	$30, %eax
	movl	%eax, %r8d
	xorl	%r9d, %r9d
	movl	$1, %eax
	movq	-288(%rbp), %r10        # 8-byte Reload
	movl	-1708(%rbp), %ebx       # 4-byte Reload
	movl	%ebx, (%r10)
	movl	$1, (%rsp)
	movl	%eax, -1740(%rbp)       # 4-byte Spill
	callq	trace_logger_log0
	movl	$1, %eax
	movl	%eax, %ecx
	movl	$64, %eax
	movl	%eax, %esi
	movabsq	$.L.str.11, %r8
	xorl	%eax, %eax
	movl	%eax, %r9d
	movabsq	$.L.str.5, %rdx
	movq	%rcx, %rdi
	movq	-320(%rbp), %r10        # 8-byte Reload
	movq	%rdx, -1752(%rbp)       # 8-byte Spill
	movq	%r10, %rdx
	movq	-1752(%rbp), %r11       # 8-byte Reload
	movq	%r11, (%rsp)
	callq	trace_logger_log_ptr
	movl	$19134, %eax            # imm = 0x4ABE
	movl	%eax, %edi
	movl	$32, %eax
	movl	%eax, %esi
	movl	$1, %eax
	movl	%eax, %ecx
	movabsq	$.L.str.65, %r8
	xorl	%eax, %eax
	movl	%eax, %r9d
	movabsq	$.L.str.5, %rdx
	movq	-320(%rbp), %r10        # 8-byte Reload
	movl	(%r10), %eax
	movl	%eax, %ebx
	movl	%ebx, %r11d
	movq	%rdx, -1760(%rbp)       # 8-byte Spill
	movq	%r11, %rdx
	movq	-1760(%rbp), %r11       # 8-byte Reload
	movq	%r11, (%rsp)
	movl	%eax, -1764(%rbp)       # 4-byte Spill
	callq	trace_logger_log_int
	movl	$26, %eax
	movl	%eax, %edi
	movabsq	$.L.str.1, %rsi
	movabsq	$.L.str.44, %rdx
	movabsq	$.L.str.66, %rcx
	movl	$13, %eax
	movl	%eax, %r8d
	xorl	%r9d, %r9d
	movl	$1, %eax
	movl	$1, (%rsp)
	movl	%eax, -1768(%rbp)       # 4-byte Spill
	callq	trace_logger_log0
	movl	$2, %eax
	movl	%eax, %edi
	movl	$32, %eax
	movl	%eax, %esi
	movl	$1, %eax
	movl	%eax, %ecx
	movabsq	$.L.str.65, %r8
	xorl	%eax, %eax
	movl	%eax, %r9d
	movabsq	$.L.str.5, %rdx
	movl	-1764(%rbp), %eax       # 4-byte Reload
	movl	%eax, %ebx
	movl	%ebx, %r10d
	movq	%rdx, -1776(%rbp)       # 8-byte Spill
	movq	%r10, %rdx
	movq	-1776(%rbp), %r10       # 8-byte Reload
	movq	%r10, (%rsp)
	callq	trace_logger_log_int
	movl	$1, %eax
	movl	%eax, %ecx
	movl	$32, %eax
	movl	%eax, %esi
	movabsq	$.L.str.45, %r8
	xorl	%eax, %eax
	movl	%eax, %r9d
	movabsq	$.L.str.5, %rdx
	movl	-1524(%rbp), %eax       # 4-byte Reload
	movl	%eax, %ebx
	movl	%ebx, %edi
	movq	%rdi, -1784(%rbp)       # 8-byte Spill
	movq	%rcx, %rdi
	movq	-1784(%rbp), %r10       # 8-byte Reload
	movq	%rdx, -1792(%rbp)       # 8-byte Spill
	movq	%r10, %rdx
	movq	-1792(%rbp), %r11       # 8-byte Reload
	movq	%r11, (%rsp)
	callq	trace_logger_log_int
	movl	$19134, %eax            # imm = 0x4ABE
	movl	%eax, %edi
	movl	$32, %eax
	movl	%eax, %esi
	movl	$1, %eax
	movl	%eax, %ecx
	movabsq	$.L.str.66, %r8
	xorl	%eax, %eax
	movl	%eax, %r9d
	movabsq	$.L.str.5, %rdx
	movl	-1524(%rbp), %eax       # 4-byte Reload
	movl	-1764(%rbp), %ebx       # 4-byte Reload
	subl	%ebx, %eax
	movl	%eax, %r14d
	movl	%r14d, %r10d
	movq	%rdx, -1800(%rbp)       # 8-byte Spill
	movq	%r10, %rdx
	movq	-1800(%rbp), %r10       # 8-byte Reload
	movq	%r10, (%rsp)
	movl	%eax, -1804(%rbp)       # 4-byte Spill
	callq	trace_logger_log_int
	movl	$26, %eax
	movl	%eax, %edi
	movabsq	$.L.str.1, %rsi
	movabsq	$.L.str.44, %rdx
	movabsq	$.L.str.67, %rcx
	movl	$31, %eax
	movl	%eax, %r8d
	xorl	%r9d, %r9d
	movl	$1, %eax
	movl	$1, (%rsp)
	movl	%eax, -1808(%rbp)       # 4-byte Spill
	callq	trace_logger_log0
	movl	$2, %eax
	movl	%eax, %edi
	movl	$64, %eax
	movl	%eax, %esi
	movl	$1, %eax
	movl	%eax, %ecx
	movabsq	$.L.str.11, %r8
	xorl	%eax, %eax
	movl	%eax, %r9d
	movabsq	$.L.str.5, %rdx
	movq	-320(%rbp), %r10        # 8-byte Reload
	movq	%rdx, -1816(%rbp)       # 8-byte Spill
	movq	%r10, %rdx
	movq	-1816(%rbp), %r11       # 8-byte Reload
	movq	%r11, (%rsp)
	callq	trace_logger_log_ptr
	movl	$1, %eax
	movl	%eax, %ecx
	movl	$32, %eax
	movl	%eax, %esi
	movabsq	$.L.str.66, %r8
	xorl	%eax, %eax
	movl	%eax, %r9d
	movabsq	$.L.str.5, %rdx
	movl	-1804(%rbp), %eax       # 4-byte Reload
	movl	%eax, %ebx
	movl	%ebx, %edi
	movq	%rdi, -1824(%rbp)       # 8-byte Spill
	movq	%rcx, %rdi
	movq	-1824(%rbp), %r10       # 8-byte Reload
	movq	%rdx, -1832(%rbp)       # 8-byte Spill
	movq	%r10, %rdx
	movq	-1832(%rbp), %r11       # 8-byte Reload
	movq	%r11, (%rsp)
	callq	trace_logger_log_int
	movl	$26, %eax
	movl	%eax, %edi
	movabsq	$.L.str.1, %rsi
	movabsq	$.L.str.44, %rdx
	movabsq	$.L.str.68, %rcx
	movl	$30, %eax
	movl	%eax, %r8d
	xorl	%r9d, %r9d
	movl	$1, %eax
	movq	-320(%rbp), %r10        # 8-byte Reload
	movl	-1804(%rbp), %ebx       # 4-byte Reload
	movl	%ebx, (%r10)
	movl	$1, (%rsp)
	movl	%eax, -1836(%rbp)       # 4-byte Spill
	callq	trace_logger_log0
	movl	$1, %eax
	movl	%eax, %ecx
	movl	$64, %eax
	movl	%eax, %esi
	movabsq	$.L.str.12, %r8
	xorl	%eax, %eax
	movl	%eax, %r9d
	movabsq	$.L.str.5, %rdx
	movq	%rcx, %rdi
	movq	-352(%rbp), %r10        # 8-byte Reload
	movq	%rdx, -1848(%rbp)       # 8-byte Spill
	movq	%r10, %rdx
	movq	-1848(%rbp), %r11       # 8-byte Reload
	movq	%r11, (%rsp)
	callq	trace_logger_log_ptr
	movl	$19134, %eax            # imm = 0x4ABE
	movl	%eax, %edi
	movl	$32, %eax
	movl	%eax, %esi
	movl	$1, %eax
	movl	%eax, %ecx
	movabsq	$.L.str.68, %r8
	xorl	%eax, %eax
	movl	%eax, %r9d
	movabsq	$.L.str.5, %rdx
	movq	-352(%rbp), %r10        # 8-byte Reload
	movl	(%r10), %eax
	movl	%eax, %ebx
	movl	%ebx, %r11d
	movq	%rdx, -1856(%rbp)       # 8-byte Spill
	movq	%r11, %rdx
	movq	-1856(%rbp), %r11       # 8-byte Reload
	movq	%r11, (%rsp)
	movl	%eax, -1860(%rbp)       # 4-byte Spill
	callq	trace_logger_log_int
	movl	$26, %eax
	movl	%eax, %edi
	movabsq	$.L.str.1, %rsi
	movabsq	$.L.str.44, %rdx
	movabsq	$.L.str.69, %rcx
	movl	$13, %eax
	movl	%eax, %r8d
	xorl	%r9d, %r9d
	movl	$1, %eax
	movl	$1, (%rsp)
	movl	%eax, -1864(%rbp)       # 4-byte Spill
	callq	trace_logger_log0
	movl	$2, %eax
	movl	%eax, %edi
	movl	$32, %eax
	movl	%eax, %esi
	movl	$1, %eax
	movl	%eax, %ecx
	movabsq	$.L.str.68, %r8
	xorl	%eax, %eax
	movl	%eax, %r9d
	movabsq	$.L.str.5, %rdx
	movl	-1860(%rbp), %eax       # 4-byte Reload
	movl	%eax, %ebx
	movl	%ebx, %r10d
	movq	%rdx, -1872(%rbp)       # 8-byte Spill
	movq	%r10, %rdx
	movq	-1872(%rbp), %r10       # 8-byte Reload
	movq	%r10, (%rsp)
	callq	trace_logger_log_int
	movl	$1, %eax
	movl	%eax, %ecx
	movl	$32, %eax
	movl	%eax, %esi
	movabsq	$.L.str.46, %r8
	xorl	%eax, %eax
	movl	%eax, %r9d
	movabsq	$.L.str.5, %rdx
	movl	-1548(%rbp), %eax       # 4-byte Reload
	movl	%eax, %ebx
	movl	%ebx, %edi
	movq	%rdi, -1880(%rbp)       # 8-byte Spill
	movq	%rcx, %rdi
	movq	-1880(%rbp), %r10       # 8-byte Reload
	movq	%rdx, -1888(%rbp)       # 8-byte Spill
	movq	%r10, %rdx
	movq	-1888(%rbp), %r11       # 8-byte Reload
	movq	%r11, (%rsp)
	callq	trace_logger_log_int
	movl	$19134, %eax            # imm = 0x4ABE
	movl	%eax, %edi
	movl	$32, %eax
	movl	%eax, %esi
	movl	$1, %eax
	movl	%eax, %ecx
	movabsq	$.L.str.69, %r8
	xorl	%eax, %eax
	movl	%eax, %r9d
	movabsq	$.L.str.5, %rdx
	movl	-1548(%rbp), %eax       # 4-byte Reload
	movl	-1860(%rbp), %ebx       # 4-byte Reload
	subl	%ebx, %eax
	movl	%eax, %r14d
	movl	%r14d, %r10d
	movq	%rdx, -1896(%rbp)       # 8-byte Spill
	movq	%r10, %rdx
	movq	-1896(%rbp), %r10       # 8-byte Reload
	movq	%r10, (%rsp)
	movl	%eax, -1900(%rbp)       # 4-byte Spill
	callq	trace_logger_log_int
	movl	$26, %eax
	movl	%eax, %edi
	movabsq	$.L.str.1, %rsi
	movabsq	$.L.str.44, %rdx
	movabsq	$.L.str.70, %rcx
	movl	$31, %eax
	movl	%eax, %r8d
	xorl	%r9d, %r9d
	movl	$1, %eax
	movl	$1, (%rsp)
	movl	%eax, -1904(%rbp)       # 4-byte Spill
	callq	trace_logger_log0
	movl	$2, %eax
	movl	%eax, %edi
	movl	$64, %eax
	movl	%eax, %esi
	movl	$1, %eax
	movl	%eax, %ecx
	movabsq	$.L.str.12, %r8
	xorl	%eax, %eax
	movl	%eax, %r9d
	movabsq	$.L.str.5, %rdx
	movq	-352(%rbp), %r10        # 8-byte Reload
	movq	%rdx, -1912(%rbp)       # 8-byte Spill
	movq	%r10, %rdx
	movq	-1912(%rbp), %r11       # 8-byte Reload
	movq	%r11, (%rsp)
	callq	trace_logger_log_ptr
	movl	$1, %eax
	movl	%eax, %ecx
	movl	$32, %eax
	movl	%eax, %esi
	movabsq	$.L.str.69, %r8
	xorl	%eax, %eax
	movl	%eax, %r9d
	movabsq	$.L.str.5, %rdx
	movl	-1900(%rbp), %eax       # 4-byte Reload
	movl	%eax, %ebx
	movl	%ebx, %edi
	movq	%rdi, -1920(%rbp)       # 8-byte Spill
	movq	%rcx, %rdi
	movq	-1920(%rbp), %r10       # 8-byte Reload
	movq	%rdx, -1928(%rbp)       # 8-byte Spill
	movq	%r10, %rdx
	movq	-1928(%rbp), %r11       # 8-byte Reload
	movq	%r11, (%rsp)
	callq	trace_logger_log_int
	movl	$26, %eax
	movl	%eax, %edi
	movabsq	$.L.str.1, %rsi
	movabsq	$.L.str.44, %rdx
	movabsq	$.L.str.45, %rcx
	movl	$30, %eax
	movl	%eax, %r8d
	xorl	%r9d, %r9d
	movl	$1, %eax
	movq	-352(%rbp), %r10        # 8-byte Reload
	movl	-1900(%rbp), %ebx       # 4-byte Reload
	movl	%ebx, (%r10)
.Ltmp16:
	.loc	1 26 3                  # fft.c:26:3
	movl	$1, (%rsp)
	movl	%eax, -1932(%rbp)       # 4-byte Spill
	callq	trace_logger_log0
	movl	$1, %eax
	movl	%eax, %ecx
	movl	$64, %eax
	movl	%eax, %esi
	movabsq	$.L.str.13, %r8
	xorl	%eax, %eax
	movl	%eax, %r9d
	movabsq	$.L.str.5, %rdx
	movq	%rcx, %rdi
	movq	-392(%rbp), %r10        # 8-byte Reload
	movq	%rdx, -1944(%rbp)       # 8-byte Spill
	movq	%r10, %rdx
	movq	-1944(%rbp), %r11       # 8-byte Reload
	movq	%r11, (%rsp)
	callq	trace_logger_log_ptr
	movl	$19134, %eax            # imm = 0x4ABE
	movl	%eax, %edi
	movl	$32, %eax
	movl	%eax, %esi
	movl	$1, %eax
	movl	%eax, %ecx
	movabsq	$.L.str.45, %r8
	xorl	%eax, %eax
	movl	%eax, %r9d
	movabsq	$.L.str.5, %rdx
	movq	-392(%rbp), %r10        # 8-byte Reload
	movl	(%r10), %eax
	movl	%eax, %ebx
	movl	%ebx, %r11d
	movq	%rdx, -1952(%rbp)       # 8-byte Spill
	movq	%r11, %rdx
	movq	-1952(%rbp), %r11       # 8-byte Reload
	movq	%r11, (%rsp)
	movl	%eax, -1956(%rbp)       # 4-byte Spill
	callq	trace_logger_log_int
	movl	$26, %eax
	movl	%eax, %edi
	movabsq	$.L.str.1, %rsi
	movabsq	$.L.str.44, %rdx
	movabsq	$.L.str.46, %rcx
	movl	$30, %eax
	movl	%eax, %r8d
	xorl	%r9d, %r9d
	movl	$1, %eax
.Ltmp17:
	#DEBUG_VALUE: c0_x <- [DW_OP_constu 1956, DW_OP_minus] [%rbp+0]
	movl	$1, (%rsp)
	movl	%eax, -1960(%rbp)       # 4-byte Spill
	callq	trace_logger_log0
	movl	$1, %eax
	movl	%eax, %ecx
	movl	$64, %eax
	movl	%eax, %esi
	movabsq	$.L.str.14, %r8
	xorl	%eax, %eax
	movl	%eax, %r9d
	movabsq	$.L.str.5, %rdx
	movq	%rcx, %rdi
	movq	-432(%rbp), %r10        # 8-byte Reload
	movq	%rdx, -1968(%rbp)       # 8-byte Spill
	movq	%r10, %rdx
	movq	-1968(%rbp), %r11       # 8-byte Reload
	movq	%r11, (%rsp)
	callq	trace_logger_log_ptr
	movl	$19134, %eax            # imm = 0x4ABE
	movl	%eax, %edi
	movl	$32, %eax
	movl	%eax, %esi
	movl	$1, %eax
	movl	%eax, %ecx
	movabsq	$.L.str.46, %r8
	xorl	%eax, %eax
	movl	%eax, %r9d
	movabsq	$.L.str.5, %rdx
	movq	-432(%rbp), %r10        # 8-byte Reload
	movl	(%r10), %eax
	movl	%eax, %ebx
	movl	%ebx, %r11d
	movq	%rdx, -1976(%rbp)       # 8-byte Spill
	movq	%r11, %rdx
	movq	-1976(%rbp), %r11       # 8-byte Reload
	movq	%r11, (%rsp)
	movl	%eax, -1980(%rbp)       # 4-byte Spill
	callq	trace_logger_log_int
	movl	$26, %eax
	movl	%eax, %edi
	movabsq	$.L.str.1, %rsi
	movabsq	$.L.str.44, %rdx
	movabsq	$.L.str.71, %rcx
	movl	$30, %eax
	movl	%eax, %r8d
	xorl	%r9d, %r9d
	movl	$1, %eax
.Ltmp18:
	#DEBUG_VALUE: c0_y <- [DW_OP_constu 1980, DW_OP_minus] [%rbp+0]
	movl	$1, (%rsp)
	movl	%eax, -1984(%rbp)       # 4-byte Spill
	callq	trace_logger_log0
	movl	$1, %eax
	movl	%eax, %ecx
	movl	$64, %eax
	movl	%eax, %esi
	movabsq	$.L.str.15, %r8
	xorl	%eax, %eax
	movl	%eax, %r9d
	movabsq	$.L.str.5, %rdx
	movq	%rcx, %rdi
	movq	-464(%rbp), %r10        # 8-byte Reload
	movq	%rdx, -1992(%rbp)       # 8-byte Spill
	movq	%r10, %rdx
	movq	-1992(%rbp), %r11       # 8-byte Reload
	movq	%r11, (%rsp)
	callq	trace_logger_log_ptr
	movl	$19134, %eax            # imm = 0x4ABE
	movl	%eax, %edi
	movl	$32, %eax
	movl	%eax, %esi
	movl	$1, %eax
	movl	%eax, %ecx
	movabsq	$.L.str.71, %r8
	xorl	%eax, %eax
	movl	%eax, %r9d
	movabsq	$.L.str.5, %rdx
	movq	-464(%rbp), %r10        # 8-byte Reload
	movl	(%r10), %eax
	movl	%eax, %ebx
	movl	%ebx, %r11d
	movq	%rdx, -2000(%rbp)       # 8-byte Spill
	movq	%r11, %rdx
	movq	-2000(%rbp), %r11       # 8-byte Reload
	movq	%r11, (%rsp)
	movl	%eax, -2004(%rbp)       # 4-byte Spill
	callq	trace_logger_log_int
	movl	$26, %eax
	movl	%eax, %edi
	movabsq	$.L.str.1, %rsi
	movabsq	$.L.str.44, %rdx
	movabsq	$.L.str.72, %rcx
	movl	$11, %eax
	movl	%eax, %r8d
	xorl	%r9d, %r9d
	movl	$1, %eax
	movl	$1, (%rsp)
	movl	%eax, -2008(%rbp)       # 4-byte Spill
	callq	trace_logger_log0
	movl	$2, %eax
	movl	%eax, %edi
	movl	$32, %eax
	movl	%eax, %esi
	movl	$1, %eax
	movl	%eax, %ecx
	movabsq	$.L.str.45, %r8
	xorl	%eax, %eax
	movl	%eax, %r9d
	movabsq	$.L.str.5, %rdx
	movl	-1956(%rbp), %eax       # 4-byte Reload
	movl	%eax, %ebx
	movl	%ebx, %r10d
	movq	%rdx, -2016(%rbp)       # 8-byte Spill
	movq	%r10, %rdx
	movq	-2016(%rbp), %r10       # 8-byte Reload
	movq	%r10, (%rsp)
	callq	trace_logger_log_int
	movl	$1, %eax
	movl	%eax, %ecx
	movl	$32, %eax
	movl	%eax, %esi
	movabsq	$.L.str.71, %r8
	xorl	%eax, %eax
	movl	%eax, %r9d
	movabsq	$.L.str.5, %rdx
	movl	-2004(%rbp), %eax       # 4-byte Reload
	movl	%eax, %ebx
	movl	%ebx, %edi
	movq	%rdi, -2024(%rbp)       # 8-byte Spill
	movq	%rcx, %rdi
	movq	-2024(%rbp), %r10       # 8-byte Reload
	movq	%rdx, -2032(%rbp)       # 8-byte Spill
	movq	%r10, %rdx
	movq	-2032(%rbp), %r11       # 8-byte Reload
	movq	%r11, (%rsp)
	callq	trace_logger_log_int
	movl	$19134, %eax            # imm = 0x4ABE
	movl	%eax, %edi
	movl	$32, %eax
	movl	%eax, %esi
	movl	$1, %eax
	movl	%eax, %ecx
	movabsq	$.L.str.72, %r8
	xorl	%eax, %eax
	movl	%eax, %r9d
	movabsq	$.L.str.5, %rdx
	movl	-2004(%rbp), %eax       # 4-byte Reload
	movl	-1956(%rbp), %ebx       # 4-byte Reload
	addl	%ebx, %eax
	movl	%eax, %r14d
	movl	%r14d, %r10d
	movq	%rdx, -2040(%rbp)       # 8-byte Spill
	movq	%r10, %rdx
	movq	-2040(%rbp), %r10       # 8-byte Reload
	movq	%r10, (%rsp)
	movl	%eax, -2044(%rbp)       # 4-byte Spill
	callq	trace_logger_log_int
	movl	$26, %eax
	movl	%eax, %edi
	movabsq	$.L.str.1, %rsi
	movabsq	$.L.str.44, %rdx
	movabsq	$.L.str.73, %rcx
	movl	$31, %eax
	movl	%eax, %r8d
	xorl	%r9d, %r9d
	movl	$1, %eax
	movl	$1, (%rsp)
	movl	%eax, -2048(%rbp)       # 4-byte Spill
	callq	trace_logger_log0
	movl	$2, %eax
	movl	%eax, %edi
	movl	$64, %eax
	movl	%eax, %esi
	movl	$1, %eax
	movl	%eax, %ecx
	movabsq	$.L.str.13, %r8
	xorl	%eax, %eax
	movl	%eax, %r9d
	movabsq	$.L.str.5, %rdx
	movq	-392(%rbp), %r10        # 8-byte Reload
	movq	%rdx, -2056(%rbp)       # 8-byte Spill
	movq	%r10, %rdx
	movq	-2056(%rbp), %r11       # 8-byte Reload
	movq	%r11, (%rsp)
	callq	trace_logger_log_ptr
	movl	$1, %eax
	movl	%eax, %ecx
	movl	$32, %eax
	movl	%eax, %esi
	movabsq	$.L.str.72, %r8
	xorl	%eax, %eax
	movl	%eax, %r9d
	movabsq	$.L.str.5, %rdx
	movl	-2044(%rbp), %eax       # 4-byte Reload
	movl	%eax, %ebx
	movl	%ebx, %edi
	movq	%rdi, -2064(%rbp)       # 8-byte Spill
	movq	%rcx, %rdi
	movq	-2064(%rbp), %r10       # 8-byte Reload
	movq	%rdx, -2072(%rbp)       # 8-byte Spill
	movq	%r10, %rdx
	movq	-2072(%rbp), %r11       # 8-byte Reload
	movq	%r11, (%rsp)
	callq	trace_logger_log_int
	movl	$26, %eax
	movl	%eax, %edi
	movabsq	$.L.str.1, %rsi
	movabsq	$.L.str.44, %rdx
	movabsq	$.L.str.74, %rcx
	movl	$30, %eax
	movl	%eax, %r8d
	xorl	%r9d, %r9d
	movl	$1, %eax
	movq	-392(%rbp), %r10        # 8-byte Reload
	movl	-2044(%rbp), %ebx       # 4-byte Reload
	movl	%ebx, (%r10)
	movl	$1, (%rsp)
	movl	%eax, -2076(%rbp)       # 4-byte Spill
	callq	trace_logger_log0
	movl	$1, %eax
	movl	%eax, %ecx
	movl	$64, %eax
	movl	%eax, %esi
	movabsq	$.L.str.16, %r8
	xorl	%eax, %eax
	movl	%eax, %r9d
	movabsq	$.L.str.5, %rdx
	movq	%rcx, %rdi
	movq	-496(%rbp), %r10        # 8-byte Reload
	movq	%rdx, -2088(%rbp)       # 8-byte Spill
	movq	%r10, %rdx
	movq	-2088(%rbp), %r11       # 8-byte Reload
	movq	%r11, (%rsp)
	callq	trace_logger_log_ptr
	movl	$19134, %eax            # imm = 0x4ABE
	movl	%eax, %edi
	movl	$32, %eax
	movl	%eax, %esi
	movl	$1, %eax
	movl	%eax, %ecx
	movabsq	$.L.str.74, %r8
	xorl	%eax, %eax
	movl	%eax, %r9d
	movabsq	$.L.str.5, %rdx
	movq	-496(%rbp), %r10        # 8-byte Reload
	movl	(%r10), %eax
	movl	%eax, %ebx
	movl	%ebx, %r11d
	movq	%rdx, -2096(%rbp)       # 8-byte Spill
	movq	%r11, %rdx
	movq	-2096(%rbp), %r11       # 8-byte Reload
	movq	%r11, (%rsp)
	movl	%eax, -2100(%rbp)       # 4-byte Spill
	callq	trace_logger_log_int
	movl	$26, %eax
	movl	%eax, %edi
	movabsq	$.L.str.1, %rsi
	movabsq	$.L.str.44, %rdx
	movabsq	$.L.str.75, %rcx
	movl	$11, %eax
	movl	%eax, %r8d
	xorl	%r9d, %r9d
	movl	$1, %eax
	movl	$1, (%rsp)
	movl	%eax, -2104(%rbp)       # 4-byte Spill
	callq	trace_logger_log0
	movl	$2, %eax
	movl	%eax, %edi
	movl	$32, %eax
	movl	%eax, %esi
	movl	$1, %eax
	movl	%eax, %ecx
	movabsq	$.L.str.46, %r8
	xorl	%eax, %eax
	movl	%eax, %r9d
	movabsq	$.L.str.5, %rdx
	movl	-1980(%rbp), %eax       # 4-byte Reload
	movl	%eax, %ebx
	movl	%ebx, %r10d
	movq	%rdx, -2112(%rbp)       # 8-byte Spill
	movq	%r10, %rdx
	movq	-2112(%rbp), %r10       # 8-byte Reload
	movq	%r10, (%rsp)
	callq	trace_logger_log_int
	movl	$1, %eax
	movl	%eax, %ecx
	movl	$32, %eax
	movl	%eax, %esi
	movabsq	$.L.str.74, %r8
	xorl	%eax, %eax
	movl	%eax, %r9d
	movabsq	$.L.str.5, %rdx
	movl	-2100(%rbp), %eax       # 4-byte Reload
	movl	%eax, %ebx
	movl	%ebx, %edi
	movq	%rdi, -2120(%rbp)       # 8-byte Spill
	movq	%rcx, %rdi
	movq	-2120(%rbp), %r10       # 8-byte Reload
	movq	%rdx, -2128(%rbp)       # 8-byte Spill
	movq	%r10, %rdx
	movq	-2128(%rbp), %r11       # 8-byte Reload
	movq	%r11, (%rsp)
	callq	trace_logger_log_int
	movl	$19134, %eax            # imm = 0x4ABE
	movl	%eax, %edi
	movl	$32, %eax
	movl	%eax, %esi
	movl	$1, %eax
	movl	%eax, %ecx
	movabsq	$.L.str.75, %r8
	xorl	%eax, %eax
	movl	%eax, %r9d
	movabsq	$.L.str.5, %rdx
	movl	-2100(%rbp), %eax       # 4-byte Reload
	movl	-1980(%rbp), %ebx       # 4-byte Reload
	addl	%ebx, %eax
	movl	%eax, %r14d
	movl	%r14d, %r10d
	movq	%rdx, -2136(%rbp)       # 8-byte Spill
	movq	%r10, %rdx
	movq	-2136(%rbp), %r10       # 8-byte Reload
	movq	%r10, (%rsp)
	movl	%eax, -2140(%rbp)       # 4-byte Spill
	callq	trace_logger_log_int
	movl	$26, %eax
	movl	%eax, %edi
	movabsq	$.L.str.1, %rsi
	movabsq	$.L.str.44, %rdx
	movabsq	$.L.str.76, %rcx
	movl	$31, %eax
	movl	%eax, %r8d
	xorl	%r9d, %r9d
	movl	$1, %eax
	movl	$1, (%rsp)
	movl	%eax, -2144(%rbp)       # 4-byte Spill
	callq	trace_logger_log0
	movl	$2, %eax
	movl	%eax, %edi
	movl	$64, %eax
	movl	%eax, %esi
	movl	$1, %eax
	movl	%eax, %ecx
	movabsq	$.L.str.14, %r8
	xorl	%eax, %eax
	movl	%eax, %r9d
	movabsq	$.L.str.5, %rdx
	movq	-432(%rbp), %r10        # 8-byte Reload
	movq	%rdx, -2152(%rbp)       # 8-byte Spill
	movq	%r10, %rdx
	movq	-2152(%rbp), %r11       # 8-byte Reload
	movq	%r11, (%rsp)
	callq	trace_logger_log_ptr
	movl	$1, %eax
	movl	%eax, %ecx
	movl	$32, %eax
	movl	%eax, %esi
	movabsq	$.L.str.75, %r8
	xorl	%eax, %eax
	movl	%eax, %r9d
	movabsq	$.L.str.5, %rdx
	movl	-2140(%rbp), %eax       # 4-byte Reload
	movl	%eax, %ebx
	movl	%ebx, %edi
	movq	%rdi, -2160(%rbp)       # 8-byte Spill
	movq	%rcx, %rdi
	movq	-2160(%rbp), %r10       # 8-byte Reload
	movq	%rdx, -2168(%rbp)       # 8-byte Spill
	movq	%r10, %rdx
	movq	-2168(%rbp), %r11       # 8-byte Reload
	movq	%r11, (%rsp)
	callq	trace_logger_log_int
	movl	$26, %eax
	movl	%eax, %edi
	movabsq	$.L.str.1, %rsi
	movabsq	$.L.str.44, %rdx
	movabsq	$.L.str.77, %rcx
	movl	$30, %eax
	movl	%eax, %r8d
	xorl	%r9d, %r9d
	movl	$1, %eax
	movq	-432(%rbp), %r10        # 8-byte Reload
	movl	-2140(%rbp), %ebx       # 4-byte Reload
	movl	%ebx, (%r10)
	movl	$1, (%rsp)
	movl	%eax, -2172(%rbp)       # 4-byte Spill
	callq	trace_logger_log0
	movl	$1, %eax
	movl	%eax, %ecx
	movl	$64, %eax
	movl	%eax, %esi
	movabsq	$.L.str.15, %r8
	xorl	%eax, %eax
	movl	%eax, %r9d
	movabsq	$.L.str.5, %rdx
	movq	%rcx, %rdi
	movq	-464(%rbp), %r10        # 8-byte Reload
	movq	%rdx, -2184(%rbp)       # 8-byte Spill
	movq	%r10, %rdx
	movq	-2184(%rbp), %r11       # 8-byte Reload
	movq	%r11, (%rsp)
	callq	trace_logger_log_ptr
	movl	$19134, %eax            # imm = 0x4ABE
	movl	%eax, %edi
	movl	$32, %eax
	movl	%eax, %esi
	movl	$1, %eax
	movl	%eax, %ecx
	movabsq	$.L.str.77, %r8
	xorl	%eax, %eax
	movl	%eax, %r9d
	movabsq	$.L.str.5, %rdx
	movq	-464(%rbp), %r10        # 8-byte Reload
	movl	(%r10), %eax
	movl	%eax, %ebx
	movl	%ebx, %r11d
	movq	%rdx, -2192(%rbp)       # 8-byte Spill
	movq	%r11, %rdx
	movq	-2192(%rbp), %r11       # 8-byte Reload
	movq	%r11, (%rsp)
	movl	%eax, -2196(%rbp)       # 4-byte Spill
	callq	trace_logger_log_int
	movl	$26, %eax
	movl	%eax, %edi
	movabsq	$.L.str.1, %rsi
	movabsq	$.L.str.44, %rdx
	movabsq	$.L.str.78, %rcx
	movl	$13, %eax
	movl	%eax, %r8d
	xorl	%r9d, %r9d
	movl	$1, %eax
	movl	$1, (%rsp)
	movl	%eax, -2200(%rbp)       # 4-byte Spill
	callq	trace_logger_log0
	movl	$2, %eax
	movl	%eax, %edi
	movl	$32, %eax
	movl	%eax, %esi
	movl	$1, %eax
	movl	%eax, %ecx
	movabsq	$.L.str.77, %r8
	xorl	%eax, %eax
	movl	%eax, %r9d
	movabsq	$.L.str.5, %rdx
	movl	-2196(%rbp), %eax       # 4-byte Reload
	movl	%eax, %ebx
	movl	%ebx, %r10d
	movq	%rdx, -2208(%rbp)       # 8-byte Spill
	movq	%r10, %rdx
	movq	-2208(%rbp), %r10       # 8-byte Reload
	movq	%r10, (%rsp)
	callq	trace_logger_log_int
	movl	$1, %eax
	movl	%eax, %ecx
	movl	$32, %eax
	movl	%eax, %esi
	movabsq	$.L.str.45, %r8
	xorl	%eax, %eax
	movl	%eax, %r9d
	movabsq	$.L.str.5, %rdx
	movl	-1956(%rbp), %eax       # 4-byte Reload
	movl	%eax, %ebx
	movl	%ebx, %edi
	movq	%rdi, -2216(%rbp)       # 8-byte Spill
	movq	%rcx, %rdi
	movq	-2216(%rbp), %r10       # 8-byte Reload
	movq	%rdx, -2224(%rbp)       # 8-byte Spill
	movq	%r10, %rdx
	movq	-2224(%rbp), %r11       # 8-byte Reload
	movq	%r11, (%rsp)
	callq	trace_logger_log_int
	movl	$19134, %eax            # imm = 0x4ABE
	movl	%eax, %edi
	movl	$32, %eax
	movl	%eax, %esi
	movl	$1, %eax
	movl	%eax, %ecx
	movabsq	$.L.str.78, %r8
	xorl	%eax, %eax
	movl	%eax, %r9d
	movabsq	$.L.str.5, %rdx
	movl	-1956(%rbp), %eax       # 4-byte Reload
	movl	-2196(%rbp), %ebx       # 4-byte Reload
	subl	%ebx, %eax
	movl	%eax, %r14d
	movl	%r14d, %r10d
	movq	%rdx, -2232(%rbp)       # 8-byte Spill
	movq	%r10, %rdx
	movq	-2232(%rbp), %r10       # 8-byte Reload
	movq	%r10, (%rsp)
	movl	%eax, -2236(%rbp)       # 4-byte Spill
	callq	trace_logger_log_int
	movl	$26, %eax
	movl	%eax, %edi
	movabsq	$.L.str.1, %rsi
	movabsq	$.L.str.44, %rdx
	movabsq	$.L.str.79, %rcx
	movl	$31, %eax
	movl	%eax, %r8d
	xorl	%r9d, %r9d
	movl	$1, %eax
	movl	$1, (%rsp)
	movl	%eax, -2240(%rbp)       # 4-byte Spill
	callq	trace_logger_log0
	movl	$2, %eax
	movl	%eax, %edi
	movl	$64, %eax
	movl	%eax, %esi
	movl	$1, %eax
	movl	%eax, %ecx
	movabsq	$.L.str.15, %r8
	xorl	%eax, %eax
	movl	%eax, %r9d
	movabsq	$.L.str.5, %rdx
	movq	-464(%rbp), %r10        # 8-byte Reload
	movq	%rdx, -2248(%rbp)       # 8-byte Spill
	movq	%r10, %rdx
	movq	-2248(%rbp), %r11       # 8-byte Reload
	movq	%r11, (%rsp)
	callq	trace_logger_log_ptr
	movl	$1, %eax
	movl	%eax, %ecx
	movl	$32, %eax
	movl	%eax, %esi
	movabsq	$.L.str.78, %r8
	xorl	%eax, %eax
	movl	%eax, %r9d
	movabsq	$.L.str.5, %rdx
	movl	-2236(%rbp), %eax       # 4-byte Reload
	movl	%eax, %ebx
	movl	%ebx, %edi
	movq	%rdi, -2256(%rbp)       # 8-byte Spill
	movq	%rcx, %rdi
	movq	-2256(%rbp), %r10       # 8-byte Reload
	movq	%rdx, -2264(%rbp)       # 8-byte Spill
	movq	%r10, %rdx
	movq	-2264(%rbp), %r11       # 8-byte Reload
	movq	%r11, (%rsp)
	callq	trace_logger_log_int
	movl	$26, %eax
	movl	%eax, %edi
	movabsq	$.L.str.1, %rsi
	movabsq	$.L.str.44, %rdx
	movabsq	$.L.str.80, %rcx
	movl	$30, %eax
	movl	%eax, %r8d
	xorl	%r9d, %r9d
	movl	$1, %eax
	movq	-464(%rbp), %r10        # 8-byte Reload
	movl	-2236(%rbp), %ebx       # 4-byte Reload
	movl	%ebx, (%r10)
	movl	$1, (%rsp)
	movl	%eax, -2268(%rbp)       # 4-byte Spill
	callq	trace_logger_log0
	movl	$1, %eax
	movl	%eax, %ecx
	movl	$64, %eax
	movl	%eax, %esi
	movabsq	$.L.str.16, %r8
	xorl	%eax, %eax
	movl	%eax, %r9d
	movabsq	$.L.str.5, %rdx
	movq	%rcx, %rdi
	movq	-496(%rbp), %r10        # 8-byte Reload
	movq	%rdx, -2280(%rbp)       # 8-byte Spill
	movq	%r10, %rdx
	movq	-2280(%rbp), %r11       # 8-byte Reload
	movq	%r11, (%rsp)
	callq	trace_logger_log_ptr
	movl	$19134, %eax            # imm = 0x4ABE
	movl	%eax, %edi
	movl	$32, %eax
	movl	%eax, %esi
	movl	$1, %eax
	movl	%eax, %ecx
	movabsq	$.L.str.80, %r8
	xorl	%eax, %eax
	movl	%eax, %r9d
	movabsq	$.L.str.5, %rdx
	movq	-496(%rbp), %r10        # 8-byte Reload
	movl	(%r10), %eax
	movl	%eax, %ebx
	movl	%ebx, %r11d
	movq	%rdx, -2288(%rbp)       # 8-byte Spill
	movq	%r11, %rdx
	movq	-2288(%rbp), %r11       # 8-byte Reload
	movq	%r11, (%rsp)
	movl	%eax, -2292(%rbp)       # 4-byte Spill
	callq	trace_logger_log_int
	movl	$26, %eax
	movl	%eax, %edi
	movabsq	$.L.str.1, %rsi
	movabsq	$.L.str.44, %rdx
	movabsq	$.L.str.81, %rcx
	movl	$13, %eax
	movl	%eax, %r8d
	xorl	%r9d, %r9d
	movl	$1, %eax
	movl	$1, (%rsp)
	movl	%eax, -2296(%rbp)       # 4-byte Spill
	callq	trace_logger_log0
	movl	$2, %eax
	movl	%eax, %edi
	movl	$32, %eax
	movl	%eax, %esi
	movl	$1, %eax
	movl	%eax, %ecx
	movabsq	$.L.str.80, %r8
	xorl	%eax, %eax
	movl	%eax, %r9d
	movabsq	$.L.str.5, %rdx
	movl	-2292(%rbp), %eax       # 4-byte Reload
	movl	%eax, %ebx
	movl	%ebx, %r10d
	movq	%rdx, -2304(%rbp)       # 8-byte Spill
	movq	%r10, %rdx
	movq	-2304(%rbp), %r10       # 8-byte Reload
	movq	%r10, (%rsp)
	callq	trace_logger_log_int
	movl	$1, %eax
	movl	%eax, %ecx
	movl	$32, %eax
	movl	%eax, %esi
	movabsq	$.L.str.46, %r8
	xorl	%eax, %eax
	movl	%eax, %r9d
	movabsq	$.L.str.5, %rdx
	movl	-1980(%rbp), %eax       # 4-byte Reload
	movl	%eax, %ebx
	movl	%ebx, %edi
	movq	%rdi, -2312(%rbp)       # 8-byte Spill
	movq	%rcx, %rdi
	movq	-2312(%rbp), %r10       # 8-byte Reload
	movq	%rdx, -2320(%rbp)       # 8-byte Spill
	movq	%r10, %rdx
	movq	-2320(%rbp), %r11       # 8-byte Reload
	movq	%r11, (%rsp)
	callq	trace_logger_log_int
	movl	$19134, %eax            # imm = 0x4ABE
	movl	%eax, %edi
	movl	$32, %eax
	movl	%eax, %esi
	movl	$1, %eax
	movl	%eax, %ecx
	movabsq	$.L.str.81, %r8
	xorl	%eax, %eax
	movl	%eax, %r9d
	movabsq	$.L.str.5, %rdx
	movl	-1980(%rbp), %eax       # 4-byte Reload
	movl	-2292(%rbp), %ebx       # 4-byte Reload
	subl	%ebx, %eax
	movl	%eax, %r14d
	movl	%r14d, %r10d
	movq	%rdx, -2328(%rbp)       # 8-byte Spill
	movq	%r10, %rdx
	movq	-2328(%rbp), %r10       # 8-byte Reload
	movq	%r10, (%rsp)
	movl	%eax, -2332(%rbp)       # 4-byte Spill
	callq	trace_logger_log_int
	movl	$26, %eax
	movl	%eax, %edi
	movabsq	$.L.str.1, %rsi
	movabsq	$.L.str.44, %rdx
	movabsq	$.L.str.82, %rcx
	movl	$31, %eax
	movl	%eax, %r8d
	xorl	%r9d, %r9d
	movl	$1, %eax
	movl	$1, (%rsp)
	movl	%eax, -2336(%rbp)       # 4-byte Spill
	callq	trace_logger_log0
	movl	$2, %eax
	movl	%eax, %edi
	movl	$64, %eax
	movl	%eax, %esi
	movl	$1, %eax
	movl	%eax, %ecx
	movabsq	$.L.str.16, %r8
	xorl	%eax, %eax
	movl	%eax, %r9d
	movabsq	$.L.str.5, %rdx
	movq	-496(%rbp), %r10        # 8-byte Reload
	movq	%rdx, -2344(%rbp)       # 8-byte Spill
	movq	%r10, %rdx
	movq	-2344(%rbp), %r11       # 8-byte Reload
	movq	%r11, (%rsp)
	callq	trace_logger_log_ptr
	movl	$1, %eax
	movl	%eax, %ecx
	movl	$32, %eax
	movl	%eax, %esi
	movabsq	$.L.str.81, %r8
	xorl	%eax, %eax
	movl	%eax, %r9d
	movabsq	$.L.str.5, %rdx
	movl	-2332(%rbp), %eax       # 4-byte Reload
	movl	%eax, %ebx
	movl	%ebx, %edi
	movq	%rdi, -2352(%rbp)       # 8-byte Spill
	movq	%rcx, %rdi
	movq	-2352(%rbp), %r10       # 8-byte Reload
	movq	%rdx, -2360(%rbp)       # 8-byte Spill
	movq	%r10, %rdx
	movq	-2360(%rbp), %r11       # 8-byte Reload
	movq	%r11, (%rsp)
	callq	trace_logger_log_int
	movl	$26, %eax
	movl	%eax, %edi
	movabsq	$.L.str.1, %rsi
	movabsq	$.L.str.44, %rdx
	movabsq	$.L.str.45, %rcx
	movl	$30, %eax
	movl	%eax, %r8d
	xorl	%r9d, %r9d
	movl	$1, %eax
	movq	-496(%rbp), %r10        # 8-byte Reload
	movl	-2332(%rbp), %ebx       # 4-byte Reload
	movl	%ebx, (%r10)
.Ltmp19:
	.loc	1 26 3                  # fft.c:26:3
	movl	$1, (%rsp)
	movl	%eax, -2364(%rbp)       # 4-byte Spill
	callq	trace_logger_log0
	movl	$1, %eax
	movl	%eax, %ecx
	movl	$64, %eax
	movl	%eax, %esi
	movabsq	$.L.str.17, %r8
	xorl	%eax, %eax
	movl	%eax, %r9d
	movabsq	$.L.str.5, %rdx
	movq	%rcx, %rdi
	movq	-528(%rbp), %r10        # 8-byte Reload
	movq	%rdx, -2376(%rbp)       # 8-byte Spill
	movq	%r10, %rdx
	movq	-2376(%rbp), %r11       # 8-byte Reload
	movq	%r11, (%rsp)
	callq	trace_logger_log_ptr
	movl	$19134, %eax            # imm = 0x4ABE
	movl	%eax, %edi
	movl	$32, %eax
	movl	%eax, %esi
	movl	$1, %eax
	movl	%eax, %ecx
	movabsq	$.L.str.45, %r8
	xorl	%eax, %eax
	movl	%eax, %r9d
	movabsq	$.L.str.5, %rdx
	movq	-528(%rbp), %r10        # 8-byte Reload
	movl	(%r10), %eax
	movl	%eax, %ebx
	movl	%ebx, %r11d
	movq	%rdx, -2384(%rbp)       # 8-byte Spill
	movq	%r11, %rdx
	movq	-2384(%rbp), %r11       # 8-byte Reload
	movq	%r11, (%rsp)
	movl	%eax, -2388(%rbp)       # 4-byte Spill
	callq	trace_logger_log_int
	movl	$26, %eax
	movl	%eax, %edi
	movabsq	$.L.str.1, %rsi
	movabsq	$.L.str.44, %rdx
	movabsq	$.L.str.46, %rcx
	movl	$30, %eax
	movl	%eax, %r8d
	xorl	%r9d, %r9d
	movl	$1, %eax
.Ltmp20:
	#DEBUG_VALUE: c0_x <- [DW_OP_constu 2388, DW_OP_minus] [%rbp+0]
	movl	$1, (%rsp)
	movl	%eax, -2392(%rbp)       # 4-byte Spill
	callq	trace_logger_log0
	movl	$1, %eax
	movl	%eax, %ecx
	movl	$64, %eax
	movl	%eax, %esi
	movabsq	$.L.str.18, %r8
	xorl	%eax, %eax
	movl	%eax, %r9d
	movabsq	$.L.str.5, %rdx
	movq	%rcx, %rdi
	movq	-560(%rbp), %r10        # 8-byte Reload
	movq	%rdx, -2400(%rbp)       # 8-byte Spill
	movq	%r10, %rdx
	movq	-2400(%rbp), %r11       # 8-byte Reload
	movq	%r11, (%rsp)
	callq	trace_logger_log_ptr
	movl	$19134, %eax            # imm = 0x4ABE
	movl	%eax, %edi
	movl	$32, %eax
	movl	%eax, %esi
	movl	$1, %eax
	movl	%eax, %ecx
	movabsq	$.L.str.46, %r8
	xorl	%eax, %eax
	movl	%eax, %r9d
	movabsq	$.L.str.5, %rdx
	movq	-560(%rbp), %r10        # 8-byte Reload
	movl	(%r10), %eax
	movl	%eax, %ebx
	movl	%ebx, %r11d
	movq	%rdx, -2408(%rbp)       # 8-byte Spill
	movq	%r11, %rdx
	movq	-2408(%rbp), %r11       # 8-byte Reload
	movq	%r11, (%rsp)
	movl	%eax, -2412(%rbp)       # 4-byte Spill
	callq	trace_logger_log_int
	movl	$26, %eax
	movl	%eax, %edi
	movabsq	$.L.str.1, %rsi
	movabsq	$.L.str.44, %rdx
	movabsq	$.L.str.83, %rcx
	movl	$30, %eax
	movl	%eax, %r8d
	xorl	%r9d, %r9d
	movl	$1, %eax
.Ltmp21:
	#DEBUG_VALUE: c0_y <- [DW_OP_constu 2412, DW_OP_minus] [%rbp+0]
	movl	$1, (%rsp)
	movl	%eax, -2416(%rbp)       # 4-byte Spill
	callq	trace_logger_log0
	movl	$1, %eax
	movl	%eax, %ecx
	movl	$64, %eax
	movl	%eax, %esi
	movabsq	$.L.str.19, %r8
	xorl	%eax, %eax
	movl	%eax, %r9d
	movabsq	$.L.str.5, %rdx
	movq	%rcx, %rdi
	movq	-592(%rbp), %r10        # 8-byte Reload
	movq	%rdx, -2424(%rbp)       # 8-byte Spill
	movq	%r10, %rdx
	movq	-2424(%rbp), %r11       # 8-byte Reload
	movq	%r11, (%rsp)
	callq	trace_logger_log_ptr
	movl	$19134, %eax            # imm = 0x4ABE
	movl	%eax, %edi
	movl	$32, %eax
	movl	%eax, %esi
	movl	$1, %eax
	movl	%eax, %ecx
	movabsq	$.L.str.83, %r8
	xorl	%eax, %eax
	movl	%eax, %r9d
	movabsq	$.L.str.5, %rdx
	movq	-592(%rbp), %r10        # 8-byte Reload
	movl	(%r10), %eax
	movl	%eax, %ebx
	movl	%ebx, %r11d
	movq	%rdx, -2432(%rbp)       # 8-byte Spill
	movq	%r11, %rdx
	movq	-2432(%rbp), %r11       # 8-byte Reload
	movq	%r11, (%rsp)
	movl	%eax, -2436(%rbp)       # 4-byte Spill
	callq	trace_logger_log_int
	movl	$26, %eax
	movl	%eax, %edi
	movabsq	$.L.str.1, %rsi
	movabsq	$.L.str.44, %rdx
	movabsq	$.L.str.84, %rcx
	movl	$11, %eax
	movl	%eax, %r8d
	xorl	%r9d, %r9d
	movl	$1, %eax
	movl	$1, (%rsp)
	movl	%eax, -2440(%rbp)       # 4-byte Spill
	callq	trace_logger_log0
	movl	$2, %eax
	movl	%eax, %edi
	movl	$32, %eax
	movl	%eax, %esi
	movl	$1, %eax
	movl	%eax, %ecx
	movabsq	$.L.str.45, %r8
	xorl	%eax, %eax
	movl	%eax, %r9d
	movabsq	$.L.str.5, %rdx
	movl	-2388(%rbp), %eax       # 4-byte Reload
	movl	%eax, %ebx
	movl	%ebx, %r10d
	movq	%rdx, -2448(%rbp)       # 8-byte Spill
	movq	%r10, %rdx
	movq	-2448(%rbp), %r10       # 8-byte Reload
	movq	%r10, (%rsp)
	callq	trace_logger_log_int
	movl	$1, %eax
	movl	%eax, %ecx
	movl	$32, %eax
	movl	%eax, %esi
	movabsq	$.L.str.83, %r8
	xorl	%eax, %eax
	movl	%eax, %r9d
	movabsq	$.L.str.5, %rdx
	movl	-2436(%rbp), %eax       # 4-byte Reload
	movl	%eax, %ebx
	movl	%ebx, %edi
	movq	%rdi, -2456(%rbp)       # 8-byte Spill
	movq	%rcx, %rdi
	movq	-2456(%rbp), %r10       # 8-byte Reload
	movq	%rdx, -2464(%rbp)       # 8-byte Spill
	movq	%r10, %rdx
	movq	-2464(%rbp), %r11       # 8-byte Reload
	movq	%r11, (%rsp)
	callq	trace_logger_log_int
	movl	$19134, %eax            # imm = 0x4ABE
	movl	%eax, %edi
	movl	$32, %eax
	movl	%eax, %esi
	movl	$1, %eax
	movl	%eax, %ecx
	movabsq	$.L.str.84, %r8
	xorl	%eax, %eax
	movl	%eax, %r9d
	movabsq	$.L.str.5, %rdx
	movl	-2436(%rbp), %eax       # 4-byte Reload
	movl	-2388(%rbp), %ebx       # 4-byte Reload
	addl	%ebx, %eax
	movl	%eax, %r14d
	movl	%r14d, %r10d
	movq	%rdx, -2472(%rbp)       # 8-byte Spill
	movq	%r10, %rdx
	movq	-2472(%rbp), %r10       # 8-byte Reload
	movq	%r10, (%rsp)
	movl	%eax, -2476(%rbp)       # 4-byte Spill
	callq	trace_logger_log_int
	movl	$26, %eax
	movl	%eax, %edi
	movabsq	$.L.str.1, %rsi
	movabsq	$.L.str.44, %rdx
	movabsq	$.L.str.85, %rcx
	movl	$31, %eax
	movl	%eax, %r8d
	xorl	%r9d, %r9d
	movl	$1, %eax
	movl	$1, (%rsp)
	movl	%eax, -2480(%rbp)       # 4-byte Spill
	callq	trace_logger_log0
	movl	$2, %eax
	movl	%eax, %edi
	movl	$64, %eax
	movl	%eax, %esi
	movl	$1, %eax
	movl	%eax, %ecx
	movabsq	$.L.str.17, %r8
	xorl	%eax, %eax
	movl	%eax, %r9d
	movabsq	$.L.str.5, %rdx
	movq	-528(%rbp), %r10        # 8-byte Reload
	movq	%rdx, -2488(%rbp)       # 8-byte Spill
	movq	%r10, %rdx
	movq	-2488(%rbp), %r11       # 8-byte Reload
	movq	%r11, (%rsp)
	callq	trace_logger_log_ptr
	movl	$1, %eax
	movl	%eax, %ecx
	movl	$32, %eax
	movl	%eax, %esi
	movabsq	$.L.str.84, %r8
	xorl	%eax, %eax
	movl	%eax, %r9d
	movabsq	$.L.str.5, %rdx
	movl	-2476(%rbp), %eax       # 4-byte Reload
	movl	%eax, %ebx
	movl	%ebx, %edi
	movq	%rdi, -2496(%rbp)       # 8-byte Spill
	movq	%rcx, %rdi
	movq	-2496(%rbp), %r10       # 8-byte Reload
	movq	%rdx, -2504(%rbp)       # 8-byte Spill
	movq	%r10, %rdx
	movq	-2504(%rbp), %r11       # 8-byte Reload
	movq	%r11, (%rsp)
	callq	trace_logger_log_int
	movl	$26, %eax
	movl	%eax, %edi
	movabsq	$.L.str.1, %rsi
	movabsq	$.L.str.44, %rdx
	movabsq	$.L.str.86, %rcx
	movl	$30, %eax
	movl	%eax, %r8d
	xorl	%r9d, %r9d
	movl	$1, %eax
	movq	-528(%rbp), %r10        # 8-byte Reload
	movl	-2476(%rbp), %ebx       # 4-byte Reload
	movl	%ebx, (%r10)
	movl	$1, (%rsp)
	movl	%eax, -2508(%rbp)       # 4-byte Spill
	callq	trace_logger_log0
	movl	$1, %eax
	movl	%eax, %ecx
	movl	$64, %eax
	movl	%eax, %esi
	movabsq	$.L.str.20, %r8
	xorl	%eax, %eax
	movl	%eax, %r9d
	movabsq	$.L.str.5, %rdx
	movq	%rcx, %rdi
	movq	-624(%rbp), %r10        # 8-byte Reload
	movq	%rdx, -2520(%rbp)       # 8-byte Spill
	movq	%r10, %rdx
	movq	-2520(%rbp), %r11       # 8-byte Reload
	movq	%r11, (%rsp)
	callq	trace_logger_log_ptr
	movl	$19134, %eax            # imm = 0x4ABE
	movl	%eax, %edi
	movl	$32, %eax
	movl	%eax, %esi
	movl	$1, %eax
	movl	%eax, %ecx
	movabsq	$.L.str.86, %r8
	xorl	%eax, %eax
	movl	%eax, %r9d
	movabsq	$.L.str.5, %rdx
	movq	-624(%rbp), %r10        # 8-byte Reload
	movl	(%r10), %eax
	movl	%eax, %ebx
	movl	%ebx, %r11d
	movq	%rdx, -2528(%rbp)       # 8-byte Spill
	movq	%r11, %rdx
	movq	-2528(%rbp), %r11       # 8-byte Reload
	movq	%r11, (%rsp)
	movl	%eax, -2532(%rbp)       # 4-byte Spill
	callq	trace_logger_log_int
	movl	$26, %eax
	movl	%eax, %edi
	movabsq	$.L.str.1, %rsi
	movabsq	$.L.str.44, %rdx
	movabsq	$.L.str.87, %rcx
	movl	$11, %eax
	movl	%eax, %r8d
	xorl	%r9d, %r9d
	movl	$1, %eax
	movl	$1, (%rsp)
	movl	%eax, -2536(%rbp)       # 4-byte Spill
	callq	trace_logger_log0
	movl	$2, %eax
	movl	%eax, %edi
	movl	$32, %eax
	movl	%eax, %esi
	movl	$1, %eax
	movl	%eax, %ecx
	movabsq	$.L.str.46, %r8
	xorl	%eax, %eax
	movl	%eax, %r9d
	movabsq	$.L.str.5, %rdx
	movl	-2412(%rbp), %eax       # 4-byte Reload
	movl	%eax, %ebx
	movl	%ebx, %r10d
	movq	%rdx, -2544(%rbp)       # 8-byte Spill
	movq	%r10, %rdx
	movq	-2544(%rbp), %r10       # 8-byte Reload
	movq	%r10, (%rsp)
	callq	trace_logger_log_int
	movl	$1, %eax
	movl	%eax, %ecx
	movl	$32, %eax
	movl	%eax, %esi
	movabsq	$.L.str.86, %r8
	xorl	%eax, %eax
	movl	%eax, %r9d
	movabsq	$.L.str.5, %rdx
	movl	-2532(%rbp), %eax       # 4-byte Reload
	movl	%eax, %ebx
	movl	%ebx, %edi
	movq	%rdi, -2552(%rbp)       # 8-byte Spill
	movq	%rcx, %rdi
	movq	-2552(%rbp), %r10       # 8-byte Reload
	movq	%rdx, -2560(%rbp)       # 8-byte Spill
	movq	%r10, %rdx
	movq	-2560(%rbp), %r11       # 8-byte Reload
	movq	%r11, (%rsp)
	callq	trace_logger_log_int
	movl	$19134, %eax            # imm = 0x4ABE
	movl	%eax, %edi
	movl	$32, %eax
	movl	%eax, %esi
	movl	$1, %eax
	movl	%eax, %ecx
	movabsq	$.L.str.87, %r8
	xorl	%eax, %eax
	movl	%eax, %r9d
	movabsq	$.L.str.5, %rdx
	movl	-2532(%rbp), %eax       # 4-byte Reload
	movl	-2412(%rbp), %ebx       # 4-byte Reload
	addl	%ebx, %eax
	movl	%eax, %r14d
	movl	%r14d, %r10d
	movq	%rdx, -2568(%rbp)       # 8-byte Spill
	movq	%r10, %rdx
	movq	-2568(%rbp), %r10       # 8-byte Reload
	movq	%r10, (%rsp)
	movl	%eax, -2572(%rbp)       # 4-byte Spill
	callq	trace_logger_log_int
	movl	$26, %eax
	movl	%eax, %edi
	movabsq	$.L.str.1, %rsi
	movabsq	$.L.str.44, %rdx
	movabsq	$.L.str.88, %rcx
	movl	$31, %eax
	movl	%eax, %r8d
	xorl	%r9d, %r9d
	movl	$1, %eax
	movl	$1, (%rsp)
	movl	%eax, -2576(%rbp)       # 4-byte Spill
	callq	trace_logger_log0
	movl	$2, %eax
	movl	%eax, %edi
	movl	$64, %eax
	movl	%eax, %esi
	movl	$1, %eax
	movl	%eax, %ecx
	movabsq	$.L.str.18, %r8
	xorl	%eax, %eax
	movl	%eax, %r9d
	movabsq	$.L.str.5, %rdx
	movq	-560(%rbp), %r10        # 8-byte Reload
	movq	%rdx, -2584(%rbp)       # 8-byte Spill
	movq	%r10, %rdx
	movq	-2584(%rbp), %r11       # 8-byte Reload
	movq	%r11, (%rsp)
	callq	trace_logger_log_ptr
	movl	$1, %eax
	movl	%eax, %ecx
	movl	$32, %eax
	movl	%eax, %esi
	movabsq	$.L.str.87, %r8
	xorl	%eax, %eax
	movl	%eax, %r9d
	movabsq	$.L.str.5, %rdx
	movl	-2572(%rbp), %eax       # 4-byte Reload
	movl	%eax, %ebx
	movl	%ebx, %edi
	movq	%rdi, -2592(%rbp)       # 8-byte Spill
	movq	%rcx, %rdi
	movq	-2592(%rbp), %r10       # 8-byte Reload
	movq	%rdx, -2600(%rbp)       # 8-byte Spill
	movq	%r10, %rdx
	movq	-2600(%rbp), %r11       # 8-byte Reload
	movq	%r11, (%rsp)
	callq	trace_logger_log_int
	movl	$26, %eax
	movl	%eax, %edi
	movabsq	$.L.str.1, %rsi
	movabsq	$.L.str.44, %rdx
	movabsq	$.L.str.89, %rcx
	movl	$30, %eax
	movl	%eax, %r8d
	xorl	%r9d, %r9d
	movl	$1, %eax
	movq	-560(%rbp), %r10        # 8-byte Reload
	movl	-2572(%rbp), %ebx       # 4-byte Reload
	movl	%ebx, (%r10)
	movl	$1, (%rsp)
	movl	%eax, -2604(%rbp)       # 4-byte Spill
	callq	trace_logger_log0
	movl	$1, %eax
	movl	%eax, %ecx
	movl	$64, %eax
	movl	%eax, %esi
	movabsq	$.L.str.19, %r8
	xorl	%eax, %eax
	movl	%eax, %r9d
	movabsq	$.L.str.5, %rdx
	movq	%rcx, %rdi
	movq	-592(%rbp), %r10        # 8-byte Reload
	movq	%rdx, -2616(%rbp)       # 8-byte Spill
	movq	%r10, %rdx
	movq	-2616(%rbp), %r11       # 8-byte Reload
	movq	%r11, (%rsp)
	callq	trace_logger_log_ptr
	movl	$19134, %eax            # imm = 0x4ABE
	movl	%eax, %edi
	movl	$32, %eax
	movl	%eax, %esi
	movl	$1, %eax
	movl	%eax, %ecx
	movabsq	$.L.str.89, %r8
	xorl	%eax, %eax
	movl	%eax, %r9d
	movabsq	$.L.str.5, %rdx
	movq	-592(%rbp), %r10        # 8-byte Reload
	movl	(%r10), %eax
	movl	%eax, %ebx
	movl	%ebx, %r11d
	movq	%rdx, -2624(%rbp)       # 8-byte Spill
	movq	%r11, %rdx
	movq	-2624(%rbp), %r11       # 8-byte Reload
	movq	%r11, (%rsp)
	movl	%eax, -2628(%rbp)       # 4-byte Spill
	callq	trace_logger_log_int
	movl	$26, %eax
	movl	%eax, %edi
	movabsq	$.L.str.1, %rsi
	movabsq	$.L.str.44, %rdx
	movabsq	$.L.str.90, %rcx
	movl	$13, %eax
	movl	%eax, %r8d
	xorl	%r9d, %r9d
	movl	$1, %eax
	movl	$1, (%rsp)
	movl	%eax, -2632(%rbp)       # 4-byte Spill
	callq	trace_logger_log0
	movl	$2, %eax
	movl	%eax, %edi
	movl	$32, %eax
	movl	%eax, %esi
	movl	$1, %eax
	movl	%eax, %ecx
	movabsq	$.L.str.89, %r8
	xorl	%eax, %eax
	movl	%eax, %r9d
	movabsq	$.L.str.5, %rdx
	movl	-2628(%rbp), %eax       # 4-byte Reload
	movl	%eax, %ebx
	movl	%ebx, %r10d
	movq	%rdx, -2640(%rbp)       # 8-byte Spill
	movq	%r10, %rdx
	movq	-2640(%rbp), %r10       # 8-byte Reload
	movq	%r10, (%rsp)
	callq	trace_logger_log_int
	movl	$1, %eax
	movl	%eax, %ecx
	movl	$32, %eax
	movl	%eax, %esi
	movabsq	$.L.str.45, %r8
	xorl	%eax, %eax
	movl	%eax, %r9d
	movabsq	$.L.str.5, %rdx
	movl	-2388(%rbp), %eax       # 4-byte Reload
	movl	%eax, %ebx
	movl	%ebx, %edi
	movq	%rdi, -2648(%rbp)       # 8-byte Spill
	movq	%rcx, %rdi
	movq	-2648(%rbp), %r10       # 8-byte Reload
	movq	%rdx, -2656(%rbp)       # 8-byte Spill
	movq	%r10, %rdx
	movq	-2656(%rbp), %r11       # 8-byte Reload
	movq	%r11, (%rsp)
	callq	trace_logger_log_int
	movl	$19134, %eax            # imm = 0x4ABE
	movl	%eax, %edi
	movl	$32, %eax
	movl	%eax, %esi
	movl	$1, %eax
	movl	%eax, %ecx
	movabsq	$.L.str.90, %r8
	xorl	%eax, %eax
	movl	%eax, %r9d
	movabsq	$.L.str.5, %rdx
	movl	-2388(%rbp), %eax       # 4-byte Reload
	movl	-2628(%rbp), %ebx       # 4-byte Reload
	subl	%ebx, %eax
	movl	%eax, %r14d
	movl	%r14d, %r10d
	movq	%rdx, -2664(%rbp)       # 8-byte Spill
	movq	%r10, %rdx
	movq	-2664(%rbp), %r10       # 8-byte Reload
	movq	%r10, (%rsp)
	movl	%eax, -2668(%rbp)       # 4-byte Spill
	callq	trace_logger_log_int
	movl	$26, %eax
	movl	%eax, %edi
	movabsq	$.L.str.1, %rsi
	movabsq	$.L.str.44, %rdx
	movabsq	$.L.str.91, %rcx
	movl	$31, %eax
	movl	%eax, %r8d
	xorl	%r9d, %r9d
	movl	$1, %eax
	movl	$1, (%rsp)
	movl	%eax, -2672(%rbp)       # 4-byte Spill
	callq	trace_logger_log0
	movl	$2, %eax
	movl	%eax, %edi
	movl	$64, %eax
	movl	%eax, %esi
	movl	$1, %eax
	movl	%eax, %ecx
	movabsq	$.L.str.19, %r8
	xorl	%eax, %eax
	movl	%eax, %r9d
	movabsq	$.L.str.5, %rdx
	movq	-592(%rbp), %r10        # 8-byte Reload
	movq	%rdx, -2680(%rbp)       # 8-byte Spill
	movq	%r10, %rdx
	movq	-2680(%rbp), %r11       # 8-byte Reload
	movq	%r11, (%rsp)
	callq	trace_logger_log_ptr
	movl	$1, %eax
	movl	%eax, %ecx
	movl	$32, %eax
	movl	%eax, %esi
	movabsq	$.L.str.90, %r8
	xorl	%eax, %eax
	movl	%eax, %r9d
	movabsq	$.L.str.5, %rdx
	movl	-2668(%rbp), %eax       # 4-byte Reload
	movl	%eax, %ebx
	movl	%ebx, %edi
	movq	%rdi, -2688(%rbp)       # 8-byte Spill
	movq	%rcx, %rdi
	movq	-2688(%rbp), %r10       # 8-byte Reload
	movq	%rdx, -2696(%rbp)       # 8-byte Spill
	movq	%r10, %rdx
	movq	-2696(%rbp), %r11       # 8-byte Reload
	movq	%r11, (%rsp)
	callq	trace_logger_log_int
	movl	$26, %eax
	movl	%eax, %edi
	movabsq	$.L.str.1, %rsi
	movabsq	$.L.str.44, %rdx
	movabsq	$.L.str.92, %rcx
	movl	$30, %eax
	movl	%eax, %r8d
	xorl	%r9d, %r9d
	movl	$1, %eax
	movq	-592(%rbp), %r10        # 8-byte Reload
	movl	-2668(%rbp), %ebx       # 4-byte Reload
	movl	%ebx, (%r10)
	movl	$1, (%rsp)
	movl	%eax, -2700(%rbp)       # 4-byte Spill
	callq	trace_logger_log0
	movl	$1, %eax
	movl	%eax, %ecx
	movl	$64, %eax
	movl	%eax, %esi
	movabsq	$.L.str.20, %r8
	xorl	%eax, %eax
	movl	%eax, %r9d
	movabsq	$.L.str.5, %rdx
	movq	%rcx, %rdi
	movq	-624(%rbp), %r10        # 8-byte Reload
	movq	%rdx, -2712(%rbp)       # 8-byte Spill
	movq	%r10, %rdx
	movq	-2712(%rbp), %r11       # 8-byte Reload
	movq	%r11, (%rsp)
	callq	trace_logger_log_ptr
	movl	$19134, %eax            # imm = 0x4ABE
	movl	%eax, %edi
	movl	$32, %eax
	movl	%eax, %esi
	movl	$1, %eax
	movl	%eax, %ecx
	movabsq	$.L.str.92, %r8
	xorl	%eax, %eax
	movl	%eax, %r9d
	movabsq	$.L.str.5, %rdx
	movq	-624(%rbp), %r10        # 8-byte Reload
	movl	(%r10), %eax
	movl	%eax, %ebx
	movl	%ebx, %r11d
	movq	%rdx, -2720(%rbp)       # 8-byte Spill
	movq	%r11, %rdx
	movq	-2720(%rbp), %r11       # 8-byte Reload
	movq	%r11, (%rsp)
	movl	%eax, -2724(%rbp)       # 4-byte Spill
	callq	trace_logger_log_int
	movl	$26, %eax
	movl	%eax, %edi
	movabsq	$.L.str.1, %rsi
	movabsq	$.L.str.44, %rdx
	movabsq	$.L.str.93, %rcx
	movl	$13, %eax
	movl	%eax, %r8d
	xorl	%r9d, %r9d
	movl	$1, %eax
	movl	$1, (%rsp)
	movl	%eax, -2728(%rbp)       # 4-byte Spill
	callq	trace_logger_log0
	movl	$2, %eax
	movl	%eax, %edi
	movl	$32, %eax
	movl	%eax, %esi
	movl	$1, %eax
	movl	%eax, %ecx
	movabsq	$.L.str.92, %r8
	xorl	%eax, %eax
	movl	%eax, %r9d
	movabsq	$.L.str.5, %rdx
	movl	-2724(%rbp), %eax       # 4-byte Reload
	movl	%eax, %ebx
	movl	%ebx, %r10d
	movq	%rdx, -2736(%rbp)       # 8-byte Spill
	movq	%r10, %rdx
	movq	-2736(%rbp), %r10       # 8-byte Reload
	movq	%r10, (%rsp)
	callq	trace_logger_log_int
	movl	$1, %eax
	movl	%eax, %ecx
	movl	$32, %eax
	movl	%eax, %esi
	movabsq	$.L.str.46, %r8
	xorl	%eax, %eax
	movl	%eax, %r9d
	movabsq	$.L.str.5, %rdx
	movl	-2412(%rbp), %eax       # 4-byte Reload
	movl	%eax, %ebx
	movl	%ebx, %edi
	movq	%rdi, -2744(%rbp)       # 8-byte Spill
	movq	%rcx, %rdi
	movq	-2744(%rbp), %r10       # 8-byte Reload
	movq	%rdx, -2752(%rbp)       # 8-byte Spill
	movq	%r10, %rdx
	movq	-2752(%rbp), %r11       # 8-byte Reload
	movq	%r11, (%rsp)
	callq	trace_logger_log_int
	movl	$19134, %eax            # imm = 0x4ABE
	movl	%eax, %edi
	movl	$32, %eax
	movl	%eax, %esi
	movl	$1, %eax
	movl	%eax, %ecx
	movabsq	$.L.str.93, %r8
	xorl	%eax, %eax
	movl	%eax, %r9d
	movabsq	$.L.str.5, %rdx
	movl	-2412(%rbp), %eax       # 4-byte Reload
	movl	-2724(%rbp), %ebx       # 4-byte Reload
	subl	%ebx, %eax
	movl	%eax, %r14d
	movl	%r14d, %r10d
	movq	%rdx, -2760(%rbp)       # 8-byte Spill
	movq	%r10, %rdx
	movq	-2760(%rbp), %r10       # 8-byte Reload
	movq	%r10, (%rsp)
	movl	%eax, -2764(%rbp)       # 4-byte Spill
	callq	trace_logger_log_int
	movl	$26, %eax
	movl	%eax, %edi
	movabsq	$.L.str.1, %rsi
	movabsq	$.L.str.44, %rdx
	movabsq	$.L.str.94, %rcx
	movl	$31, %eax
	movl	%eax, %r8d
	xorl	%r9d, %r9d
	movl	$1, %eax
	movl	$1, (%rsp)
	movl	%eax, -2768(%rbp)       # 4-byte Spill
	callq	trace_logger_log0
	movl	$2, %eax
	movl	%eax, %edi
	movl	$64, %eax
	movl	%eax, %esi
	movl	$1, %eax
	movl	%eax, %ecx
	movabsq	$.L.str.20, %r8
	xorl	%eax, %eax
	movl	%eax, %r9d
	movabsq	$.L.str.5, %rdx
	movq	-624(%rbp), %r10        # 8-byte Reload
	movq	%rdx, -2776(%rbp)       # 8-byte Spill
	movq	%r10, %rdx
	movq	-2776(%rbp), %r11       # 8-byte Reload
	movq	%r11, (%rsp)
	callq	trace_logger_log_ptr
	movl	$1, %eax
	movl	%eax, %ecx
	movl	$32, %eax
	movl	%eax, %esi
	movabsq	$.L.str.93, %r8
	xorl	%eax, %eax
	movl	%eax, %r9d
	movabsq	$.L.str.5, %rdx
	movl	-2764(%rbp), %eax       # 4-byte Reload
	movl	%eax, %ebx
	movl	%ebx, %edi
	movq	%rdi, -2784(%rbp)       # 8-byte Spill
	movq	%rcx, %rdi
	movq	-2784(%rbp), %r10       # 8-byte Reload
	movq	%rdx, -2792(%rbp)       # 8-byte Spill
	movq	%r10, %rdx
	movq	-2792(%rbp), %r11       # 8-byte Reload
	movq	%r11, (%rsp)
	callq	trace_logger_log_int
	movl	$26, %eax
	movl	%eax, %edi
	movabsq	$.L.str.1, %rsi
	movabsq	$.L.str.44, %rdx
	movabsq	$.L.str.95, %rcx
	movl	$30, %eax
	movl	%eax, %r8d
	xorl	%r9d, %r9d
	movl	$1, %eax
	movq	-624(%rbp), %r10        # 8-byte Reload
	movl	-2764(%rbp), %ebx       # 4-byte Reload
	movl	%ebx, (%r10)
.Ltmp22:
	.loc	1 26 3                  # fft.c:26:3
	movl	$1, (%rsp)
	movl	%eax, -2796(%rbp)       # 4-byte Spill
	callq	trace_logger_log0
	movl	$1, %eax
	movl	%eax, %ecx
	movl	$64, %eax
	movl	%eax, %esi
	movabsq	$.L.str.11, %r8
	xorl	%eax, %eax
	movl	%eax, %r9d
	movabsq	$.L.str.5, %rdx
	movq	%rcx, %rdi
	movq	-320(%rbp), %r10        # 8-byte Reload
	movq	%rdx, -2808(%rbp)       # 8-byte Spill
	movq	%r10, %rdx
	movq	-2808(%rbp), %r11       # 8-byte Reload
	movq	%r11, (%rsp)
	callq	trace_logger_log_ptr
	movl	$19134, %eax            # imm = 0x4ABE
	movl	%eax, %edi
	movl	$32, %eax
	movl	%eax, %esi
	movl	$1, %eax
	movl	%eax, %ecx
	movabsq	$.L.str.95, %r8
	xorl	%eax, %eax
	movl	%eax, %r9d
	movabsq	$.L.str.5, %rdx
	movq	-320(%rbp), %r10        # 8-byte Reload
	movl	(%r10), %eax
	movl	%eax, %ebx
	movl	%ebx, %r11d
	movq	%rdx, -2816(%rbp)       # 8-byte Spill
	movq	%r11, %rdx
	movq	-2816(%rbp), %r11       # 8-byte Reload
	movq	%r11, (%rsp)
	movl	%eax, -2820(%rbp)       # 4-byte Spill
	callq	trace_logger_log_int
	movl	$26, %eax
	movl	%eax, %edi
	movabsq	$.L.str.1, %rsi
	movabsq	$.L.str.44, %rdx
	movabsq	$.L.str.96, %rcx
	movl	$30, %eax
	movl	%eax, %r8d
	xorl	%r9d, %r9d
	movl	$1, %eax
.Ltmp23:
	#DEBUG_VALUE: tmp_1 <- [DW_OP_constu 2820, DW_OP_minus] [%rbp+0]
	movl	$1, (%rsp)
	movl	%eax, -2824(%rbp)       # 4-byte Spill
	callq	trace_logger_log0
	movl	$1, %eax
	movl	%eax, %ecx
	movl	$64, %eax
	movl	%eax, %esi
	movabsq	$.L.str.12, %r8
	xorl	%eax, %eax
	movl	%eax, %r9d
	movabsq	$.L.str.5, %rdx
	movq	%rcx, %rdi
	movq	-352(%rbp), %r10        # 8-byte Reload
	movq	%rdx, -2832(%rbp)       # 8-byte Spill
	movq	%r10, %rdx
	movq	-2832(%rbp), %r11       # 8-byte Reload
	movq	%r11, (%rsp)
	callq	trace_logger_log_ptr
	movl	$19134, %eax            # imm = 0x4ABE
	movl	%eax, %edi
	movl	$32, %eax
	movl	%eax, %esi
	movl	$1, %eax
	movl	%eax, %ecx
	movabsq	$.L.str.96, %r8
	xorl	%eax, %eax
	movl	%eax, %r9d
	movabsq	$.L.str.5, %rdx
	movq	-352(%rbp), %r10        # 8-byte Reload
	movl	(%r10), %eax
	movl	%eax, %ebx
	movl	%ebx, %r11d
	movq	%rdx, -2840(%rbp)       # 8-byte Spill
	movq	%r11, %rdx
	movq	-2840(%rbp), %r11       # 8-byte Reload
	movq	%r11, (%rsp)
	movl	%eax, -2844(%rbp)       # 4-byte Spill
	callq	trace_logger_log_int
	movl	$26, %eax
	movl	%eax, %edi
	movabsq	$.L.str.1, %rsi
	movabsq	$.L.str.44, %rdx
	movabsq	$.L.str.97, %rcx
	movl	$11, %eax
	movl	%eax, %r8d
	xorl	%r9d, %r9d
	movl	$1, %eax
	movl	$1, (%rsp)
	movl	%eax, -2848(%rbp)       # 4-byte Spill
	callq	trace_logger_log0
	movl	$2, %eax
	movl	%eax, %edi
	movl	$32, %eax
	movl	%eax, %esi
	movl	$1, %eax
	movl	%eax, %ecx
	movabsq	$.L.str.95, %r8
	xorl	%eax, %eax
	movl	%eax, %r9d
	movabsq	$.L.str.5, %rdx
	movl	-2820(%rbp), %eax       # 4-byte Reload
	movl	%eax, %ebx
	movl	%ebx, %r10d
	movq	%rdx, -2856(%rbp)       # 8-byte Spill
	movq	%r10, %rdx
	movq	-2856(%rbp), %r10       # 8-byte Reload
	movq	%r10, (%rsp)
	callq	trace_logger_log_int
	movl	$1, %eax
	movl	%eax, %ecx
	movl	$32, %eax
	movl	%eax, %esi
	movabsq	$.L.str.96, %r8
	xorl	%eax, %eax
	movl	%eax, %r9d
	movabsq	$.L.str.5, %rdx
	movl	-2844(%rbp), %eax       # 4-byte Reload
	movl	%eax, %ebx
	movl	%ebx, %edi
	movq	%rdi, -2864(%rbp)       # 8-byte Spill
	movq	%rcx, %rdi
	movq	-2864(%rbp), %r10       # 8-byte Reload
	movq	%rdx, -2872(%rbp)       # 8-byte Spill
	movq	%r10, %rdx
	movq	-2872(%rbp), %r11       # 8-byte Reload
	movq	%r11, (%rsp)
	callq	trace_logger_log_int
	movl	$19134, %eax            # imm = 0x4ABE
	movl	%eax, %edi
	movl	$32, %eax
	movl	%eax, %esi
	movl	$1, %eax
	movl	%eax, %ecx
	movabsq	$.L.str.97, %r8
	xorl	%eax, %eax
	movl	%eax, %r9d
	movabsq	$.L.str.5, %rdx
	movl	-2844(%rbp), %eax       # 4-byte Reload
	movl	-2820(%rbp), %ebx       # 4-byte Reload
	addl	%ebx, %eax
	movl	%eax, %r14d
	movl	%r14d, %r10d
	movq	%rdx, -2880(%rbp)       # 8-byte Spill
	movq	%r10, %rdx
	movq	-2880(%rbp), %r10       # 8-byte Reload
	movq	%r10, (%rsp)
	movl	%eax, -2884(%rbp)       # 4-byte Spill
	callq	trace_logger_log_int
	movl	$26, %eax
	movl	%eax, %edi
	movabsq	$.L.str.1, %rsi
	movabsq	$.L.str.44, %rdx
	movabsq	$.L.str.98, %rcx
	movl	$42, %eax
	movl	%eax, %r8d
	xorl	%r9d, %r9d
	movl	$1, %eax
	movl	$1, (%rsp)
	movl	%eax, -2888(%rbp)       # 4-byte Spill
	callq	trace_logger_log0
	movl	$1, %eax
	movl	%eax, %ecx
	movl	$32, %eax
	movl	%eax, %esi
	movabsq	$.L.str.97, %r8
	xorl	%eax, %eax
	movl	%eax, %r9d
	movabsq	$.L.str.5, %rdx
	movl	-2884(%rbp), %eax       # 4-byte Reload
	movl	%eax, %ebx
	movl	%ebx, %edi
	movq	%rdi, -2896(%rbp)       # 8-byte Spill
	movq	%rcx, %rdi
	movq	-2896(%rbp), %r10       # 8-byte Reload
	movq	%rdx, -2904(%rbp)       # 8-byte Spill
	movq	%r10, %rdx
	movq	-2904(%rbp), %r11       # 8-byte Reload
	movq	%r11, (%rsp)
	callq	trace_logger_log_int
	movl	$19134, %eax            # imm = 0x4ABE
	movl	%eax, %edi
	movl	$32, %eax
	movl	%eax, %esi
	movl	$1, %eax
	movl	%eax, %edx
	movabsq	$.L.str.98, %rcx
	xorl	%eax, %eax
	movl	%eax, %r8d
	movabsq	$.L.str.5, %r9
	movl	-2884(%rbp), %eax       # 4-byte Reload
	cvtsi2ssl	%eax, %xmm0
	cvtss2sd	%xmm0, %xmm1
	movss	%xmm0, -2908(%rbp)      # 4-byte Spill
	movaps	%xmm1, %xmm0
	callq	trace_logger_log_double
	movl	$26, %eax
	movl	%eax, %edi
	movabsq	$.L.str.1, %rsi
	movabsq	$.L.str.44, %rdx
	movabsq	$.L.str.99, %rcx
	movl	$16, %eax
	movl	%eax, %r8d
	xorl	%r9d, %r9d
	movl	$1, %eax
	movl	$1, (%rsp)
	movl	%eax, -2912(%rbp)       # 4-byte Spill
	callq	trace_logger_log0
	movl	$2, %eax
	movl	%eax, %edi
	movl	$32, %eax
	movl	%eax, %esi
	movsd	.LCPI0_1(%rip), %xmm0   # xmm0 = mem[0],zero
	xorl	%eax, %eax
	movl	%eax, %ecx
	movabsq	$.L.str.4, %rdx
	movabsq	$.L.str.5, %r9
	movq	%rdx, -2920(%rbp)       # 8-byte Spill
	movq	%rcx, %rdx
	movq	-2920(%rbp), %r8        # 8-byte Reload
	movq	%rcx, -2928(%rbp)       # 8-byte Spill
	movq	%r8, %rcx
	movq	-2928(%rbp), %r8        # 8-byte Reload
	callq	trace_logger_log_double
	movl	$1, %eax
	movl	%eax, %ecx
	movl	$32, %eax
	movl	%eax, %esi
	movabsq	$.L.str.98, %rdx
	xorl	%eax, %eax
	movl	%eax, %r8d
	movabsq	$.L.str.5, %r9
	movss	-2908(%rbp), %xmm0      # 4-byte Reload
                                        # xmm0 = mem[0],zero,zero,zero
	cvtss2sd	%xmm0, %xmm0
	movq	%rcx, %rdi
	movq	%rdx, -2936(%rbp)       # 8-byte Spill
	movq	%rcx, %rdx
	movq	-2936(%rbp), %rcx       # 8-byte Reload
	callq	trace_logger_log_double
	movl	$19134, %eax            # imm = 0x4ABE
	movl	%eax, %edi
	movl	$32, %eax
	movl	%eax, %esi
	movl	$1, %eax
	movl	%eax, %edx
	movabsq	$.L.str.99, %rcx
	xorl	%eax, %eax
	movl	%eax, %r8d
	movabsq	$.L.str.5, %r9
	movss	.LCPI0_0(%rip), %xmm0   # xmm0 = mem[0],zero,zero,zero
	movss	-2908(%rbp), %xmm1      # 4-byte Reload
                                        # xmm1 = mem[0],zero,zero,zero
	mulss	%xmm0, %xmm1
	cvtss2sd	%xmm1, %xmm0
	movss	%xmm1, -2940(%rbp)      # 4-byte Spill
	callq	trace_logger_log_double
	movl	$26, %eax
	movl	%eax, %edi
	movabsq	$.L.str.1, %rsi
	movabsq	$.L.str.44, %rdx
	movabsq	$.L.str.100, %rcx
	movl	$40, %eax
	movl	%eax, %r8d
	xorl	%r9d, %r9d
	movl	$1, %eax
	movl	$1, (%rsp)
	movl	%eax, -2944(%rbp)       # 4-byte Spill
	callq	trace_logger_log0
	movl	$1, %eax
	movl	%eax, %ecx
	movl	$32, %eax
	movl	%eax, %esi
	movabsq	$.L.str.99, %rdx
	xorl	%eax, %eax
	movl	%eax, %r8d
	movabsq	$.L.str.5, %r9
	movss	-2940(%rbp), %xmm0      # 4-byte Reload
                                        # xmm0 = mem[0],zero,zero,zero
	cvtss2sd	%xmm0, %xmm0
	movq	%rcx, %rdi
	movq	%rdx, -2952(%rbp)       # 8-byte Spill
	movq	%rcx, %rdx
	movq	-2952(%rbp), %rcx       # 8-byte Reload
	callq	trace_logger_log_double
	movl	$19134, %eax            # imm = 0x4ABE
	movl	%eax, %edi
	movl	$32, %eax
	movl	%eax, %esi
	movl	$1, %eax
	movl	%eax, %ecx
	movabsq	$.L.str.100, %r8
	xorl	%eax, %eax
	movl	%eax, %r9d
	movabsq	$.L.str.5, %rdx
	movss	-2940(%rbp), %xmm0      # 4-byte Reload
                                        # xmm0 = mem[0],zero,zero,zero
	cvttss2si	%xmm0, %eax
	movl	%eax, %ebx
	movl	%ebx, %r10d
	movq	%rdx, -2960(%rbp)       # 8-byte Spill
	movq	%r10, %rdx
	movq	-2960(%rbp), %r10       # 8-byte Reload
	movq	%r10, (%rsp)
	movl	%eax, -2964(%rbp)       # 4-byte Spill
	callq	trace_logger_log_int
	movl	$26, %eax
	movl	%eax, %edi
	movabsq	$.L.str.1, %rsi
	movabsq	$.L.str.44, %rdx
	movabsq	$.L.str.101, %rcx
	movl	$31, %eax
	movl	%eax, %r8d
	xorl	%r9d, %r9d
	movl	$1, %eax
	movl	$1, (%rsp)
	movl	%eax, -2968(%rbp)       # 4-byte Spill
	callq	trace_logger_log0
	movl	$2, %eax
	movl	%eax, %edi
	movl	$64, %eax
	movl	%eax, %esi
	movl	$1, %eax
	movl	%eax, %ecx
	movabsq	$.L.str.11, %r8
	xorl	%eax, %eax
	movl	%eax, %r9d
	movabsq	$.L.str.5, %rdx
	movq	-320(%rbp), %r10        # 8-byte Reload
	movq	%rdx, -2976(%rbp)       # 8-byte Spill
	movq	%r10, %rdx
	movq	-2976(%rbp), %r11       # 8-byte Reload
	movq	%r11, (%rsp)
	callq	trace_logger_log_ptr
	movl	$1, %eax
	movl	%eax, %ecx
	movl	$32, %eax
	movl	%eax, %esi
	movabsq	$.L.str.100, %r8
	xorl	%eax, %eax
	movl	%eax, %r9d
	movabsq	$.L.str.5, %rdx
	movl	-2964(%rbp), %eax       # 4-byte Reload
	movl	%eax, %ebx
	movl	%ebx, %edi
	movq	%rdi, -2984(%rbp)       # 8-byte Spill
	movq	%rcx, %rdi
	movq	-2984(%rbp), %r10       # 8-byte Reload
	movq	%rdx, -2992(%rbp)       # 8-byte Spill
	movq	%r10, %rdx
	movq	-2992(%rbp), %r11       # 8-byte Reload
	movq	%r11, (%rsp)
	callq	trace_logger_log_int
	movl	$26, %eax
	movl	%eax, %edi
	movabsq	$.L.str.1, %rsi
	movabsq	$.L.str.44, %rdx
	movabsq	$.L.str.102, %rcx
	movl	$30, %eax
	movl	%eax, %r8d
	xorl	%r9d, %r9d
	movl	$1, %eax
	movq	-320(%rbp), %r10        # 8-byte Reload
	movl	-2964(%rbp), %ebx       # 4-byte Reload
	movl	%ebx, (%r10)
	movl	$1, (%rsp)
	movl	%eax, -2996(%rbp)       # 4-byte Spill
	callq	trace_logger_log0
	movl	$1, %eax
	movl	%eax, %ecx
	movl	$64, %eax
	movl	%eax, %esi
	movabsq	$.L.str.12, %r8
	xorl	%eax, %eax
	movl	%eax, %r9d
	movabsq	$.L.str.5, %rdx
	movq	%rcx, %rdi
	movq	-352(%rbp), %r10        # 8-byte Reload
	movq	%rdx, -3008(%rbp)       # 8-byte Spill
	movq	%r10, %rdx
	movq	-3008(%rbp), %r11       # 8-byte Reload
	movq	%r11, (%rsp)
	callq	trace_logger_log_ptr
	movl	$19134, %eax            # imm = 0x4ABE
	movl	%eax, %edi
	movl	$32, %eax
	movl	%eax, %esi
	movl	$1, %eax
	movl	%eax, %ecx
	movabsq	$.L.str.102, %r8
	xorl	%eax, %eax
	movl	%eax, %r9d
	movabsq	$.L.str.5, %rdx
	movq	-352(%rbp), %r10        # 8-byte Reload
	movl	(%r10), %eax
	movl	%eax, %ebx
	movl	%ebx, %r11d
	movq	%rdx, -3016(%rbp)       # 8-byte Spill
	movq	%r11, %rdx
	movq	-3016(%rbp), %r11       # 8-byte Reload
	movq	%r11, (%rsp)
	movl	%eax, -3020(%rbp)       # 4-byte Spill
	callq	trace_logger_log_int
	movl	$26, %eax
	movl	%eax, %edi
	movabsq	$.L.str.1, %rsi
	movabsq	$.L.str.44, %rdx
	movabsq	$.L.str.103, %rcx
	movl	$13, %eax
	movl	%eax, %r8d
	xorl	%r9d, %r9d
	movl	$1, %eax
	movl	$1, (%rsp)
	movl	%eax, -3024(%rbp)       # 4-byte Spill
	callq	trace_logger_log0
	movl	$2, %eax
	movl	%eax, %edi
	movl	$32, %eax
	movl	%eax, %esi
	movl	$1, %eax
	movl	%eax, %ecx
	movabsq	$.L.str.95, %r8
	xorl	%eax, %eax
	movl	%eax, %r9d
	movabsq	$.L.str.5, %rdx
	movl	-2820(%rbp), %eax       # 4-byte Reload
	movl	%eax, %ebx
	movl	%ebx, %r10d
	movq	%rdx, -3032(%rbp)       # 8-byte Spill
	movq	%r10, %rdx
	movq	-3032(%rbp), %r10       # 8-byte Reload
	movq	%r10, (%rsp)
	callq	trace_logger_log_int
	movl	$1, %eax
	movl	%eax, %ecx
	movl	$32, %eax
	movl	%eax, %esi
	movabsq	$.L.str.102, %r8
	xorl	%eax, %eax
	movl	%eax, %r9d
	movabsq	$.L.str.5, %rdx
	movl	-3020(%rbp), %eax       # 4-byte Reload
	movl	%eax, %ebx
	movl	%ebx, %edi
	movq	%rdi, -3040(%rbp)       # 8-byte Spill
	movq	%rcx, %rdi
	movq	-3040(%rbp), %r10       # 8-byte Reload
	movq	%rdx, -3048(%rbp)       # 8-byte Spill
	movq	%r10, %rdx
	movq	-3048(%rbp), %r11       # 8-byte Reload
	movq	%r11, (%rsp)
	callq	trace_logger_log_int
	movl	$19134, %eax            # imm = 0x4ABE
	movl	%eax, %edi
	movl	$32, %eax
	movl	%eax, %esi
	movl	$1, %eax
	movl	%eax, %ecx
	movabsq	$.L.str.103, %r8
	xorl	%eax, %eax
	movl	%eax, %r9d
	movabsq	$.L.str.5, %rdx
	movl	-3020(%rbp), %eax       # 4-byte Reload
	movl	-2820(%rbp), %ebx       # 4-byte Reload
	subl	%ebx, %eax
	movl	%eax, %r14d
	movl	%r14d, %r10d
	movq	%rdx, -3056(%rbp)       # 8-byte Spill
	movq	%r10, %rdx
	movq	-3056(%rbp), %r10       # 8-byte Reload
	movq	%r10, (%rsp)
	movl	%eax, -3060(%rbp)       # 4-byte Spill
	callq	trace_logger_log_int
	movl	$26, %eax
	movl	%eax, %edi
	movabsq	$.L.str.1, %rsi
	movabsq	$.L.str.44, %rdx
	movabsq	$.L.str.104, %rcx
	movl	$42, %eax
	movl	%eax, %r8d
	xorl	%r9d, %r9d
	movl	$1, %eax
	movl	$1, (%rsp)
	movl	%eax, -3064(%rbp)       # 4-byte Spill
	callq	trace_logger_log0
	movl	$1, %eax
	movl	%eax, %ecx
	movl	$32, %eax
	movl	%eax, %esi
	movabsq	$.L.str.103, %r8
	xorl	%eax, %eax
	movl	%eax, %r9d
	movabsq	$.L.str.5, %rdx
	movl	-3060(%rbp), %eax       # 4-byte Reload
	movl	%eax, %ebx
	movl	%ebx, %edi
	movq	%rdi, -3072(%rbp)       # 8-byte Spill
	movq	%rcx, %rdi
	movq	-3072(%rbp), %r10       # 8-byte Reload
	movq	%rdx, -3080(%rbp)       # 8-byte Spill
	movq	%r10, %rdx
	movq	-3080(%rbp), %r11       # 8-byte Reload
	movq	%r11, (%rsp)
	callq	trace_logger_log_int
	movl	$19134, %eax            # imm = 0x4ABE
	movl	%eax, %edi
	movl	$32, %eax
	movl	%eax, %esi
	movl	$1, %eax
	movl	%eax, %edx
	movabsq	$.L.str.104, %rcx
	xorl	%eax, %eax
	movl	%eax, %r8d
	movabsq	$.L.str.5, %r9
	movl	-3060(%rbp), %eax       # 4-byte Reload
	cvtsi2ssl	%eax, %xmm0
	cvtss2sd	%xmm0, %xmm1
	movss	%xmm0, -3084(%rbp)      # 4-byte Spill
	movaps	%xmm1, %xmm0
	callq	trace_logger_log_double
	movl	$26, %eax
	movl	%eax, %edi
	movabsq	$.L.str.1, %rsi
	movabsq	$.L.str.44, %rdx
	movabsq	$.L.str.105, %rcx
	movl	$16, %eax
	movl	%eax, %r8d
	xorl	%r9d, %r9d
	movl	$1, %eax
	movl	$1, (%rsp)
	movl	%eax, -3088(%rbp)       # 4-byte Spill
	callq	trace_logger_log0
	movl	$2, %eax
	movl	%eax, %edi
	movl	$32, %eax
	movl	%eax, %esi
	movsd	.LCPI0_1(%rip), %xmm0   # xmm0 = mem[0],zero
	xorl	%eax, %eax
	movl	%eax, %ecx
	movabsq	$.L.str.4, %rdx
	movabsq	$.L.str.5, %r9
	movq	%rdx, -3096(%rbp)       # 8-byte Spill
	movq	%rcx, %rdx
	movq	-3096(%rbp), %r8        # 8-byte Reload
	movq	%rcx, -3104(%rbp)       # 8-byte Spill
	movq	%r8, %rcx
	movq	-3104(%rbp), %r8        # 8-byte Reload
	callq	trace_logger_log_double
	movl	$1, %eax
	movl	%eax, %ecx
	movl	$32, %eax
	movl	%eax, %esi
	movabsq	$.L.str.104, %rdx
	xorl	%eax, %eax
	movl	%eax, %r8d
	movabsq	$.L.str.5, %r9
	movss	-3084(%rbp), %xmm0      # 4-byte Reload
                                        # xmm0 = mem[0],zero,zero,zero
	cvtss2sd	%xmm0, %xmm0
	movq	%rcx, %rdi
	movq	%rdx, -3112(%rbp)       # 8-byte Spill
	movq	%rcx, %rdx
	movq	-3112(%rbp), %rcx       # 8-byte Reload
	callq	trace_logger_log_double
	movl	$19134, %eax            # imm = 0x4ABE
	movl	%eax, %edi
	movl	$32, %eax
	movl	%eax, %esi
	movl	$1, %eax
	movl	%eax, %edx
	movabsq	$.L.str.105, %rcx
	xorl	%eax, %eax
	movl	%eax, %r8d
	movabsq	$.L.str.5, %r9
	movss	.LCPI0_0(%rip), %xmm0   # xmm0 = mem[0],zero,zero,zero
	movss	-3084(%rbp), %xmm1      # 4-byte Reload
                                        # xmm1 = mem[0],zero,zero,zero
	mulss	%xmm0, %xmm1
	cvtss2sd	%xmm1, %xmm0
	movss	%xmm1, -3116(%rbp)      # 4-byte Spill
	callq	trace_logger_log_double
	movl	$26, %eax
	movl	%eax, %edi
	movabsq	$.L.str.1, %rsi
	movabsq	$.L.str.44, %rdx
	movabsq	$.L.str.106, %rcx
	movl	$40, %eax
	movl	%eax, %r8d
	xorl	%r9d, %r9d
	movl	$1, %eax
	movl	$1, (%rsp)
	movl	%eax, -3120(%rbp)       # 4-byte Spill
	callq	trace_logger_log0
	movl	$1, %eax
	movl	%eax, %ecx
	movl	$32, %eax
	movl	%eax, %esi
	movabsq	$.L.str.105, %rdx
	xorl	%eax, %eax
	movl	%eax, %r8d
	movabsq	$.L.str.5, %r9
	movss	-3116(%rbp), %xmm0      # 4-byte Reload
                                        # xmm0 = mem[0],zero,zero,zero
	cvtss2sd	%xmm0, %xmm0
	movq	%rcx, %rdi
	movq	%rdx, -3128(%rbp)       # 8-byte Spill
	movq	%rcx, %rdx
	movq	-3128(%rbp), %rcx       # 8-byte Reload
	callq	trace_logger_log_double
	movl	$19134, %eax            # imm = 0x4ABE
	movl	%eax, %edi
	movl	$32, %eax
	movl	%eax, %esi
	movl	$1, %eax
	movl	%eax, %ecx
	movabsq	$.L.str.106, %r8
	xorl	%eax, %eax
	movl	%eax, %r9d
	movabsq	$.L.str.5, %rdx
	movss	-3116(%rbp), %xmm0      # 4-byte Reload
                                        # xmm0 = mem[0],zero,zero,zero
	cvttss2si	%xmm0, %eax
	movl	%eax, %ebx
	movl	%ebx, %r10d
	movq	%rdx, -3136(%rbp)       # 8-byte Spill
	movq	%r10, %rdx
	movq	-3136(%rbp), %r10       # 8-byte Reload
	movq	%r10, (%rsp)
	movl	%eax, -3140(%rbp)       # 4-byte Spill
	callq	trace_logger_log_int
	movl	$26, %eax
	movl	%eax, %edi
	movabsq	$.L.str.1, %rsi
	movabsq	$.L.str.44, %rdx
	movabsq	$.L.str.107, %rcx
	movl	$31, %eax
	movl	%eax, %r8d
	xorl	%r9d, %r9d
	movl	$1, %eax
	movl	$1, (%rsp)
	movl	%eax, -3144(%rbp)       # 4-byte Spill
	callq	trace_logger_log0
	movl	$2, %eax
	movl	%eax, %edi
	movl	$64, %eax
	movl	%eax, %esi
	movl	$1, %eax
	movl	%eax, %ecx
	movabsq	$.L.str.12, %r8
	xorl	%eax, %eax
	movl	%eax, %r9d
	movabsq	$.L.str.5, %rdx
	movq	-352(%rbp), %r10        # 8-byte Reload
	movq	%rdx, -3152(%rbp)       # 8-byte Spill
	movq	%r10, %rdx
	movq	-3152(%rbp), %r11       # 8-byte Reload
	movq	%r11, (%rsp)
	callq	trace_logger_log_ptr
	movl	$1, %eax
	movl	%eax, %ecx
	movl	$32, %eax
	movl	%eax, %esi
	movabsq	$.L.str.106, %r8
	xorl	%eax, %eax
	movl	%eax, %r9d
	movabsq	$.L.str.5, %rdx
	movl	-3140(%rbp), %eax       # 4-byte Reload
	movl	%eax, %ebx
	movl	%ebx, %edi
	movq	%rdi, -3160(%rbp)       # 8-byte Spill
	movq	%rcx, %rdi
	movq	-3160(%rbp), %r10       # 8-byte Reload
	movq	%rdx, -3168(%rbp)       # 8-byte Spill
	movq	%r10, %rdx
	movq	-3168(%rbp), %r11       # 8-byte Reload
	movq	%r11, (%rsp)
	callq	trace_logger_log_int
	movl	$26, %eax
	movl	%eax, %edi
	movabsq	$.L.str.1, %rsi
	movabsq	$.L.str.44, %rdx
	movabsq	$.L.str.95, %rcx
	movl	$30, %eax
	movl	%eax, %r8d
	xorl	%r9d, %r9d
	movl	$1, %eax
	movq	-352(%rbp), %r10        # 8-byte Reload
	movl	-3140(%rbp), %ebx       # 4-byte Reload
	movl	%ebx, (%r10)
	movl	$1, (%rsp)
	movl	%eax, -3172(%rbp)       # 4-byte Spill
	callq	trace_logger_log0
	movl	$1, %eax
	movl	%eax, %ecx
	movl	$64, %eax
	movl	%eax, %esi
	movabsq	$.L.str.15, %r8
	xorl	%eax, %eax
	movl	%eax, %r9d
	movabsq	$.L.str.5, %rdx
	movq	%rcx, %rdi
	movq	-464(%rbp), %r10        # 8-byte Reload
	movq	%rdx, -3184(%rbp)       # 8-byte Spill
	movq	%r10, %rdx
	movq	-3184(%rbp), %r11       # 8-byte Reload
	movq	%r11, (%rsp)
	callq	trace_logger_log_ptr
	movl	$19134, %eax            # imm = 0x4ABE
	movl	%eax, %edi
	movl	$32, %eax
	movl	%eax, %esi
	movl	$1, %eax
	movl	%eax, %ecx
	movabsq	$.L.str.95, %r8
	xorl	%eax, %eax
	movl	%eax, %r9d
	movabsq	$.L.str.5, %rdx
	movq	-464(%rbp), %r10        # 8-byte Reload
	movl	(%r10), %eax
	movl	%eax, %ebx
	movl	%ebx, %r11d
	movq	%rdx, -3192(%rbp)       # 8-byte Spill
	movq	%r11, %rdx
	movq	-3192(%rbp), %r11       # 8-byte Reload
	movq	%r11, (%rsp)
	movl	%eax, -3196(%rbp)       # 4-byte Spill
	callq	trace_logger_log_int
	movl	$26, %eax
	movl	%eax, %edi
	movabsq	$.L.str.1, %rsi
	movabsq	$.L.str.44, %rdx
	movabsq	$.L.str.108, %rcx
	movl	$30, %eax
	movl	%eax, %r8d
	xorl	%r9d, %r9d
	movl	$1, %eax
.Ltmp24:
	#DEBUG_VALUE: tmp_1 <- [DW_OP_constu 3196, DW_OP_minus] [%rbp+0]
	movl	$1, (%rsp)
	movl	%eax, -3200(%rbp)       # 4-byte Spill
	callq	trace_logger_log0
	movl	$1, %eax
	movl	%eax, %ecx
	movl	$64, %eax
	movl	%eax, %esi
	movabsq	$.L.str.16, %r8
	xorl	%eax, %eax
	movl	%eax, %r9d
	movabsq	$.L.str.5, %rdx
	movq	%rcx, %rdi
	movq	-496(%rbp), %r10        # 8-byte Reload
	movq	%rdx, -3208(%rbp)       # 8-byte Spill
	movq	%r10, %rdx
	movq	-3208(%rbp), %r11       # 8-byte Reload
	movq	%r11, (%rsp)
	callq	trace_logger_log_ptr
	movl	$19134, %eax            # imm = 0x4ABE
	movl	%eax, %edi
	movl	$32, %eax
	movl	%eax, %esi
	movl	$1, %eax
	movl	%eax, %ecx
	movabsq	$.L.str.108, %r8
	xorl	%eax, %eax
	movl	%eax, %r9d
	movabsq	$.L.str.5, %rdx
	movq	-496(%rbp), %r10        # 8-byte Reload
	movl	(%r10), %eax
	movl	%eax, %ebx
	movl	%ebx, %r11d
	movq	%rdx, -3216(%rbp)       # 8-byte Spill
	movq	%r11, %rdx
	movq	-3216(%rbp), %r11       # 8-byte Reload
	movq	%r11, (%rsp)
	movl	%eax, -3220(%rbp)       # 4-byte Spill
	callq	trace_logger_log_int
	movl	$26, %eax
	movl	%eax, %edi
	movabsq	$.L.str.1, %rsi
	movabsq	$.L.str.44, %rdx
	movabsq	$.L.str.109, %rcx
	movl	$31, %eax
	movl	%eax, %r8d
	xorl	%r9d, %r9d
	movl	$1, %eax
	movl	$1, (%rsp)
	movl	%eax, -3224(%rbp)       # 4-byte Spill
	callq	trace_logger_log0
	movl	$2, %eax
	movl	%eax, %edi
	movl	$64, %eax
	movl	%eax, %esi
	movl	$1, %eax
	movl	%eax, %ecx
	movabsq	$.L.str.15, %r8
	xorl	%eax, %eax
	movl	%eax, %r9d
	movabsq	$.L.str.5, %rdx
	movq	-464(%rbp), %r10        # 8-byte Reload
	movq	%rdx, -3232(%rbp)       # 8-byte Spill
	movq	%r10, %rdx
	movq	-3232(%rbp), %r11       # 8-byte Reload
	movq	%r11, (%rsp)
	callq	trace_logger_log_ptr
	movl	$1, %eax
	movl	%eax, %ecx
	movl	$32, %eax
	movl	%eax, %esi
	movabsq	$.L.str.108, %r8
	xorl	%eax, %eax
	movl	%eax, %r9d
	movabsq	$.L.str.5, %rdx
	movl	-3220(%rbp), %eax       # 4-byte Reload
	movl	%eax, %ebx
	movl	%ebx, %edi
	movq	%rdi, -3240(%rbp)       # 8-byte Spill
	movq	%rcx, %rdi
	movq	-3240(%rbp), %r10       # 8-byte Reload
	movq	%rdx, -3248(%rbp)       # 8-byte Spill
	movq	%r10, %rdx
	movq	-3248(%rbp), %r11       # 8-byte Reload
	movq	%r11, (%rsp)
	callq	trace_logger_log_int
	movl	$26, %eax
	movl	%eax, %edi
	movabsq	$.L.str.1, %rsi
	movabsq	$.L.str.44, %rdx
	movabsq	$.L.str.110, %rcx
	movl	$13, %eax
	movl	%eax, %r8d
	xorl	%r9d, %r9d
	movl	$1, %eax
	movq	-464(%rbp), %r10        # 8-byte Reload
	movl	-3220(%rbp), %ebx       # 4-byte Reload
	movl	%ebx, (%r10)
	movl	$1, (%rsp)
	movl	%eax, -3252(%rbp)       # 4-byte Spill
	callq	trace_logger_log0
	movl	$2, %eax
	movl	%eax, %edi
	movl	$32, %eax
	movl	%eax, %esi
	movl	$1, %eax
	movl	%eax, %ecx
	movabsq	$.L.str.95, %r8
	xorl	%eax, %eax
	movl	%eax, %r9d
	movabsq	$.L.str.5, %rdx
	movl	-3196(%rbp), %eax       # 4-byte Reload
	movl	%eax, %ebx
	movl	%ebx, %r10d
	movq	%rdx, -3264(%rbp)       # 8-byte Spill
	movq	%r10, %rdx
	movq	-3264(%rbp), %r10       # 8-byte Reload
	movq	%r10, (%rsp)
	callq	trace_logger_log_int
	movl	$1, %eax
	movl	%eax, %ecx
	movl	$32, %eax
	movl	%eax, %esi
	xorl	%eax, %eax
	movl	%eax, %edx
	movabsq	$.L.str.111, %r8
	movabsq	$.L.str.5, %rdi
	movq	%rdi, -3272(%rbp)       # 8-byte Spill
	movq	%rcx, %rdi
	movq	%rdx, -3280(%rbp)       # 8-byte Spill
	movq	-3280(%rbp), %r9        # 8-byte Reload
	movq	-3272(%rbp), %r10       # 8-byte Reload
	movq	%r10, (%rsp)
	callq	trace_logger_log_int
	movl	$19134, %eax            # imm = 0x4ABE
	movl	%eax, %edi
	movl	$32, %eax
	movl	%eax, %esi
	movl	$1, %eax
	movl	%eax, %ecx
	movabsq	$.L.str.110, %r8
	xorl	%eax, %eax
	movl	%eax, %r9d
	movabsq	$.L.str.5, %rdx
	xorl	%eax, %eax
	movl	-3196(%rbp), %ebx       # 4-byte Reload
	subl	%ebx, %eax
	movl	%eax, %r14d
	movl	%r14d, %r10d
	movq	%rdx, -3288(%rbp)       # 8-byte Spill
	movq	%r10, %rdx
	movq	-3288(%rbp), %r10       # 8-byte Reload
	movq	%r10, (%rsp)
	movl	%eax, -3292(%rbp)       # 4-byte Spill
	callq	trace_logger_log_int
	movl	$26, %eax
	movl	%eax, %edi
	movabsq	$.L.str.1, %rsi
	movabsq	$.L.str.44, %rdx
	movabsq	$.L.str.112, %rcx
	movl	$31, %eax
	movl	%eax, %r8d
	xorl	%r9d, %r9d
	movl	$1, %eax
	movl	$1, (%rsp)
	movl	%eax, -3296(%rbp)       # 4-byte Spill
	callq	trace_logger_log0
	movl	$2, %eax
	movl	%eax, %edi
	movl	$64, %eax
	movl	%eax, %esi
	movl	$1, %eax
	movl	%eax, %ecx
	movabsq	$.L.str.16, %r8
	xorl	%eax, %eax
	movl	%eax, %r9d
	movabsq	$.L.str.5, %rdx
	movq	-496(%rbp), %r10        # 8-byte Reload
	movq	%rdx, -3304(%rbp)       # 8-byte Spill
	movq	%r10, %rdx
	movq	-3304(%rbp), %r11       # 8-byte Reload
	movq	%r11, (%rsp)
	callq	trace_logger_log_ptr
	movl	$1, %eax
	movl	%eax, %ecx
	movl	$32, %eax
	movl	%eax, %esi
	movabsq	$.L.str.110, %r8
	xorl	%eax, %eax
	movl	%eax, %r9d
	movabsq	$.L.str.5, %rdx
	movl	-3292(%rbp), %eax       # 4-byte Reload
	movl	%eax, %ebx
	movl	%ebx, %edi
	movq	%rdi, -3312(%rbp)       # 8-byte Spill
	movq	%rcx, %rdi
	movq	-3312(%rbp), %r10       # 8-byte Reload
	movq	%rdx, -3320(%rbp)       # 8-byte Spill
	movq	%r10, %rdx
	movq	-3320(%rbp), %r11       # 8-byte Reload
	movq	%r11, (%rsp)
	callq	trace_logger_log_int
	movl	$26, %eax
	movl	%eax, %edi
	movabsq	$.L.str.1, %rsi
	movabsq	$.L.str.44, %rdx
	movabsq	$.L.str.95, %rcx
	movl	$30, %eax
	movl	%eax, %r8d
	xorl	%r9d, %r9d
	movl	$1, %eax
	movq	-496(%rbp), %r10        # 8-byte Reload
	movl	-3292(%rbp), %ebx       # 4-byte Reload
	movl	%ebx, (%r10)
	movl	$1, (%rsp)
	movl	%eax, -3324(%rbp)       # 4-byte Spill
	callq	trace_logger_log0
	movl	$1, %eax
	movl	%eax, %ecx
	movl	$64, %eax
	movl	%eax, %esi
	movabsq	$.L.str.19, %r8
	xorl	%eax, %eax
	movl	%eax, %r9d
	movabsq	$.L.str.5, %rdx
	movq	%rcx, %rdi
	movq	-592(%rbp), %r10        # 8-byte Reload
	movq	%rdx, -3336(%rbp)       # 8-byte Spill
	movq	%r10, %rdx
	movq	-3336(%rbp), %r11       # 8-byte Reload
	movq	%r11, (%rsp)
	callq	trace_logger_log_ptr
	movl	$19134, %eax            # imm = 0x4ABE
	movl	%eax, %edi
	movl	$32, %eax
	movl	%eax, %esi
	movl	$1, %eax
	movl	%eax, %ecx
	movabsq	$.L.str.95, %r8
	xorl	%eax, %eax
	movl	%eax, %r9d
	movabsq	$.L.str.5, %rdx
	movq	-592(%rbp), %r10        # 8-byte Reload
	movl	(%r10), %eax
	movl	%eax, %ebx
	movl	%ebx, %r11d
	movq	%rdx, -3344(%rbp)       # 8-byte Spill
	movq	%r11, %rdx
	movq	-3344(%rbp), %r11       # 8-byte Reload
	movq	%r11, (%rsp)
	movl	%eax, -3348(%rbp)       # 4-byte Spill
	callq	trace_logger_log_int
	movl	$26, %eax
	movl	%eax, %edi
	movabsq	$.L.str.1, %rsi
	movabsq	$.L.str.44, %rdx
	movabsq	$.L.str.113, %rcx
	movl	$30, %eax
	movl	%eax, %r8d
	xorl	%r9d, %r9d
	movl	$1, %eax
.Ltmp25:
	#DEBUG_VALUE: tmp_1 <- [DW_OP_constu 3348, DW_OP_minus] [%rbp+0]
	movl	$1, (%rsp)
	movl	%eax, -3352(%rbp)       # 4-byte Spill
	callq	trace_logger_log0
	movl	$1, %eax
	movl	%eax, %ecx
	movl	$64, %eax
	movl	%eax, %esi
	movabsq	$.L.str.20, %r8
	xorl	%eax, %eax
	movl	%eax, %r9d
	movabsq	$.L.str.5, %rdx
	movq	%rcx, %rdi
	movq	-624(%rbp), %r10        # 8-byte Reload
	movq	%rdx, -3360(%rbp)       # 8-byte Spill
	movq	%r10, %rdx
	movq	-3360(%rbp), %r11       # 8-byte Reload
	movq	%r11, (%rsp)
	callq	trace_logger_log_ptr
	movl	$19134, %eax            # imm = 0x4ABE
	movl	%eax, %edi
	movl	$32, %eax
	movl	%eax, %esi
	movl	$1, %eax
	movl	%eax, %ecx
	movabsq	$.L.str.113, %r8
	xorl	%eax, %eax
	movl	%eax, %r9d
	movabsq	$.L.str.5, %rdx
	movq	-624(%rbp), %r10        # 8-byte Reload
	movl	(%r10), %eax
	movl	%eax, %ebx
	movl	%ebx, %r11d
	movq	%rdx, -3368(%rbp)       # 8-byte Spill
	movq	%r11, %rdx
	movq	-3368(%rbp), %r11       # 8-byte Reload
	movq	%r11, (%rsp)
	movl	%eax, -3372(%rbp)       # 4-byte Spill
	callq	trace_logger_log_int
	movl	$26, %eax
	movl	%eax, %edi
	movabsq	$.L.str.1, %rsi
	movabsq	$.L.str.44, %rdx
	movabsq	$.L.str.114, %rcx
	movl	$13, %eax
	movl	%eax, %r8d
	xorl	%r9d, %r9d
	movl	$1, %eax
	movl	$1, (%rsp)
	movl	%eax, -3376(%rbp)       # 4-byte Spill
	callq	trace_logger_log0
	movl	$2, %eax
	movl	%eax, %edi
	movl	$32, %eax
	movl	%eax, %esi
	movl	$1, %eax
	movl	%eax, %ecx
	movabsq	$.L.str.95, %r8
	xorl	%eax, %eax
	movl	%eax, %r9d
	movabsq	$.L.str.5, %rdx
	movl	-3348(%rbp), %eax       # 4-byte Reload
	movl	%eax, %ebx
	movl	%ebx, %r10d
	movq	%rdx, -3384(%rbp)       # 8-byte Spill
	movq	%r10, %rdx
	movq	-3384(%rbp), %r10       # 8-byte Reload
	movq	%r10, (%rsp)
	callq	trace_logger_log_int
	movl	$1, %eax
	movl	%eax, %ecx
	movl	$32, %eax
	movl	%eax, %esi
	movabsq	$.L.str.113, %r8
	xorl	%eax, %eax
	movl	%eax, %r9d
	movabsq	$.L.str.5, %rdx
	movl	-3372(%rbp), %eax       # 4-byte Reload
	movl	%eax, %ebx
	movl	%ebx, %edi
	movq	%rdi, -3392(%rbp)       # 8-byte Spill
	movq	%rcx, %rdi
	movq	-3392(%rbp), %r10       # 8-byte Reload
	movq	%rdx, -3400(%rbp)       # 8-byte Spill
	movq	%r10, %rdx
	movq	-3400(%rbp), %r11       # 8-byte Reload
	movq	%r11, (%rsp)
	callq	trace_logger_log_int
	movl	$19134, %eax            # imm = 0x4ABE
	movl	%eax, %edi
	movl	$32, %eax
	movl	%eax, %esi
	movl	$1, %eax
	movl	%eax, %ecx
	movabsq	$.L.str.114, %r8
	xorl	%eax, %eax
	movl	%eax, %r9d
	movabsq	$.L.str.5, %rdx
	movl	-3372(%rbp), %eax       # 4-byte Reload
	movl	-3348(%rbp), %ebx       # 4-byte Reload
	subl	%ebx, %eax
	movl	%eax, %r14d
	movl	%r14d, %r10d
	movq	%rdx, -3408(%rbp)       # 8-byte Spill
	movq	%r10, %rdx
	movq	-3408(%rbp), %r10       # 8-byte Reload
	movq	%r10, (%rsp)
	movl	%eax, -3412(%rbp)       # 4-byte Spill
	callq	trace_logger_log_int
	movl	$26, %eax
	movl	%eax, %edi
	movabsq	$.L.str.1, %rsi
	movabsq	$.L.str.44, %rdx
	movabsq	$.L.str.115, %rcx
	movl	$42, %eax
	movl	%eax, %r8d
	xorl	%r9d, %r9d
	movl	$1, %eax
	movl	$1, (%rsp)
	movl	%eax, -3416(%rbp)       # 4-byte Spill
	callq	trace_logger_log0
	movl	$1, %eax
	movl	%eax, %ecx
	movl	$32, %eax
	movl	%eax, %esi
	movabsq	$.L.str.114, %r8
	xorl	%eax, %eax
	movl	%eax, %r9d
	movabsq	$.L.str.5, %rdx
	movl	-3412(%rbp), %eax       # 4-byte Reload
	movl	%eax, %ebx
	movl	%ebx, %edi
	movq	%rdi, -3424(%rbp)       # 8-byte Spill
	movq	%rcx, %rdi
	movq	-3424(%rbp), %r10       # 8-byte Reload
	movq	%rdx, -3432(%rbp)       # 8-byte Spill
	movq	%r10, %rdx
	movq	-3432(%rbp), %r11       # 8-byte Reload
	movq	%r11, (%rsp)
	callq	trace_logger_log_int
	movl	$19134, %eax            # imm = 0x4ABE
	movl	%eax, %edi
	movl	$32, %eax
	movl	%eax, %esi
	movl	$1, %eax
	movl	%eax, %edx
	movabsq	$.L.str.115, %rcx
	xorl	%eax, %eax
	movl	%eax, %r8d
	movabsq	$.L.str.5, %r9
	movl	-3412(%rbp), %eax       # 4-byte Reload
	cvtsi2ssl	%eax, %xmm0
	cvtss2sd	%xmm0, %xmm1
	movss	%xmm0, -3436(%rbp)      # 4-byte Spill
	movaps	%xmm1, %xmm0
	callq	trace_logger_log_double
	movl	$26, %eax
	movl	%eax, %edi
	movabsq	$.L.str.1, %rsi
	movabsq	$.L.str.44, %rdx
	movabsq	$.L.str.116, %rcx
	movl	$16, %eax
	movl	%eax, %r8d
	xorl	%r9d, %r9d
	movl	$1, %eax
	movl	$1, (%rsp)
	movl	%eax, -3440(%rbp)       # 4-byte Spill
	callq	trace_logger_log0
	movl	$2, %eax
	movl	%eax, %edi
	movl	$32, %eax
	movl	%eax, %esi
	movsd	.LCPI0_1(%rip), %xmm0   # xmm0 = mem[0],zero
	xorl	%eax, %eax
	movl	%eax, %ecx
	movabsq	$.L.str.4, %rdx
	movabsq	$.L.str.5, %r9
	movq	%rdx, -3448(%rbp)       # 8-byte Spill
	movq	%rcx, %rdx
	movq	-3448(%rbp), %r8        # 8-byte Reload
	movq	%rcx, -3456(%rbp)       # 8-byte Spill
	movq	%r8, %rcx
	movq	-3456(%rbp), %r8        # 8-byte Reload
	callq	trace_logger_log_double
	movl	$1, %eax
	movl	%eax, %ecx
	movl	$32, %eax
	movl	%eax, %esi
	movabsq	$.L.str.115, %rdx
	xorl	%eax, %eax
	movl	%eax, %r8d
	movabsq	$.L.str.5, %r9
	movss	-3436(%rbp), %xmm0      # 4-byte Reload
                                        # xmm0 = mem[0],zero,zero,zero
	cvtss2sd	%xmm0, %xmm0
	movq	%rcx, %rdi
	movq	%rdx, -3464(%rbp)       # 8-byte Spill
	movq	%rcx, %rdx
	movq	-3464(%rbp), %rcx       # 8-byte Reload
	callq	trace_logger_log_double
	movl	$19134, %eax            # imm = 0x4ABE
	movl	%eax, %edi
	movl	$32, %eax
	movl	%eax, %esi
	movl	$1, %eax
	movl	%eax, %edx
	movabsq	$.L.str.116, %rcx
	xorl	%eax, %eax
	movl	%eax, %r8d
	movabsq	$.L.str.5, %r9
	movss	.LCPI0_0(%rip), %xmm0   # xmm0 = mem[0],zero,zero,zero
	movss	-3436(%rbp), %xmm1      # 4-byte Reload
                                        # xmm1 = mem[0],zero,zero,zero
	mulss	%xmm0, %xmm1
	cvtss2sd	%xmm1, %xmm0
	movss	%xmm1, -3468(%rbp)      # 4-byte Spill
	callq	trace_logger_log_double
	movl	$26, %eax
	movl	%eax, %edi
	movabsq	$.L.str.1, %rsi
	movabsq	$.L.str.44, %rdx
	movabsq	$.L.str.117, %rcx
	movl	$40, %eax
	movl	%eax, %r8d
	xorl	%r9d, %r9d
	movl	$1, %eax
	movl	$1, (%rsp)
	movl	%eax, -3472(%rbp)       # 4-byte Spill
	callq	trace_logger_log0
	movl	$1, %eax
	movl	%eax, %ecx
	movl	$32, %eax
	movl	%eax, %esi
	movabsq	$.L.str.116, %rdx
	xorl	%eax, %eax
	movl	%eax, %r8d
	movabsq	$.L.str.5, %r9
	movss	-3468(%rbp), %xmm0      # 4-byte Reload
                                        # xmm0 = mem[0],zero,zero,zero
	cvtss2sd	%xmm0, %xmm0
	movq	%rcx, %rdi
	movq	%rdx, -3480(%rbp)       # 8-byte Spill
	movq	%rcx, %rdx
	movq	-3480(%rbp), %rcx       # 8-byte Reload
	callq	trace_logger_log_double
	movl	$19134, %eax            # imm = 0x4ABE
	movl	%eax, %edi
	movl	$32, %eax
	movl	%eax, %esi
	movl	$1, %eax
	movl	%eax, %ecx
	movabsq	$.L.str.117, %r8
	xorl	%eax, %eax
	movl	%eax, %r9d
	movabsq	$.L.str.5, %rdx
	movss	-3468(%rbp), %xmm0      # 4-byte Reload
                                        # xmm0 = mem[0],zero,zero,zero
	cvttss2si	%xmm0, %eax
	movl	%eax, %ebx
	movl	%ebx, %r10d
	movq	%rdx, -3488(%rbp)       # 8-byte Spill
	movq	%r10, %rdx
	movq	-3488(%rbp), %r10       # 8-byte Reload
	movq	%r10, (%rsp)
	movl	%eax, -3492(%rbp)       # 4-byte Spill
	callq	trace_logger_log_int
	movl	$26, %eax
	movl	%eax, %edi
	movabsq	$.L.str.1, %rsi
	movabsq	$.L.str.44, %rdx
	movabsq	$.L.str.118, %rcx
	movl	$31, %eax
	movl	%eax, %r8d
	xorl	%r9d, %r9d
	movl	$1, %eax
	movl	$1, (%rsp)
	movl	%eax, -3496(%rbp)       # 4-byte Spill
	callq	trace_logger_log0
	movl	$2, %eax
	movl	%eax, %edi
	movl	$64, %eax
	movl	%eax, %esi
	movl	$1, %eax
	movl	%eax, %ecx
	movabsq	$.L.str.19, %r8
	xorl	%eax, %eax
	movl	%eax, %r9d
	movabsq	$.L.str.5, %rdx
	movq	-592(%rbp), %r10        # 8-byte Reload
	movq	%rdx, -3504(%rbp)       # 8-byte Spill
	movq	%r10, %rdx
	movq	-3504(%rbp), %r11       # 8-byte Reload
	movq	%r11, (%rsp)
	callq	trace_logger_log_ptr
	movl	$1, %eax
	movl	%eax, %ecx
	movl	$32, %eax
	movl	%eax, %esi
	movabsq	$.L.str.117, %r8
	xorl	%eax, %eax
	movl	%eax, %r9d
	movabsq	$.L.str.5, %rdx
	movl	-3492(%rbp), %eax       # 4-byte Reload
	movl	%eax, %ebx
	movl	%ebx, %edi
	movq	%rdi, -3512(%rbp)       # 8-byte Spill
	movq	%rcx, %rdi
	movq	-3512(%rbp), %r10       # 8-byte Reload
	movq	%rdx, -3520(%rbp)       # 8-byte Spill
	movq	%r10, %rdx
	movq	-3520(%rbp), %r11       # 8-byte Reload
	movq	%r11, (%rsp)
	callq	trace_logger_log_int
	movl	$26, %eax
	movl	%eax, %edi
	movabsq	$.L.str.1, %rsi
	movabsq	$.L.str.44, %rdx
	movabsq	$.L.str.119, %rcx
	movl	$30, %eax
	movl	%eax, %r8d
	xorl	%r9d, %r9d
	movl	$1, %eax
	movq	-592(%rbp), %r10        # 8-byte Reload
	movl	-3492(%rbp), %ebx       # 4-byte Reload
	movl	%ebx, (%r10)
	movl	$1, (%rsp)
	movl	%eax, -3524(%rbp)       # 4-byte Spill
	callq	trace_logger_log0
	movl	$1, %eax
	movl	%eax, %ecx
	movl	$64, %eax
	movl	%eax, %esi
	movabsq	$.L.str.20, %r8
	xorl	%eax, %eax
	movl	%eax, %r9d
	movabsq	$.L.str.5, %rdx
	movq	%rcx, %rdi
	movq	-624(%rbp), %r10        # 8-byte Reload
	movq	%rdx, -3536(%rbp)       # 8-byte Spill
	movq	%r10, %rdx
	movq	-3536(%rbp), %r11       # 8-byte Reload
	movq	%r11, (%rsp)
	callq	trace_logger_log_ptr
	movl	$19134, %eax            # imm = 0x4ABE
	movl	%eax, %edi
	movl	$32, %eax
	movl	%eax, %esi
	movl	$1, %eax
	movl	%eax, %ecx
	movabsq	$.L.str.119, %r8
	xorl	%eax, %eax
	movl	%eax, %r9d
	movabsq	$.L.str.5, %rdx
	movq	-624(%rbp), %r10        # 8-byte Reload
	movl	(%r10), %eax
	movl	%eax, %ebx
	movl	%ebx, %r11d
	movq	%rdx, -3544(%rbp)       # 8-byte Spill
	movq	%r11, %rdx
	movq	-3544(%rbp), %r11       # 8-byte Reload
	movq	%r11, (%rsp)
	movl	%eax, -3548(%rbp)       # 4-byte Spill
	callq	trace_logger_log_int
	movl	$26, %eax
	movl	%eax, %edi
	movabsq	$.L.str.1, %rsi
	movabsq	$.L.str.44, %rdx
	movabsq	$.L.str.120, %rcx
	movl	$11, %eax
	movl	%eax, %r8d
	xorl	%r9d, %r9d
	movl	$1, %eax
	movl	$1, (%rsp)
	movl	%eax, -3552(%rbp)       # 4-byte Spill
	callq	trace_logger_log0
	movl	$2, %eax
	movl	%eax, %edi
	movl	$32, %eax
	movl	%eax, %esi
	movl	$1, %eax
	movl	%eax, %ecx
	movabsq	$.L.str.119, %r8
	xorl	%eax, %eax
	movl	%eax, %r9d
	movabsq	$.L.str.5, %rdx
	movl	-3548(%rbp), %eax       # 4-byte Reload
	movl	%eax, %ebx
	movl	%ebx, %r10d
	movq	%rdx, -3560(%rbp)       # 8-byte Spill
	movq	%r10, %rdx
	movq	-3560(%rbp), %r10       # 8-byte Reload
	movq	%r10, (%rsp)
	callq	trace_logger_log_int
	movl	$1, %eax
	movl	%eax, %ecx
	movl	$32, %eax
	movl	%eax, %esi
	movabsq	$.L.str.95, %r8
	xorl	%eax, %eax
	movl	%eax, %r9d
	movabsq	$.L.str.5, %rdx
	movl	-3348(%rbp), %eax       # 4-byte Reload
	movl	%eax, %ebx
	movl	%ebx, %edi
	movq	%rdi, -3568(%rbp)       # 8-byte Spill
	movq	%rcx, %rdi
	movq	-3568(%rbp), %r10       # 8-byte Reload
	movq	%rdx, -3576(%rbp)       # 8-byte Spill
	movq	%r10, %rdx
	movq	-3576(%rbp), %r11       # 8-byte Reload
	movq	%r11, (%rsp)
	callq	trace_logger_log_int
	movl	$19134, %eax            # imm = 0x4ABE
	movl	%eax, %edi
	movl	$32, %eax
	movl	%eax, %esi
	movl	$1, %eax
	movl	%eax, %ecx
	movabsq	$.L.str.120, %r8
	xorl	%eax, %eax
	movl	%eax, %r9d
	movabsq	$.L.str.5, %rdx
	movl	-3348(%rbp), %eax       # 4-byte Reload
	movl	-3548(%rbp), %ebx       # 4-byte Reload
	addl	%ebx, %eax
	movl	%eax, %r14d
	movl	%r14d, %r10d
	movq	%rdx, -3584(%rbp)       # 8-byte Spill
	movq	%r10, %rdx
	movq	-3584(%rbp), %r10       # 8-byte Reload
	movq	%r10, (%rsp)
	movl	%eax, -3588(%rbp)       # 4-byte Spill
	callq	trace_logger_log_int
	movl	$26, %eax
	movl	%eax, %edi
	movabsq	$.L.str.1, %rsi
	movabsq	$.L.str.44, %rdx
	movabsq	$.L.str.121, %rcx
	movl	$13, %eax
	movl	%eax, %r8d
	xorl	%r9d, %r9d
	movl	$1, %eax
	movl	$1, (%rsp)
	movl	%eax, -3592(%rbp)       # 4-byte Spill
	callq	trace_logger_log0
	movl	$2, %eax
	movl	%eax, %edi
	movl	$32, %eax
	movl	%eax, %esi
	movl	$1, %eax
	movl	%eax, %ecx
	movabsq	$.L.str.120, %r8
	xorl	%eax, %eax
	movl	%eax, %r9d
	movabsq	$.L.str.5, %rdx
	movl	-3588(%rbp), %eax       # 4-byte Reload
	movl	%eax, %ebx
	movl	%ebx, %r10d
	movq	%rdx, -3600(%rbp)       # 8-byte Spill
	movq	%r10, %rdx
	movq	-3600(%rbp), %r10       # 8-byte Reload
	movq	%r10, (%rsp)
	callq	trace_logger_log_int
	movl	$1, %eax
	movl	%eax, %ecx
	movl	$32, %eax
	movl	%eax, %esi
	xorl	%eax, %eax
	movl	%eax, %edx
	movabsq	$.L.str.111, %r8
	movabsq	$.L.str.5, %rdi
	movq	%rdi, -3608(%rbp)       # 8-byte Spill
	movq	%rcx, %rdi
	movq	%rdx, -3616(%rbp)       # 8-byte Spill
	movq	-3616(%rbp), %r9        # 8-byte Reload
	movq	-3608(%rbp), %r10       # 8-byte Reload
	movq	%r10, (%rsp)
	callq	trace_logger_log_int
	movl	$19134, %eax            # imm = 0x4ABE
	movl	%eax, %edi
	movl	$32, %eax
	movl	%eax, %esi
	movl	$1, %eax
	movl	%eax, %ecx
	movabsq	$.L.str.121, %r8
	xorl	%eax, %eax
	movl	%eax, %r9d
	movabsq	$.L.str.5, %rdx
	xorl	%eax, %eax
	movl	-3588(%rbp), %ebx       # 4-byte Reload
	subl	%ebx, %eax
	movl	%eax, %r14d
	movl	%r14d, %r10d
	movq	%rdx, -3624(%rbp)       # 8-byte Spill
	movq	%r10, %rdx
	movq	-3624(%rbp), %r10       # 8-byte Reload
	movq	%r10, (%rsp)
	movl	%eax, -3628(%rbp)       # 4-byte Spill
	callq	trace_logger_log_int
	movl	$26, %eax
	movl	%eax, %edi
	movabsq	$.L.str.1, %rsi
	movabsq	$.L.str.44, %rdx
	movabsq	$.L.str.122, %rcx
	movl	$42, %eax
	movl	%eax, %r8d
	xorl	%r9d, %r9d
	movl	$1, %eax
	movl	$1, (%rsp)
	movl	%eax, -3632(%rbp)       # 4-byte Spill
	callq	trace_logger_log0
	movl	$1, %eax
	movl	%eax, %ecx
	movl	$32, %eax
	movl	%eax, %esi
	movabsq	$.L.str.121, %r8
	xorl	%eax, %eax
	movl	%eax, %r9d
	movabsq	$.L.str.5, %rdx
	movl	-3628(%rbp), %eax       # 4-byte Reload
	movl	%eax, %ebx
	movl	%ebx, %edi
	movq	%rdi, -3640(%rbp)       # 8-byte Spill
	movq	%rcx, %rdi
	movq	-3640(%rbp), %r10       # 8-byte Reload
	movq	%rdx, -3648(%rbp)       # 8-byte Spill
	movq	%r10, %rdx
	movq	-3648(%rbp), %r11       # 8-byte Reload
	movq	%r11, (%rsp)
	callq	trace_logger_log_int
	movl	$19134, %eax            # imm = 0x4ABE
	movl	%eax, %edi
	movl	$32, %eax
	movl	%eax, %esi
	movl	$1, %eax
	movl	%eax, %edx
	movabsq	$.L.str.122, %rcx
	xorl	%eax, %eax
	movl	%eax, %r8d
	movabsq	$.L.str.5, %r9
	movl	-3628(%rbp), %eax       # 4-byte Reload
	cvtsi2ssl	%eax, %xmm0
	cvtss2sd	%xmm0, %xmm1
	movss	%xmm0, -3652(%rbp)      # 4-byte Spill
	movaps	%xmm1, %xmm0
	callq	trace_logger_log_double
	movl	$26, %eax
	movl	%eax, %edi
	movabsq	$.L.str.1, %rsi
	movabsq	$.L.str.44, %rdx
	movabsq	$.L.str.123, %rcx
	movl	$16, %eax
	movl	%eax, %r8d
	xorl	%r9d, %r9d
	movl	$1, %eax
	movl	$1, (%rsp)
	movl	%eax, -3656(%rbp)       # 4-byte Spill
	callq	trace_logger_log0
	movl	$2, %eax
	movl	%eax, %edi
	movl	$32, %eax
	movl	%eax, %esi
	movsd	.LCPI0_1(%rip), %xmm0   # xmm0 = mem[0],zero
	xorl	%eax, %eax
	movl	%eax, %ecx
	movabsq	$.L.str.4, %rdx
	movabsq	$.L.str.5, %r9
	movq	%rdx, -3664(%rbp)       # 8-byte Spill
	movq	%rcx, %rdx
	movq	-3664(%rbp), %r8        # 8-byte Reload
	movq	%rcx, -3672(%rbp)       # 8-byte Spill
	movq	%r8, %rcx
	movq	-3672(%rbp), %r8        # 8-byte Reload
	callq	trace_logger_log_double
	movl	$1, %eax
	movl	%eax, %ecx
	movl	$32, %eax
	movl	%eax, %esi
	movabsq	$.L.str.122, %rdx
	xorl	%eax, %eax
	movl	%eax, %r8d
	movabsq	$.L.str.5, %r9
	movss	-3652(%rbp), %xmm0      # 4-byte Reload
                                        # xmm0 = mem[0],zero,zero,zero
	cvtss2sd	%xmm0, %xmm0
	movq	%rcx, %rdi
	movq	%rdx, -3680(%rbp)       # 8-byte Spill
	movq	%rcx, %rdx
	movq	-3680(%rbp), %rcx       # 8-byte Reload
	callq	trace_logger_log_double
	movl	$19134, %eax            # imm = 0x4ABE
	movl	%eax, %edi
	movl	$32, %eax
	movl	%eax, %esi
	movl	$1, %eax
	movl	%eax, %edx
	movabsq	$.L.str.123, %rcx
	xorl	%eax, %eax
	movl	%eax, %r8d
	movabsq	$.L.str.5, %r9
	movss	.LCPI0_0(%rip), %xmm0   # xmm0 = mem[0],zero,zero,zero
	movss	-3652(%rbp), %xmm1      # 4-byte Reload
                                        # xmm1 = mem[0],zero,zero,zero
	mulss	%xmm0, %xmm1
	cvtss2sd	%xmm1, %xmm0
	movss	%xmm1, -3684(%rbp)      # 4-byte Spill
	callq	trace_logger_log_double
	movl	$26, %eax
	movl	%eax, %edi
	movabsq	$.L.str.1, %rsi
	movabsq	$.L.str.44, %rdx
	movabsq	$.L.str.124, %rcx
	movl	$40, %eax
	movl	%eax, %r8d
	xorl	%r9d, %r9d
	movl	$1, %eax
	movl	$1, (%rsp)
	movl	%eax, -3688(%rbp)       # 4-byte Spill
	callq	trace_logger_log0
	movl	$1, %eax
	movl	%eax, %ecx
	movl	$32, %eax
	movl	%eax, %esi
	movabsq	$.L.str.123, %rdx
	xorl	%eax, %eax
	movl	%eax, %r8d
	movabsq	$.L.str.5, %r9
	movss	-3684(%rbp), %xmm0      # 4-byte Reload
                                        # xmm0 = mem[0],zero,zero,zero
	cvtss2sd	%xmm0, %xmm0
	movq	%rcx, %rdi
	movq	%rdx, -3696(%rbp)       # 8-byte Spill
	movq	%rcx, %rdx
	movq	-3696(%rbp), %rcx       # 8-byte Reload
	callq	trace_logger_log_double
	movl	$19134, %eax            # imm = 0x4ABE
	movl	%eax, %edi
	movl	$32, %eax
	movl	%eax, %esi
	movl	$1, %eax
	movl	%eax, %ecx
	movabsq	$.L.str.124, %r8
	xorl	%eax, %eax
	movl	%eax, %r9d
	movabsq	$.L.str.5, %rdx
	movss	-3684(%rbp), %xmm0      # 4-byte Reload
                                        # xmm0 = mem[0],zero,zero,zero
	cvttss2si	%xmm0, %eax
	movl	%eax, %ebx
	movl	%ebx, %r10d
	movq	%rdx, -3704(%rbp)       # 8-byte Spill
	movq	%r10, %rdx
	movq	-3704(%rbp), %r10       # 8-byte Reload
	movq	%r10, (%rsp)
	movl	%eax, -3708(%rbp)       # 4-byte Spill
	callq	trace_logger_log_int
	movl	$26, %eax
	movl	%eax, %edi
	movabsq	$.L.str.1, %rsi
	movabsq	$.L.str.44, %rdx
	movabsq	$.L.str.125, %rcx
	movl	$31, %eax
	movl	%eax, %r8d
	xorl	%r9d, %r9d
	movl	$1, %eax
	movl	$1, (%rsp)
	movl	%eax, -3712(%rbp)       # 4-byte Spill
	callq	trace_logger_log0
	movl	$2, %eax
	movl	%eax, %edi
	movl	$64, %eax
	movl	%eax, %esi
	movl	$1, %eax
	movl	%eax, %ecx
	movabsq	$.L.str.20, %r8
	xorl	%eax, %eax
	movl	%eax, %r9d
	movabsq	$.L.str.5, %rdx
	movq	-624(%rbp), %r10        # 8-byte Reload
	movq	%rdx, -3720(%rbp)       # 8-byte Spill
	movq	%r10, %rdx
	movq	-3720(%rbp), %r11       # 8-byte Reload
	movq	%r11, (%rsp)
	callq	trace_logger_log_ptr
	movl	$1, %eax
	movl	%eax, %ecx
	movl	$32, %eax
	movl	%eax, %esi
	movabsq	$.L.str.124, %r8
	xorl	%eax, %eax
	movl	%eax, %r9d
	movabsq	$.L.str.5, %rdx
	movl	-3708(%rbp), %eax       # 4-byte Reload
	movl	%eax, %ebx
	movl	%ebx, %edi
	movq	%rdi, -3728(%rbp)       # 8-byte Spill
	movq	%rcx, %rdi
	movq	-3728(%rbp), %r10       # 8-byte Reload
	movq	%rdx, -3736(%rbp)       # 8-byte Spill
	movq	%r10, %rdx
	movq	-3736(%rbp), %r11       # 8-byte Reload
	movq	%r11, (%rsp)
	callq	trace_logger_log_int
	movl	$26, %eax
	movl	%eax, %edi
	movabsq	$.L.str.1, %rsi
	movabsq	$.L.str.44, %rdx
	movabsq	$.L.str.45, %rcx
	movl	$30, %eax
	movl	%eax, %r8d
	xorl	%r9d, %r9d
	movl	$1, %eax
	movq	-624(%rbp), %r10        # 8-byte Reload
	movl	-3708(%rbp), %ebx       # 4-byte Reload
	movl	%ebx, (%r10)
.Ltmp26:
	#DEBUG_VALUE: exp_1_44_x <- 0
	#DEBUG_VALUE: exp_1_44_y <- 4294967295
	.loc	1 26 3                  # fft.c:26:3
	movl	$1, (%rsp)
	movl	%eax, -3740(%rbp)       # 4-byte Spill
	callq	trace_logger_log0
	movl	$1, %eax
	movl	%eax, %ecx
	movl	$64, %eax
	movl	%eax, %esi
	movabsq	$.L.str.6, %r8
	xorl	%eax, %eax
	movl	%eax, %r9d
	movabsq	$.L.str.5, %rdx
	movq	%rcx, %rdi
	movq	-112(%rbp), %r10        # 8-byte Reload
	movq	%rdx, -3752(%rbp)       # 8-byte Spill
	movq	%r10, %rdx
	movq	-3752(%rbp), %r11       # 8-byte Reload
	movq	%r11, (%rsp)
	callq	trace_logger_log_ptr
	movl	$19134, %eax            # imm = 0x4ABE
	movl	%eax, %edi
	movl	$32, %eax
	movl	%eax, %esi
	movl	$1, %eax
	movl	%eax, %ecx
	movabsq	$.L.str.45, %r8
	xorl	%eax, %eax
	movl	%eax, %r9d
	movabsq	$.L.str.5, %rdx
	movq	-112(%rbp), %r10        # 8-byte Reload
	movl	(%r10), %eax
	movl	%eax, %ebx
	movl	%ebx, %r11d
	movq	%rdx, -3760(%rbp)       # 8-byte Spill
	movq	%r11, %rdx
	movq	-3760(%rbp), %r11       # 8-byte Reload
	movq	%r11, (%rsp)
	movl	%eax, -3764(%rbp)       # 4-byte Spill
	callq	trace_logger_log_int
	movl	$26, %eax
	movl	%eax, %edi
	movabsq	$.L.str.1, %rsi
	movabsq	$.L.str.44, %rdx
	movabsq	$.L.str.46, %rcx
	movl	$30, %eax
	movl	%eax, %r8d
	xorl	%r9d, %r9d
	movl	$1, %eax
.Ltmp27:
	#DEBUG_VALUE: c0_x <- [DW_OP_constu 3764, DW_OP_minus] [%rbp+0]
	movl	$1, (%rsp)
	movl	%eax, -3768(%rbp)       # 4-byte Spill
	callq	trace_logger_log0
	movl	$1, %eax
	movl	%eax, %ecx
	movl	$64, %eax
	movl	%eax, %esi
	movabsq	$.L.str.8, %r8
	xorl	%eax, %eax
	movl	%eax, %r9d
	movabsq	$.L.str.5, %rdx
	movq	%rcx, %rdi
	movq	-120(%rbp), %r10        # 8-byte Reload
	movq	%rdx, -3776(%rbp)       # 8-byte Spill
	movq	%r10, %rdx
	movq	-3776(%rbp), %r11       # 8-byte Reload
	movq	%r11, (%rsp)
	callq	trace_logger_log_ptr
	movl	$19134, %eax            # imm = 0x4ABE
	movl	%eax, %edi
	movl	$32, %eax
	movl	%eax, %esi
	movl	$1, %eax
	movl	%eax, %ecx
	movabsq	$.L.str.46, %r8
	xorl	%eax, %eax
	movl	%eax, %r9d
	movabsq	$.L.str.5, %rdx
	movq	-120(%rbp), %r10        # 8-byte Reload
	movl	(%r10), %eax
	movl	%eax, %ebx
	movl	%ebx, %r11d
	movq	%rdx, -3784(%rbp)       # 8-byte Spill
	movq	%r11, %rdx
	movq	-3784(%rbp), %r11       # 8-byte Reload
	movq	%r11, (%rsp)
	movl	%eax, -3788(%rbp)       # 4-byte Spill
	callq	trace_logger_log_int
	movl	$26, %eax
	movl	%eax, %edi
	movabsq	$.L.str.1, %rsi
	movabsq	$.L.str.44, %rdx
	movabsq	$.L.str.126, %rcx
	movl	$30, %eax
	movl	%eax, %r8d
	xorl	%r9d, %r9d
	movl	$1, %eax
.Ltmp28:
	#DEBUG_VALUE: c0_y <- [DW_OP_constu 3788, DW_OP_minus] [%rbp+0]
	movl	$1, (%rsp)
	movl	%eax, -3792(%rbp)       # 4-byte Spill
	callq	trace_logger_log0
	movl	$1, %eax
	movl	%eax, %ecx
	movl	$64, %eax
	movl	%eax, %esi
	movabsq	$.L.str.13, %r8
	xorl	%eax, %eax
	movl	%eax, %r9d
	movabsq	$.L.str.5, %rdx
	movq	%rcx, %rdi
	movq	-392(%rbp), %r10        # 8-byte Reload
	movq	%rdx, -3800(%rbp)       # 8-byte Spill
	movq	%r10, %rdx
	movq	-3800(%rbp), %r11       # 8-byte Reload
	movq	%r11, (%rsp)
	callq	trace_logger_log_ptr
	movl	$19134, %eax            # imm = 0x4ABE
	movl	%eax, %edi
	movl	$32, %eax
	movl	%eax, %esi
	movl	$1, %eax
	movl	%eax, %ecx
	movabsq	$.L.str.126, %r8
	xorl	%eax, %eax
	movl	%eax, %r9d
	movabsq	$.L.str.5, %rdx
	movq	-392(%rbp), %r10        # 8-byte Reload
	movl	(%r10), %eax
	movl	%eax, %ebx
	movl	%ebx, %r11d
	movq	%rdx, -3808(%rbp)       # 8-byte Spill
	movq	%r11, %rdx
	movq	-3808(%rbp), %r11       # 8-byte Reload
	movq	%r11, (%rsp)
	movl	%eax, -3812(%rbp)       # 4-byte Spill
	callq	trace_logger_log_int
	movl	$26, %eax
	movl	%eax, %edi
	movabsq	$.L.str.1, %rsi
	movabsq	$.L.str.44, %rdx
	movabsq	$.L.str.127, %rcx
	movl	$11, %eax
	movl	%eax, %r8d
	xorl	%r9d, %r9d
	movl	$1, %eax
	movl	$1, (%rsp)
	movl	%eax, -3816(%rbp)       # 4-byte Spill
	callq	trace_logger_log0
	movl	$2, %eax
	movl	%eax, %edi
	movl	$32, %eax
	movl	%eax, %esi
	movl	$1, %eax
	movl	%eax, %ecx
	movabsq	$.L.str.45, %r8
	xorl	%eax, %eax
	movl	%eax, %r9d
	movabsq	$.L.str.5, %rdx
	movl	-3764(%rbp), %eax       # 4-byte Reload
	movl	%eax, %ebx
	movl	%ebx, %r10d
	movq	%rdx, -3824(%rbp)       # 8-byte Spill
	movq	%r10, %rdx
	movq	-3824(%rbp), %r10       # 8-byte Reload
	movq	%r10, (%rsp)
	callq	trace_logger_log_int
	movl	$1, %eax
	movl	%eax, %ecx
	movl	$32, %eax
	movl	%eax, %esi
	movabsq	$.L.str.126, %r8
	xorl	%eax, %eax
	movl	%eax, %r9d
	movabsq	$.L.str.5, %rdx
	movl	-3812(%rbp), %eax       # 4-byte Reload
	movl	%eax, %ebx
	movl	%ebx, %edi
	movq	%rdi, -3832(%rbp)       # 8-byte Spill
	movq	%rcx, %rdi
	movq	-3832(%rbp), %r10       # 8-byte Reload
	movq	%rdx, -3840(%rbp)       # 8-byte Spill
	movq	%r10, %rdx
	movq	-3840(%rbp), %r11       # 8-byte Reload
	movq	%r11, (%rsp)
	callq	trace_logger_log_int
	movl	$19134, %eax            # imm = 0x4ABE
	movl	%eax, %edi
	movl	$32, %eax
	movl	%eax, %esi
	movl	$1, %eax
	movl	%eax, %ecx
	movabsq	$.L.str.127, %r8
	xorl	%eax, %eax
	movl	%eax, %r9d
	movabsq	$.L.str.5, %rdx
	movl	-3812(%rbp), %eax       # 4-byte Reload
	movl	-3764(%rbp), %ebx       # 4-byte Reload
	addl	%ebx, %eax
	movl	%eax, %r14d
	movl	%r14d, %r10d
	movq	%rdx, -3848(%rbp)       # 8-byte Spill
	movq	%r10, %rdx
	movq	-3848(%rbp), %r10       # 8-byte Reload
	movq	%r10, (%rsp)
	movl	%eax, -3852(%rbp)       # 4-byte Spill
	callq	trace_logger_log_int
	movl	$26, %eax
	movl	%eax, %edi
	movabsq	$.L.str.1, %rsi
	movabsq	$.L.str.44, %rdx
	movabsq	$.L.str.128, %rcx
	movl	$31, %eax
	movl	%eax, %r8d
	xorl	%r9d, %r9d
	movl	$1, %eax
	movl	$1, (%rsp)
	movl	%eax, -3856(%rbp)       # 4-byte Spill
	callq	trace_logger_log0
	movl	$2, %eax
	movl	%eax, %edi
	movl	$64, %eax
	movl	%eax, %esi
	movl	$1, %eax
	movl	%eax, %ecx
	movabsq	$.L.str.6, %r8
	xorl	%eax, %eax
	movl	%eax, %r9d
	movabsq	$.L.str.5, %rdx
	movq	-112(%rbp), %r10        # 8-byte Reload
	movq	%rdx, -3864(%rbp)       # 8-byte Spill
	movq	%r10, %rdx
	movq	-3864(%rbp), %r11       # 8-byte Reload
	movq	%r11, (%rsp)
	callq	trace_logger_log_ptr
	movl	$1, %eax
	movl	%eax, %ecx
	movl	$32, %eax
	movl	%eax, %esi
	movabsq	$.L.str.127, %r8
	xorl	%eax, %eax
	movl	%eax, %r9d
	movabsq	$.L.str.5, %rdx
	movl	-3852(%rbp), %eax       # 4-byte Reload
	movl	%eax, %ebx
	movl	%ebx, %edi
	movq	%rdi, -3872(%rbp)       # 8-byte Spill
	movq	%rcx, %rdi
	movq	-3872(%rbp), %r10       # 8-byte Reload
	movq	%rdx, -3880(%rbp)       # 8-byte Spill
	movq	%r10, %rdx
	movq	-3880(%rbp), %r11       # 8-byte Reload
	movq	%r11, (%rsp)
	callq	trace_logger_log_int
	movl	$26, %eax
	movl	%eax, %edi
	movabsq	$.L.str.1, %rsi
	movabsq	$.L.str.44, %rdx
	movabsq	$.L.str.129, %rcx
	movl	$30, %eax
	movl	%eax, %r8d
	xorl	%r9d, %r9d
	movl	$1, %eax
	movq	-112(%rbp), %r10        # 8-byte Reload
	movl	-3852(%rbp), %ebx       # 4-byte Reload
	movl	%ebx, (%r10)
	movl	$1, (%rsp)
	movl	%eax, -3884(%rbp)       # 4-byte Spill
	callq	trace_logger_log0
	movl	$1, %eax
	movl	%eax, %ecx
	movl	$64, %eax
	movl	%eax, %esi
	movabsq	$.L.str.14, %r8
	xorl	%eax, %eax
	movl	%eax, %r9d
	movabsq	$.L.str.5, %rdx
	movq	%rcx, %rdi
	movq	-432(%rbp), %r10        # 8-byte Reload
	movq	%rdx, -3896(%rbp)       # 8-byte Spill
	movq	%r10, %rdx
	movq	-3896(%rbp), %r11       # 8-byte Reload
	movq	%r11, (%rsp)
	callq	trace_logger_log_ptr
	movl	$19134, %eax            # imm = 0x4ABE
	movl	%eax, %edi
	movl	$32, %eax
	movl	%eax, %esi
	movl	$1, %eax
	movl	%eax, %ecx
	movabsq	$.L.str.129, %r8
	xorl	%eax, %eax
	movl	%eax, %r9d
	movabsq	$.L.str.5, %rdx
	movq	-432(%rbp), %r10        # 8-byte Reload
	movl	(%r10), %eax
	movl	%eax, %ebx
	movl	%ebx, %r11d
	movq	%rdx, -3904(%rbp)       # 8-byte Spill
	movq	%r11, %rdx
	movq	-3904(%rbp), %r11       # 8-byte Reload
	movq	%r11, (%rsp)
	movl	%eax, -3908(%rbp)       # 4-byte Spill
	callq	trace_logger_log_int
	movl	$26, %eax
	movl	%eax, %edi
	movabsq	$.L.str.1, %rsi
	movabsq	$.L.str.44, %rdx
	movabsq	$.L.str.130, %rcx
	movl	$11, %eax
	movl	%eax, %r8d
	xorl	%r9d, %r9d
	movl	$1, %eax
	movl	$1, (%rsp)
	movl	%eax, -3912(%rbp)       # 4-byte Spill
	callq	trace_logger_log0
	movl	$2, %eax
	movl	%eax, %edi
	movl	$32, %eax
	movl	%eax, %esi
	movl	$1, %eax
	movl	%eax, %ecx
	movabsq	$.L.str.46, %r8
	xorl	%eax, %eax
	movl	%eax, %r9d
	movabsq	$.L.str.5, %rdx
	movl	-3788(%rbp), %eax       # 4-byte Reload
	movl	%eax, %ebx
	movl	%ebx, %r10d
	movq	%rdx, -3920(%rbp)       # 8-byte Spill
	movq	%r10, %rdx
	movq	-3920(%rbp), %r10       # 8-byte Reload
	movq	%r10, (%rsp)
	callq	trace_logger_log_int
	movl	$1, %eax
	movl	%eax, %ecx
	movl	$32, %eax
	movl	%eax, %esi
	movabsq	$.L.str.129, %r8
	xorl	%eax, %eax
	movl	%eax, %r9d
	movabsq	$.L.str.5, %rdx
	movl	-3908(%rbp), %eax       # 4-byte Reload
	movl	%eax, %ebx
	movl	%ebx, %edi
	movq	%rdi, -3928(%rbp)       # 8-byte Spill
	movq	%rcx, %rdi
	movq	-3928(%rbp), %r10       # 8-byte Reload
	movq	%rdx, -3936(%rbp)       # 8-byte Spill
	movq	%r10, %rdx
	movq	-3936(%rbp), %r11       # 8-byte Reload
	movq	%r11, (%rsp)
	callq	trace_logger_log_int
	movl	$19134, %eax            # imm = 0x4ABE
	movl	%eax, %edi
	movl	$32, %eax
	movl	%eax, %esi
	movl	$1, %eax
	movl	%eax, %ecx
	movabsq	$.L.str.130, %r8
	xorl	%eax, %eax
	movl	%eax, %r9d
	movabsq	$.L.str.5, %rdx
	movl	-3908(%rbp), %eax       # 4-byte Reload
	movl	-3788(%rbp), %ebx       # 4-byte Reload
	addl	%ebx, %eax
	movl	%eax, %r14d
	movl	%r14d, %r10d
	movq	%rdx, -3944(%rbp)       # 8-byte Spill
	movq	%r10, %rdx
	movq	-3944(%rbp), %r10       # 8-byte Reload
	movq	%r10, (%rsp)
	movl	%eax, -3948(%rbp)       # 4-byte Spill
	callq	trace_logger_log_int
	movl	$26, %eax
	movl	%eax, %edi
	movabsq	$.L.str.1, %rsi
	movabsq	$.L.str.44, %rdx
	movabsq	$.L.str.131, %rcx
	movl	$31, %eax
	movl	%eax, %r8d
	xorl	%r9d, %r9d
	movl	$1, %eax
	movl	$1, (%rsp)
	movl	%eax, -3952(%rbp)       # 4-byte Spill
	callq	trace_logger_log0
	movl	$2, %eax
	movl	%eax, %edi
	movl	$64, %eax
	movl	%eax, %esi
	movl	$1, %eax
	movl	%eax, %ecx
	movabsq	$.L.str.8, %r8
	xorl	%eax, %eax
	movl	%eax, %r9d
	movabsq	$.L.str.5, %rdx
	movq	-120(%rbp), %r10        # 8-byte Reload
	movq	%rdx, -3960(%rbp)       # 8-byte Spill
	movq	%r10, %rdx
	movq	-3960(%rbp), %r11       # 8-byte Reload
	movq	%r11, (%rsp)
	callq	trace_logger_log_ptr
	movl	$1, %eax
	movl	%eax, %ecx
	movl	$32, %eax
	movl	%eax, %esi
	movabsq	$.L.str.130, %r8
	xorl	%eax, %eax
	movl	%eax, %r9d
	movabsq	$.L.str.5, %rdx
	movl	-3948(%rbp), %eax       # 4-byte Reload
	movl	%eax, %ebx
	movl	%ebx, %edi
	movq	%rdi, -3968(%rbp)       # 8-byte Spill
	movq	%rcx, %rdi
	movq	-3968(%rbp), %r10       # 8-byte Reload
	movq	%rdx, -3976(%rbp)       # 8-byte Spill
	movq	%r10, %rdx
	movq	-3976(%rbp), %r11       # 8-byte Reload
	movq	%r11, (%rsp)
	callq	trace_logger_log_int
	movl	$26, %eax
	movl	%eax, %edi
	movabsq	$.L.str.1, %rsi
	movabsq	$.L.str.44, %rdx
	movabsq	$.L.str.132, %rcx
	movl	$30, %eax
	movl	%eax, %r8d
	xorl	%r9d, %r9d
	movl	$1, %eax
	movq	-120(%rbp), %r10        # 8-byte Reload
	movl	-3948(%rbp), %ebx       # 4-byte Reload
	movl	%ebx, (%r10)
	movl	$1, (%rsp)
	movl	%eax, -3980(%rbp)       # 4-byte Spill
	callq	trace_logger_log0
	movl	$1, %eax
	movl	%eax, %ecx
	movl	$64, %eax
	movl	%eax, %esi
	movabsq	$.L.str.13, %r8
	xorl	%eax, %eax
	movl	%eax, %r9d
	movabsq	$.L.str.5, %rdx
	movq	%rcx, %rdi
	movq	-392(%rbp), %r10        # 8-byte Reload
	movq	%rdx, -3992(%rbp)       # 8-byte Spill
	movq	%r10, %rdx
	movq	-3992(%rbp), %r11       # 8-byte Reload
	movq	%r11, (%rsp)
	callq	trace_logger_log_ptr
	movl	$19134, %eax            # imm = 0x4ABE
	movl	%eax, %edi
	movl	$32, %eax
	movl	%eax, %esi
	movl	$1, %eax
	movl	%eax, %ecx
	movabsq	$.L.str.132, %r8
	xorl	%eax, %eax
	movl	%eax, %r9d
	movabsq	$.L.str.5, %rdx
	movq	-392(%rbp), %r10        # 8-byte Reload
	movl	(%r10), %eax
	movl	%eax, %ebx
	movl	%ebx, %r11d
	movq	%rdx, -4000(%rbp)       # 8-byte Spill
	movq	%r11, %rdx
	movq	-4000(%rbp), %r11       # 8-byte Reload
	movq	%r11, (%rsp)
	movl	%eax, -4004(%rbp)       # 4-byte Spill
	callq	trace_logger_log_int
	movl	$26, %eax
	movl	%eax, %edi
	movabsq	$.L.str.1, %rsi
	movabsq	$.L.str.44, %rdx
	movabsq	$.L.str.133, %rcx
	movl	$13, %eax
	movl	%eax, %r8d
	xorl	%r9d, %r9d
	movl	$1, %eax
	movl	$1, (%rsp)
	movl	%eax, -4008(%rbp)       # 4-byte Spill
	callq	trace_logger_log0
	movl	$2, %eax
	movl	%eax, %edi
	movl	$32, %eax
	movl	%eax, %esi
	movl	$1, %eax
	movl	%eax, %ecx
	movabsq	$.L.str.132, %r8
	xorl	%eax, %eax
	movl	%eax, %r9d
	movabsq	$.L.str.5, %rdx
	movl	-4004(%rbp), %eax       # 4-byte Reload
	movl	%eax, %ebx
	movl	%ebx, %r10d
	movq	%rdx, -4016(%rbp)       # 8-byte Spill
	movq	%r10, %rdx
	movq	-4016(%rbp), %r10       # 8-byte Reload
	movq	%r10, (%rsp)
	callq	trace_logger_log_int
	movl	$1, %eax
	movl	%eax, %ecx
	movl	$32, %eax
	movl	%eax, %esi
	movabsq	$.L.str.45, %r8
	xorl	%eax, %eax
	movl	%eax, %r9d
	movabsq	$.L.str.5, %rdx
	movl	-3764(%rbp), %eax       # 4-byte Reload
	movl	%eax, %ebx
	movl	%ebx, %edi
	movq	%rdi, -4024(%rbp)       # 8-byte Spill
	movq	%rcx, %rdi
	movq	-4024(%rbp), %r10       # 8-byte Reload
	movq	%rdx, -4032(%rbp)       # 8-byte Spill
	movq	%r10, %rdx
	movq	-4032(%rbp), %r11       # 8-byte Reload
	movq	%r11, (%rsp)
	callq	trace_logger_log_int
	movl	$19134, %eax            # imm = 0x4ABE
	movl	%eax, %edi
	movl	$32, %eax
	movl	%eax, %esi
	movl	$1, %eax
	movl	%eax, %ecx
	movabsq	$.L.str.133, %r8
	xorl	%eax, %eax
	movl	%eax, %r9d
	movabsq	$.L.str.5, %rdx
	movl	-3764(%rbp), %eax       # 4-byte Reload
	movl	-4004(%rbp), %ebx       # 4-byte Reload
	subl	%ebx, %eax
	movl	%eax, %r14d
	movl	%r14d, %r10d
	movq	%rdx, -4040(%rbp)       # 8-byte Spill
	movq	%r10, %rdx
	movq	-4040(%rbp), %r10       # 8-byte Reload
	movq	%r10, (%rsp)
	movl	%eax, -4044(%rbp)       # 4-byte Spill
	callq	trace_logger_log_int
	movl	$26, %eax
	movl	%eax, %edi
	movabsq	$.L.str.1, %rsi
	movabsq	$.L.str.44, %rdx
	movabsq	$.L.str.134, %rcx
	movl	$31, %eax
	movl	%eax, %r8d
	xorl	%r9d, %r9d
	movl	$1, %eax
	movl	$1, (%rsp)
	movl	%eax, -4048(%rbp)       # 4-byte Spill
	callq	trace_logger_log0
	movl	$2, %eax
	movl	%eax, %edi
	movl	$64, %eax
	movl	%eax, %esi
	movl	$1, %eax
	movl	%eax, %ecx
	movabsq	$.L.str.13, %r8
	xorl	%eax, %eax
	movl	%eax, %r9d
	movabsq	$.L.str.5, %rdx
	movq	-392(%rbp), %r10        # 8-byte Reload
	movq	%rdx, -4056(%rbp)       # 8-byte Spill
	movq	%r10, %rdx
	movq	-4056(%rbp), %r11       # 8-byte Reload
	movq	%r11, (%rsp)
	callq	trace_logger_log_ptr
	movl	$1, %eax
	movl	%eax, %ecx
	movl	$32, %eax
	movl	%eax, %esi
	movabsq	$.L.str.133, %r8
	xorl	%eax, %eax
	movl	%eax, %r9d
	movabsq	$.L.str.5, %rdx
	movl	-4044(%rbp), %eax       # 4-byte Reload
	movl	%eax, %ebx
	movl	%ebx, %edi
	movq	%rdi, -4064(%rbp)       # 8-byte Spill
	movq	%rcx, %rdi
	movq	-4064(%rbp), %r10       # 8-byte Reload
	movq	%rdx, -4072(%rbp)       # 8-byte Spill
	movq	%r10, %rdx
	movq	-4072(%rbp), %r11       # 8-byte Reload
	movq	%r11, (%rsp)
	callq	trace_logger_log_int
	movl	$26, %eax
	movl	%eax, %edi
	movabsq	$.L.str.1, %rsi
	movabsq	$.L.str.44, %rdx
	movabsq	$.L.str.135, %rcx
	movl	$30, %eax
	movl	%eax, %r8d
	xorl	%r9d, %r9d
	movl	$1, %eax
	movq	-392(%rbp), %r10        # 8-byte Reload
	movl	-4044(%rbp), %ebx       # 4-byte Reload
	movl	%ebx, (%r10)
	movl	$1, (%rsp)
	movl	%eax, -4076(%rbp)       # 4-byte Spill
	callq	trace_logger_log0
	movl	$1, %eax
	movl	%eax, %ecx
	movl	$64, %eax
	movl	%eax, %esi
	movabsq	$.L.str.14, %r8
	xorl	%eax, %eax
	movl	%eax, %r9d
	movabsq	$.L.str.5, %rdx
	movq	%rcx, %rdi
	movq	-432(%rbp), %r10        # 8-byte Reload
	movq	%rdx, -4088(%rbp)       # 8-byte Spill
	movq	%r10, %rdx
	movq	-4088(%rbp), %r11       # 8-byte Reload
	movq	%r11, (%rsp)
	callq	trace_logger_log_ptr
	movl	$19134, %eax            # imm = 0x4ABE
	movl	%eax, %edi
	movl	$32, %eax
	movl	%eax, %esi
	movl	$1, %eax
	movl	%eax, %ecx
	movabsq	$.L.str.135, %r8
	xorl	%eax, %eax
	movl	%eax, %r9d
	movabsq	$.L.str.5, %rdx
	movq	-432(%rbp), %r10        # 8-byte Reload
	movl	(%r10), %eax
	movl	%eax, %ebx
	movl	%ebx, %r11d
	movq	%rdx, -4096(%rbp)       # 8-byte Spill
	movq	%r11, %rdx
	movq	-4096(%rbp), %r11       # 8-byte Reload
	movq	%r11, (%rsp)
	movl	%eax, -4100(%rbp)       # 4-byte Spill
	callq	trace_logger_log_int
	movl	$26, %eax
	movl	%eax, %edi
	movabsq	$.L.str.1, %rsi
	movabsq	$.L.str.44, %rdx
	movabsq	$.L.str.136, %rcx
	movl	$13, %eax
	movl	%eax, %r8d
	xorl	%r9d, %r9d
	movl	$1, %eax
	movl	$1, (%rsp)
	movl	%eax, -4104(%rbp)       # 4-byte Spill
	callq	trace_logger_log0
	movl	$2, %eax
	movl	%eax, %edi
	movl	$32, %eax
	movl	%eax, %esi
	movl	$1, %eax
	movl	%eax, %ecx
	movabsq	$.L.str.135, %r8
	xorl	%eax, %eax
	movl	%eax, %r9d
	movabsq	$.L.str.5, %rdx
	movl	-4100(%rbp), %eax       # 4-byte Reload
	movl	%eax, %ebx
	movl	%ebx, %r10d
	movq	%rdx, -4112(%rbp)       # 8-byte Spill
	movq	%r10, %rdx
	movq	-4112(%rbp), %r10       # 8-byte Reload
	movq	%r10, (%rsp)
	callq	trace_logger_log_int
	movl	$1, %eax
	movl	%eax, %ecx
	movl	$32, %eax
	movl	%eax, %esi
	movabsq	$.L.str.46, %r8
	xorl	%eax, %eax
	movl	%eax, %r9d
	movabsq	$.L.str.5, %rdx
	movl	-3788(%rbp), %eax       # 4-byte Reload
	movl	%eax, %ebx
	movl	%ebx, %edi
	movq	%rdi, -4120(%rbp)       # 8-byte Spill
	movq	%rcx, %rdi
	movq	-4120(%rbp), %r10       # 8-byte Reload
	movq	%rdx, -4128(%rbp)       # 8-byte Spill
	movq	%r10, %rdx
	movq	-4128(%rbp), %r11       # 8-byte Reload
	movq	%r11, (%rsp)
	callq	trace_logger_log_int
	movl	$19134, %eax            # imm = 0x4ABE
	movl	%eax, %edi
	movl	$32, %eax
	movl	%eax, %esi
	movl	$1, %eax
	movl	%eax, %ecx
	movabsq	$.L.str.136, %r8
	xorl	%eax, %eax
	movl	%eax, %r9d
	movabsq	$.L.str.5, %rdx
	movl	-3788(%rbp), %eax       # 4-byte Reload
	movl	-4100(%rbp), %ebx       # 4-byte Reload
	subl	%ebx, %eax
	movl	%eax, %r14d
	movl	%r14d, %r10d
	movq	%rdx, -4136(%rbp)       # 8-byte Spill
	movq	%r10, %rdx
	movq	-4136(%rbp), %r10       # 8-byte Reload
	movq	%r10, (%rsp)
	movl	%eax, -4140(%rbp)       # 4-byte Spill
	callq	trace_logger_log_int
	movl	$26, %eax
	movl	%eax, %edi
	movabsq	$.L.str.1, %rsi
	movabsq	$.L.str.44, %rdx
	movabsq	$.L.str.137, %rcx
	movl	$31, %eax
	movl	%eax, %r8d
	xorl	%r9d, %r9d
	movl	$1, %eax
	movl	$1, (%rsp)
	movl	%eax, -4144(%rbp)       # 4-byte Spill
	callq	trace_logger_log0
	movl	$2, %eax
	movl	%eax, %edi
	movl	$64, %eax
	movl	%eax, %esi
	movl	$1, %eax
	movl	%eax, %ecx
	movabsq	$.L.str.14, %r8
	xorl	%eax, %eax
	movl	%eax, %r9d
	movabsq	$.L.str.5, %rdx
	movq	-432(%rbp), %r10        # 8-byte Reload
	movq	%rdx, -4152(%rbp)       # 8-byte Spill
	movq	%r10, %rdx
	movq	-4152(%rbp), %r11       # 8-byte Reload
	movq	%r11, (%rsp)
	callq	trace_logger_log_ptr
	movl	$1, %eax
	movl	%eax, %ecx
	movl	$32, %eax
	movl	%eax, %esi
	movabsq	$.L.str.136, %r8
	xorl	%eax, %eax
	movl	%eax, %r9d
	movabsq	$.L.str.5, %rdx
	movl	-4140(%rbp), %eax       # 4-byte Reload
	movl	%eax, %ebx
	movl	%ebx, %edi
	movq	%rdi, -4160(%rbp)       # 8-byte Spill
	movq	%rcx, %rdi
	movq	-4160(%rbp), %r10       # 8-byte Reload
	movq	%rdx, -4168(%rbp)       # 8-byte Spill
	movq	%r10, %rdx
	movq	-4168(%rbp), %r11       # 8-byte Reload
	movq	%r11, (%rsp)
	callq	trace_logger_log_int
	movl	$26, %eax
	movl	%eax, %edi
	movabsq	$.L.str.1, %rsi
	movabsq	$.L.str.44, %rdx
	movabsq	$.L.str.45, %rcx
	movl	$30, %eax
	movl	%eax, %r8d
	xorl	%r9d, %r9d
	movl	$1, %eax
	movq	-432(%rbp), %r10        # 8-byte Reload
	movl	-4140(%rbp), %ebx       # 4-byte Reload
	movl	%ebx, (%r10)
.Ltmp29:
	.loc	1 26 3                  # fft.c:26:3
	movl	$1, (%rsp)
	movl	%eax, -4172(%rbp)       # 4-byte Spill
	callq	trace_logger_log0
	movl	$1, %eax
	movl	%eax, %ecx
	movl	$64, %eax
	movl	%eax, %esi
	movabsq	$.L.str.9, %r8
	xorl	%eax, %eax
	movl	%eax, %r9d
	movabsq	$.L.str.5, %rdx
	movq	%rcx, %rdi
	movq	-256(%rbp), %r10        # 8-byte Reload
	movq	%rdx, -4184(%rbp)       # 8-byte Spill
	movq	%r10, %rdx
	movq	-4184(%rbp), %r11       # 8-byte Reload
	movq	%r11, (%rsp)
	callq	trace_logger_log_ptr
	movl	$19134, %eax            # imm = 0x4ABE
	movl	%eax, %edi
	movl	$32, %eax
	movl	%eax, %esi
	movl	$1, %eax
	movl	%eax, %ecx
	movabsq	$.L.str.45, %r8
	xorl	%eax, %eax
	movl	%eax, %r9d
	movabsq	$.L.str.5, %rdx
	movq	-256(%rbp), %r10        # 8-byte Reload
	movl	(%r10), %eax
	movl	%eax, %ebx
	movl	%ebx, %r11d
	movq	%rdx, -4192(%rbp)       # 8-byte Spill
	movq	%r11, %rdx
	movq	-4192(%rbp), %r11       # 8-byte Reload
	movq	%r11, (%rsp)
	movl	%eax, -4196(%rbp)       # 4-byte Spill
	callq	trace_logger_log_int
	movl	$26, %eax
	movl	%eax, %edi
	movabsq	$.L.str.1, %rsi
	movabsq	$.L.str.44, %rdx
	movabsq	$.L.str.46, %rcx
	movl	$30, %eax
	movl	%eax, %r8d
	xorl	%r9d, %r9d
	movl	$1, %eax
.Ltmp30:
	#DEBUG_VALUE: c0_x <- [DW_OP_constu 4196, DW_OP_minus] [%rbp+0]
	movl	$1, (%rsp)
	movl	%eax, -4200(%rbp)       # 4-byte Spill
	callq	trace_logger_log0
	movl	$1, %eax
	movl	%eax, %ecx
	movl	$64, %eax
	movl	%eax, %esi
	movabsq	$.L.str.10, %r8
	xorl	%eax, %eax
	movl	%eax, %r9d
	movabsq	$.L.str.5, %rdx
	movq	%rcx, %rdi
	movq	-288(%rbp), %r10        # 8-byte Reload
	movq	%rdx, -4208(%rbp)       # 8-byte Spill
	movq	%r10, %rdx
	movq	-4208(%rbp), %r11       # 8-byte Reload
	movq	%r11, (%rsp)
	callq	trace_logger_log_ptr
	movl	$19134, %eax            # imm = 0x4ABE
	movl	%eax, %edi
	movl	$32, %eax
	movl	%eax, %esi
	movl	$1, %eax
	movl	%eax, %ecx
	movabsq	$.L.str.46, %r8
	xorl	%eax, %eax
	movl	%eax, %r9d
	movabsq	$.L.str.5, %rdx
	movq	-288(%rbp), %r10        # 8-byte Reload
	movl	(%r10), %eax
	movl	%eax, %ebx
	movl	%ebx, %r11d
	movq	%rdx, -4216(%rbp)       # 8-byte Spill
	movq	%r11, %rdx
	movq	-4216(%rbp), %r11       # 8-byte Reload
	movq	%r11, (%rsp)
	movl	%eax, -4220(%rbp)       # 4-byte Spill
	callq	trace_logger_log_int
	movl	$26, %eax
	movl	%eax, %edi
	movabsq	$.L.str.1, %rsi
	movabsq	$.L.str.44, %rdx
	movabsq	$.L.str.138, %rcx
	movl	$30, %eax
	movl	%eax, %r8d
	xorl	%r9d, %r9d
	movl	$1, %eax
.Ltmp31:
	#DEBUG_VALUE: c0_y <- [DW_OP_constu 4220, DW_OP_minus] [%rbp+0]
	movl	$1, (%rsp)
	movl	%eax, -4224(%rbp)       # 4-byte Spill
	callq	trace_logger_log0
	movl	$1, %eax
	movl	%eax, %ecx
	movl	$64, %eax
	movl	%eax, %esi
	movabsq	$.L.str.17, %r8
	xorl	%eax, %eax
	movl	%eax, %r9d
	movabsq	$.L.str.5, %rdx
	movq	%rcx, %rdi
	movq	-528(%rbp), %r10        # 8-byte Reload
	movq	%rdx, -4232(%rbp)       # 8-byte Spill
	movq	%r10, %rdx
	movq	-4232(%rbp), %r11       # 8-byte Reload
	movq	%r11, (%rsp)
	callq	trace_logger_log_ptr
	movl	$19134, %eax            # imm = 0x4ABE
	movl	%eax, %edi
	movl	$32, %eax
	movl	%eax, %esi
	movl	$1, %eax
	movl	%eax, %ecx
	movabsq	$.L.str.138, %r8
	xorl	%eax, %eax
	movl	%eax, %r9d
	movabsq	$.L.str.5, %rdx
	movq	-528(%rbp), %r10        # 8-byte Reload
	movl	(%r10), %eax
	movl	%eax, %ebx
	movl	%ebx, %r11d
	movq	%rdx, -4240(%rbp)       # 8-byte Spill
	movq	%r11, %rdx
	movq	-4240(%rbp), %r11       # 8-byte Reload
	movq	%r11, (%rsp)
	movl	%eax, -4244(%rbp)       # 4-byte Spill
	callq	trace_logger_log_int
	movl	$26, %eax
	movl	%eax, %edi
	movabsq	$.L.str.1, %rsi
	movabsq	$.L.str.44, %rdx
	movabsq	$.L.str.139, %rcx
	movl	$11, %eax
	movl	%eax, %r8d
	xorl	%r9d, %r9d
	movl	$1, %eax
	movl	$1, (%rsp)
	movl	%eax, -4248(%rbp)       # 4-byte Spill
	callq	trace_logger_log0
	movl	$2, %eax
	movl	%eax, %edi
	movl	$32, %eax
	movl	%eax, %esi
	movl	$1, %eax
	movl	%eax, %ecx
	movabsq	$.L.str.45, %r8
	xorl	%eax, %eax
	movl	%eax, %r9d
	movabsq	$.L.str.5, %rdx
	movl	-4196(%rbp), %eax       # 4-byte Reload
	movl	%eax, %ebx
	movl	%ebx, %r10d
	movq	%rdx, -4256(%rbp)       # 8-byte Spill
	movq	%r10, %rdx
	movq	-4256(%rbp), %r10       # 8-byte Reload
	movq	%r10, (%rsp)
	callq	trace_logger_log_int
	movl	$1, %eax
	movl	%eax, %ecx
	movl	$32, %eax
	movl	%eax, %esi
	movabsq	$.L.str.138, %r8
	xorl	%eax, %eax
	movl	%eax, %r9d
	movabsq	$.L.str.5, %rdx
	movl	-4244(%rbp), %eax       # 4-byte Reload
	movl	%eax, %ebx
	movl	%ebx, %edi
	movq	%rdi, -4264(%rbp)       # 8-byte Spill
	movq	%rcx, %rdi
	movq	-4264(%rbp), %r10       # 8-byte Reload
	movq	%rdx, -4272(%rbp)       # 8-byte Spill
	movq	%r10, %rdx
	movq	-4272(%rbp), %r11       # 8-byte Reload
	movq	%r11, (%rsp)
	callq	trace_logger_log_int
	movl	$19134, %eax            # imm = 0x4ABE
	movl	%eax, %edi
	movl	$32, %eax
	movl	%eax, %esi
	movl	$1, %eax
	movl	%eax, %ecx
	movabsq	$.L.str.139, %r8
	xorl	%eax, %eax
	movl	%eax, %r9d
	movabsq	$.L.str.5, %rdx
	movl	-4244(%rbp), %eax       # 4-byte Reload
	movl	-4196(%rbp), %ebx       # 4-byte Reload
	addl	%ebx, %eax
	movl	%eax, %r14d
	movl	%r14d, %r10d
	movq	%rdx, -4280(%rbp)       # 8-byte Spill
	movq	%r10, %rdx
	movq	-4280(%rbp), %r10       # 8-byte Reload
	movq	%r10, (%rsp)
	movl	%eax, -4284(%rbp)       # 4-byte Spill
	callq	trace_logger_log_int
	movl	$26, %eax
	movl	%eax, %edi
	movabsq	$.L.str.1, %rsi
	movabsq	$.L.str.44, %rdx
	movabsq	$.L.str.140, %rcx
	movl	$31, %eax
	movl	%eax, %r8d
	xorl	%r9d, %r9d
	movl	$1, %eax
	movl	$1, (%rsp)
	movl	%eax, -4288(%rbp)       # 4-byte Spill
	callq	trace_logger_log0
	movl	$2, %eax
	movl	%eax, %edi
	movl	$64, %eax
	movl	%eax, %esi
	movl	$1, %eax
	movl	%eax, %ecx
	movabsq	$.L.str.9, %r8
	xorl	%eax, %eax
	movl	%eax, %r9d
	movabsq	$.L.str.5, %rdx
	movq	-256(%rbp), %r10        # 8-byte Reload
	movq	%rdx, -4296(%rbp)       # 8-byte Spill
	movq	%r10, %rdx
	movq	-4296(%rbp), %r11       # 8-byte Reload
	movq	%r11, (%rsp)
	callq	trace_logger_log_ptr
	movl	$1, %eax
	movl	%eax, %ecx
	movl	$32, %eax
	movl	%eax, %esi
	movabsq	$.L.str.139, %r8
	xorl	%eax, %eax
	movl	%eax, %r9d
	movabsq	$.L.str.5, %rdx
	movl	-4284(%rbp), %eax       # 4-byte Reload
	movl	%eax, %ebx
	movl	%ebx, %edi
	movq	%rdi, -4304(%rbp)       # 8-byte Spill
	movq	%rcx, %rdi
	movq	-4304(%rbp), %r10       # 8-byte Reload
	movq	%rdx, -4312(%rbp)       # 8-byte Spill
	movq	%r10, %rdx
	movq	-4312(%rbp), %r11       # 8-byte Reload
	movq	%r11, (%rsp)
	callq	trace_logger_log_int
	movl	$26, %eax
	movl	%eax, %edi
	movabsq	$.L.str.1, %rsi
	movabsq	$.L.str.44, %rdx
	movabsq	$.L.str.141, %rcx
	movl	$30, %eax
	movl	%eax, %r8d
	xorl	%r9d, %r9d
	movl	$1, %eax
	movq	-256(%rbp), %r10        # 8-byte Reload
	movl	-4284(%rbp), %ebx       # 4-byte Reload
	movl	%ebx, (%r10)
	movl	$1, (%rsp)
	movl	%eax, -4316(%rbp)       # 4-byte Spill
	callq	trace_logger_log0
	movl	$1, %eax
	movl	%eax, %ecx
	movl	$64, %eax
	movl	%eax, %esi
	movabsq	$.L.str.18, %r8
	xorl	%eax, %eax
	movl	%eax, %r9d
	movabsq	$.L.str.5, %rdx
	movq	%rcx, %rdi
	movq	-560(%rbp), %r10        # 8-byte Reload
	movq	%rdx, -4328(%rbp)       # 8-byte Spill
	movq	%r10, %rdx
	movq	-4328(%rbp), %r11       # 8-byte Reload
	movq	%r11, (%rsp)
	callq	trace_logger_log_ptr
	movl	$19134, %eax            # imm = 0x4ABE
	movl	%eax, %edi
	movl	$32, %eax
	movl	%eax, %esi
	movl	$1, %eax
	movl	%eax, %ecx
	movabsq	$.L.str.141, %r8
	xorl	%eax, %eax
	movl	%eax, %r9d
	movabsq	$.L.str.5, %rdx
	movq	-560(%rbp), %r10        # 8-byte Reload
	movl	(%r10), %eax
	movl	%eax, %ebx
	movl	%ebx, %r11d
	movq	%rdx, -4336(%rbp)       # 8-byte Spill
	movq	%r11, %rdx
	movq	-4336(%rbp), %r11       # 8-byte Reload
	movq	%r11, (%rsp)
	movl	%eax, -4340(%rbp)       # 4-byte Spill
	callq	trace_logger_log_int
	movl	$26, %eax
	movl	%eax, %edi
	movabsq	$.L.str.1, %rsi
	movabsq	$.L.str.44, %rdx
	movabsq	$.L.str.142, %rcx
	movl	$11, %eax
	movl	%eax, %r8d
	xorl	%r9d, %r9d
	movl	$1, %eax
	movl	$1, (%rsp)
	movl	%eax, -4344(%rbp)       # 4-byte Spill
	callq	trace_logger_log0
	movl	$2, %eax
	movl	%eax, %edi
	movl	$32, %eax
	movl	%eax, %esi
	movl	$1, %eax
	movl	%eax, %ecx
	movabsq	$.L.str.46, %r8
	xorl	%eax, %eax
	movl	%eax, %r9d
	movabsq	$.L.str.5, %rdx
	movl	-4220(%rbp), %eax       # 4-byte Reload
	movl	%eax, %ebx
	movl	%ebx, %r10d
	movq	%rdx, -4352(%rbp)       # 8-byte Spill
	movq	%r10, %rdx
	movq	-4352(%rbp), %r10       # 8-byte Reload
	movq	%r10, (%rsp)
	callq	trace_logger_log_int
	movl	$1, %eax
	movl	%eax, %ecx
	movl	$32, %eax
	movl	%eax, %esi
	movabsq	$.L.str.141, %r8
	xorl	%eax, %eax
	movl	%eax, %r9d
	movabsq	$.L.str.5, %rdx
	movl	-4340(%rbp), %eax       # 4-byte Reload
	movl	%eax, %ebx
	movl	%ebx, %edi
	movq	%rdi, -4360(%rbp)       # 8-byte Spill
	movq	%rcx, %rdi
	movq	-4360(%rbp), %r10       # 8-byte Reload
	movq	%rdx, -4368(%rbp)       # 8-byte Spill
	movq	%r10, %rdx
	movq	-4368(%rbp), %r11       # 8-byte Reload
	movq	%r11, (%rsp)
	callq	trace_logger_log_int
	movl	$19134, %eax            # imm = 0x4ABE
	movl	%eax, %edi
	movl	$32, %eax
	movl	%eax, %esi
	movl	$1, %eax
	movl	%eax, %ecx
	movabsq	$.L.str.142, %r8
	xorl	%eax, %eax
	movl	%eax, %r9d
	movabsq	$.L.str.5, %rdx
	movl	-4340(%rbp), %eax       # 4-byte Reload
	movl	-4220(%rbp), %ebx       # 4-byte Reload
	addl	%ebx, %eax
	movl	%eax, %r14d
	movl	%r14d, %r10d
	movq	%rdx, -4376(%rbp)       # 8-byte Spill
	movq	%r10, %rdx
	movq	-4376(%rbp), %r10       # 8-byte Reload
	movq	%r10, (%rsp)
	movl	%eax, -4380(%rbp)       # 4-byte Spill
	callq	trace_logger_log_int
	movl	$26, %eax
	movl	%eax, %edi
	movabsq	$.L.str.1, %rsi
	movabsq	$.L.str.44, %rdx
	movabsq	$.L.str.143, %rcx
	movl	$31, %eax
	movl	%eax, %r8d
	xorl	%r9d, %r9d
	movl	$1, %eax
	movl	$1, (%rsp)
	movl	%eax, -4384(%rbp)       # 4-byte Spill
	callq	trace_logger_log0
	movl	$2, %eax
	movl	%eax, %edi
	movl	$64, %eax
	movl	%eax, %esi
	movl	$1, %eax
	movl	%eax, %ecx
	movabsq	$.L.str.10, %r8
	xorl	%eax, %eax
	movl	%eax, %r9d
	movabsq	$.L.str.5, %rdx
	movq	-288(%rbp), %r10        # 8-byte Reload
	movq	%rdx, -4392(%rbp)       # 8-byte Spill
	movq	%r10, %rdx
	movq	-4392(%rbp), %r11       # 8-byte Reload
	movq	%r11, (%rsp)
	callq	trace_logger_log_ptr
	movl	$1, %eax
	movl	%eax, %ecx
	movl	$32, %eax
	movl	%eax, %esi
	movabsq	$.L.str.142, %r8
	xorl	%eax, %eax
	movl	%eax, %r9d
	movabsq	$.L.str.5, %rdx
	movl	-4380(%rbp), %eax       # 4-byte Reload
	movl	%eax, %ebx
	movl	%ebx, %edi
	movq	%rdi, -4400(%rbp)       # 8-byte Spill
	movq	%rcx, %rdi
	movq	-4400(%rbp), %r10       # 8-byte Reload
	movq	%rdx, -4408(%rbp)       # 8-byte Spill
	movq	%r10, %rdx
	movq	-4408(%rbp), %r11       # 8-byte Reload
	movq	%r11, (%rsp)
	callq	trace_logger_log_int
	movl	$26, %eax
	movl	%eax, %edi
	movabsq	$.L.str.1, %rsi
	movabsq	$.L.str.44, %rdx
	movabsq	$.L.str.144, %rcx
	movl	$30, %eax
	movl	%eax, %r8d
	xorl	%r9d, %r9d
	movl	$1, %eax
	movq	-288(%rbp), %r10        # 8-byte Reload
	movl	-4380(%rbp), %ebx       # 4-byte Reload
	movl	%ebx, (%r10)
	movl	$1, (%rsp)
	movl	%eax, -4412(%rbp)       # 4-byte Spill
	callq	trace_logger_log0
	movl	$1, %eax
	movl	%eax, %ecx
	movl	$64, %eax
	movl	%eax, %esi
	movabsq	$.L.str.17, %r8
	xorl	%eax, %eax
	movl	%eax, %r9d
	movabsq	$.L.str.5, %rdx
	movq	%rcx, %rdi
	movq	-528(%rbp), %r10        # 8-byte Reload
	movq	%rdx, -4424(%rbp)       # 8-byte Spill
	movq	%r10, %rdx
	movq	-4424(%rbp), %r11       # 8-byte Reload
	movq	%r11, (%rsp)
	callq	trace_logger_log_ptr
	movl	$19134, %eax            # imm = 0x4ABE
	movl	%eax, %edi
	movl	$32, %eax
	movl	%eax, %esi
	movl	$1, %eax
	movl	%eax, %ecx
	movabsq	$.L.str.144, %r8
	xorl	%eax, %eax
	movl	%eax, %r9d
	movabsq	$.L.str.5, %rdx
	movq	-528(%rbp), %r10        # 8-byte Reload
	movl	(%r10), %eax
	movl	%eax, %ebx
	movl	%ebx, %r11d
	movq	%rdx, -4432(%rbp)       # 8-byte Spill
	movq	%r11, %rdx
	movq	-4432(%rbp), %r11       # 8-byte Reload
	movq	%r11, (%rsp)
	movl	%eax, -4436(%rbp)       # 4-byte Spill
	callq	trace_logger_log_int
	movl	$26, %eax
	movl	%eax, %edi
	movabsq	$.L.str.1, %rsi
	movabsq	$.L.str.44, %rdx
	movabsq	$.L.str.145, %rcx
	movl	$13, %eax
	movl	%eax, %r8d
	xorl	%r9d, %r9d
	movl	$1, %eax
	movl	$1, (%rsp)
	movl	%eax, -4440(%rbp)       # 4-byte Spill
	callq	trace_logger_log0
	movl	$2, %eax
	movl	%eax, %edi
	movl	$32, %eax
	movl	%eax, %esi
	movl	$1, %eax
	movl	%eax, %ecx
	movabsq	$.L.str.144, %r8
	xorl	%eax, %eax
	movl	%eax, %r9d
	movabsq	$.L.str.5, %rdx
	movl	-4436(%rbp), %eax       # 4-byte Reload
	movl	%eax, %ebx
	movl	%ebx, %r10d
	movq	%rdx, -4448(%rbp)       # 8-byte Spill
	movq	%r10, %rdx
	movq	-4448(%rbp), %r10       # 8-byte Reload
	movq	%r10, (%rsp)
	callq	trace_logger_log_int
	movl	$1, %eax
	movl	%eax, %ecx
	movl	$32, %eax
	movl	%eax, %esi
	movabsq	$.L.str.45, %r8
	xorl	%eax, %eax
	movl	%eax, %r9d
	movabsq	$.L.str.5, %rdx
	movl	-4196(%rbp), %eax       # 4-byte Reload
	movl	%eax, %ebx
	movl	%ebx, %edi
	movq	%rdi, -4456(%rbp)       # 8-byte Spill
	movq	%rcx, %rdi
	movq	-4456(%rbp), %r10       # 8-byte Reload
	movq	%rdx, -4464(%rbp)       # 8-byte Spill
	movq	%r10, %rdx
	movq	-4464(%rbp), %r11       # 8-byte Reload
	movq	%r11, (%rsp)
	callq	trace_logger_log_int
	movl	$19134, %eax            # imm = 0x4ABE
	movl	%eax, %edi
	movl	$32, %eax
	movl	%eax, %esi
	movl	$1, %eax
	movl	%eax, %ecx
	movabsq	$.L.str.145, %r8
	xorl	%eax, %eax
	movl	%eax, %r9d
	movabsq	$.L.str.5, %rdx
	movl	-4196(%rbp), %eax       # 4-byte Reload
	movl	-4436(%rbp), %ebx       # 4-byte Reload
	subl	%ebx, %eax
	movl	%eax, %r14d
	movl	%r14d, %r10d
	movq	%rdx, -4472(%rbp)       # 8-byte Spill
	movq	%r10, %rdx
	movq	-4472(%rbp), %r10       # 8-byte Reload
	movq	%r10, (%rsp)
	movl	%eax, -4476(%rbp)       # 4-byte Spill
	callq	trace_logger_log_int
	movl	$26, %eax
	movl	%eax, %edi
	movabsq	$.L.str.1, %rsi
	movabsq	$.L.str.44, %rdx
	movabsq	$.L.str.146, %rcx
	movl	$31, %eax
	movl	%eax, %r8d
	xorl	%r9d, %r9d
	movl	$1, %eax
	movl	$1, (%rsp)
	movl	%eax, -4480(%rbp)       # 4-byte Spill
	callq	trace_logger_log0
	movl	$2, %eax
	movl	%eax, %edi
	movl	$64, %eax
	movl	%eax, %esi
	movl	$1, %eax
	movl	%eax, %ecx
	movabsq	$.L.str.17, %r8
	xorl	%eax, %eax
	movl	%eax, %r9d
	movabsq	$.L.str.5, %rdx
	movq	-528(%rbp), %r10        # 8-byte Reload
	movq	%rdx, -4488(%rbp)       # 8-byte Spill
	movq	%r10, %rdx
	movq	-4488(%rbp), %r11       # 8-byte Reload
	movq	%r11, (%rsp)
	callq	trace_logger_log_ptr
	movl	$1, %eax
	movl	%eax, %ecx
	movl	$32, %eax
	movl	%eax, %esi
	movabsq	$.L.str.145, %r8
	xorl	%eax, %eax
	movl	%eax, %r9d
	movabsq	$.L.str.5, %rdx
	movl	-4476(%rbp), %eax       # 4-byte Reload
	movl	%eax, %ebx
	movl	%ebx, %edi
	movq	%rdi, -4496(%rbp)       # 8-byte Spill
	movq	%rcx, %rdi
	movq	-4496(%rbp), %r10       # 8-byte Reload
	movq	%rdx, -4504(%rbp)       # 8-byte Spill
	movq	%r10, %rdx
	movq	-4504(%rbp), %r11       # 8-byte Reload
	movq	%r11, (%rsp)
	callq	trace_logger_log_int
	movl	$26, %eax
	movl	%eax, %edi
	movabsq	$.L.str.1, %rsi
	movabsq	$.L.str.44, %rdx
	movabsq	$.L.str.147, %rcx
	movl	$30, %eax
	movl	%eax, %r8d
	xorl	%r9d, %r9d
	movl	$1, %eax
	movq	-528(%rbp), %r10        # 8-byte Reload
	movl	-4476(%rbp), %ebx       # 4-byte Reload
	movl	%ebx, (%r10)
	movl	$1, (%rsp)
	movl	%eax, -4508(%rbp)       # 4-byte Spill
	callq	trace_logger_log0
	movl	$1, %eax
	movl	%eax, %ecx
	movl	$64, %eax
	movl	%eax, %esi
	movabsq	$.L.str.18, %r8
	xorl	%eax, %eax
	movl	%eax, %r9d
	movabsq	$.L.str.5, %rdx
	movq	%rcx, %rdi
	movq	-560(%rbp), %r10        # 8-byte Reload
	movq	%rdx, -4520(%rbp)       # 8-byte Spill
	movq	%r10, %rdx
	movq	-4520(%rbp), %r11       # 8-byte Reload
	movq	%r11, (%rsp)
	callq	trace_logger_log_ptr
	movl	$19134, %eax            # imm = 0x4ABE
	movl	%eax, %edi
	movl	$32, %eax
	movl	%eax, %esi
	movl	$1, %eax
	movl	%eax, %ecx
	movabsq	$.L.str.147, %r8
	xorl	%eax, %eax
	movl	%eax, %r9d
	movabsq	$.L.str.5, %rdx
	movq	-560(%rbp), %r10        # 8-byte Reload
	movl	(%r10), %eax
	movl	%eax, %ebx
	movl	%ebx, %r11d
	movq	%rdx, -4528(%rbp)       # 8-byte Spill
	movq	%r11, %rdx
	movq	-4528(%rbp), %r11       # 8-byte Reload
	movq	%r11, (%rsp)
	movl	%eax, -4532(%rbp)       # 4-byte Spill
	callq	trace_logger_log_int
	movl	$26, %eax
	movl	%eax, %edi
	movabsq	$.L.str.1, %rsi
	movabsq	$.L.str.44, %rdx
	movabsq	$.L.str.148, %rcx
	movl	$13, %eax
	movl	%eax, %r8d
	xorl	%r9d, %r9d
	movl	$1, %eax
	movl	$1, (%rsp)
	movl	%eax, -4536(%rbp)       # 4-byte Spill
	callq	trace_logger_log0
	movl	$2, %eax
	movl	%eax, %edi
	movl	$32, %eax
	movl	%eax, %esi
	movl	$1, %eax
	movl	%eax, %ecx
	movabsq	$.L.str.147, %r8
	xorl	%eax, %eax
	movl	%eax, %r9d
	movabsq	$.L.str.5, %rdx
	movl	-4532(%rbp), %eax       # 4-byte Reload
	movl	%eax, %ebx
	movl	%ebx, %r10d
	movq	%rdx, -4544(%rbp)       # 8-byte Spill
	movq	%r10, %rdx
	movq	-4544(%rbp), %r10       # 8-byte Reload
	movq	%r10, (%rsp)
	callq	trace_logger_log_int
	movl	$1, %eax
	movl	%eax, %ecx
	movl	$32, %eax
	movl	%eax, %esi
	movabsq	$.L.str.46, %r8
	xorl	%eax, %eax
	movl	%eax, %r9d
	movabsq	$.L.str.5, %rdx
	movl	-4220(%rbp), %eax       # 4-byte Reload
	movl	%eax, %ebx
	movl	%ebx, %edi
	movq	%rdi, -4552(%rbp)       # 8-byte Spill
	movq	%rcx, %rdi
	movq	-4552(%rbp), %r10       # 8-byte Reload
	movq	%rdx, -4560(%rbp)       # 8-byte Spill
	movq	%r10, %rdx
	movq	-4560(%rbp), %r11       # 8-byte Reload
	movq	%r11, (%rsp)
	callq	trace_logger_log_int
	movl	$19134, %eax            # imm = 0x4ABE
	movl	%eax, %edi
	movl	$32, %eax
	movl	%eax, %esi
	movl	$1, %eax
	movl	%eax, %ecx
	movabsq	$.L.str.148, %r8
	xorl	%eax, %eax
	movl	%eax, %r9d
	movabsq	$.L.str.5, %rdx
	movl	-4220(%rbp), %eax       # 4-byte Reload
	movl	-4532(%rbp), %ebx       # 4-byte Reload
	subl	%ebx, %eax
	movl	%eax, %r14d
	movl	%r14d, %r10d
	movq	%rdx, -4568(%rbp)       # 8-byte Spill
	movq	%r10, %rdx
	movq	-4568(%rbp), %r10       # 8-byte Reload
	movq	%r10, (%rsp)
	movl	%eax, -4572(%rbp)       # 4-byte Spill
	callq	trace_logger_log_int
	movl	$26, %eax
	movl	%eax, %edi
	movabsq	$.L.str.1, %rsi
	movabsq	$.L.str.44, %rdx
	movabsq	$.L.str.149, %rcx
	movl	$31, %eax
	movl	%eax, %r8d
	xorl	%r9d, %r9d
	movl	$1, %eax
	movl	$1, (%rsp)
	movl	%eax, -4576(%rbp)       # 4-byte Spill
	callq	trace_logger_log0
	movl	$2, %eax
	movl	%eax, %edi
	movl	$64, %eax
	movl	%eax, %esi
	movl	$1, %eax
	movl	%eax, %ecx
	movabsq	$.L.str.18, %r8
	xorl	%eax, %eax
	movl	%eax, %r9d
	movabsq	$.L.str.5, %rdx
	movq	-560(%rbp), %r10        # 8-byte Reload
	movq	%rdx, -4584(%rbp)       # 8-byte Spill
	movq	%r10, %rdx
	movq	-4584(%rbp), %r11       # 8-byte Reload
	movq	%r11, (%rsp)
	callq	trace_logger_log_ptr
	movl	$1, %eax
	movl	%eax, %ecx
	movl	$32, %eax
	movl	%eax, %esi
	movabsq	$.L.str.148, %r8
	xorl	%eax, %eax
	movl	%eax, %r9d
	movabsq	$.L.str.5, %rdx
	movl	-4572(%rbp), %eax       # 4-byte Reload
	movl	%eax, %ebx
	movl	%ebx, %edi
	movq	%rdi, -4592(%rbp)       # 8-byte Spill
	movq	%rcx, %rdi
	movq	-4592(%rbp), %r10       # 8-byte Reload
	movq	%rdx, -4600(%rbp)       # 8-byte Spill
	movq	%r10, %rdx
	movq	-4600(%rbp), %r11       # 8-byte Reload
	movq	%r11, (%rsp)
	callq	trace_logger_log_int
	movl	$26, %eax
	movl	%eax, %edi
	movabsq	$.L.str.1, %rsi
	movabsq	$.L.str.44, %rdx
	movabsq	$.L.str.150, %rcx
	movl	$30, %eax
	movl	%eax, %r8d
	xorl	%r9d, %r9d
	movl	$1, %eax
	movq	-560(%rbp), %r10        # 8-byte Reload
	movl	-4572(%rbp), %ebx       # 4-byte Reload
	movl	%ebx, (%r10)
.Ltmp32:
	.loc	1 26 3                  # fft.c:26:3
	movl	$1, (%rsp)
	movl	%eax, -4604(%rbp)       # 4-byte Spill
	callq	trace_logger_log0
	movl	$1, %eax
	movl	%eax, %ecx
	movl	$64, %eax
	movl	%eax, %esi
	movabsq	$.L.str.17, %r8
	xorl	%eax, %eax
	movl	%eax, %r9d
	movabsq	$.L.str.5, %rdx
	movq	%rcx, %rdi
	movq	-528(%rbp), %r10        # 8-byte Reload
	movq	%rdx, -4616(%rbp)       # 8-byte Spill
	movq	%r10, %rdx
	movq	-4616(%rbp), %r11       # 8-byte Reload
	movq	%r11, (%rsp)
	callq	trace_logger_log_ptr
	movl	$19134, %eax            # imm = 0x4ABE
	movl	%eax, %edi
	movl	$32, %eax
	movl	%eax, %esi
	movl	$1, %eax
	movl	%eax, %ecx
	movabsq	$.L.str.150, %r8
	xorl	%eax, %eax
	movl	%eax, %r9d
	movabsq	$.L.str.5, %rdx
	movq	-528(%rbp), %r10        # 8-byte Reload
	movl	(%r10), %eax
	movl	%eax, %ebx
	movl	%ebx, %r11d
	movq	%rdx, -4624(%rbp)       # 8-byte Spill
	movq	%r11, %rdx
	movq	-4624(%rbp), %r11       # 8-byte Reload
	movq	%r11, (%rsp)
	movl	%eax, -4628(%rbp)       # 4-byte Spill
	callq	trace_logger_log_int
	movl	$26, %eax
	movl	%eax, %edi
	movabsq	$.L.str.1, %rsi
	movabsq	$.L.str.44, %rdx
	movabsq	$.L.str.151, %rcx
	movl	$31, %eax
	movl	%eax, %r8d
	xorl	%r9d, %r9d
	movl	$1, %eax
.Ltmp33:
	#DEBUG_VALUE: tmp <- [DW_OP_constu 4628, DW_OP_minus] [%rbp+0]
	movl	$1, (%rsp)
	movl	%eax, -4632(%rbp)       # 4-byte Spill
	callq	trace_logger_log0
	movl	$2, %eax
	movl	%eax, %edi
	movl	$64, %eax
	movl	%eax, %esi
	movl	$1, %eax
	movl	%eax, %ecx
	movabsq	$.L.str.17, %r8
	xorl	%eax, %eax
	movl	%eax, %r9d
	movabsq	$.L.str.5, %rdx
	movq	-528(%rbp), %r10        # 8-byte Reload
	movq	%rdx, -4640(%rbp)       # 8-byte Spill
	movq	%r10, %rdx
	movq	-4640(%rbp), %r11       # 8-byte Reload
	movq	%r11, (%rsp)
	callq	trace_logger_log_ptr
	movl	$1, %eax
	movl	%eax, %ecx
	movl	$32, %eax
	movl	%eax, %esi
	movabsq	$.L.str.148, %r8
	xorl	%eax, %eax
	movl	%eax, %r9d
	movabsq	$.L.str.5, %rdx
	movl	-4572(%rbp), %eax       # 4-byte Reload
	movl	%eax, %ebx
	movl	%ebx, %edi
	movq	%rdi, -4648(%rbp)       # 8-byte Spill
	movq	%rcx, %rdi
	movq	-4648(%rbp), %r10       # 8-byte Reload
	movq	%rdx, -4656(%rbp)       # 8-byte Spill
	movq	%r10, %rdx
	movq	-4656(%rbp), %r11       # 8-byte Reload
	movq	%r11, (%rsp)
	callq	trace_logger_log_int
	movl	$26, %eax
	movl	%eax, %edi
	movabsq	$.L.str.1, %rsi
	movabsq	$.L.str.44, %rdx
	movabsq	$.L.str.152, %rcx
	movl	$13, %eax
	movl	%eax, %r8d
	xorl	%r9d, %r9d
	movl	$1, %eax
	movq	-528(%rbp), %r10        # 8-byte Reload
	movl	-4572(%rbp), %ebx       # 4-byte Reload
	movl	%ebx, (%r10)
	movl	$1, (%rsp)
	movl	%eax, -4660(%rbp)       # 4-byte Spill
	callq	trace_logger_log0
	movl	$2, %eax
	movl	%eax, %edi
	movl	$32, %eax
	movl	%eax, %esi
	movl	$1, %eax
	movl	%eax, %ecx
	movabsq	$.L.str.150, %r8
	xorl	%eax, %eax
	movl	%eax, %r9d
	movabsq	$.L.str.5, %rdx
	movl	-4628(%rbp), %eax       # 4-byte Reload
	movl	%eax, %ebx
	movl	%ebx, %r10d
	movq	%rdx, -4672(%rbp)       # 8-byte Spill
	movq	%r10, %rdx
	movq	-4672(%rbp), %r10       # 8-byte Reload
	movq	%r10, (%rsp)
	callq	trace_logger_log_int
	movl	$1, %eax
	movl	%eax, %ecx
	movl	$32, %eax
	movl	%eax, %esi
	xorl	%eax, %eax
	movl	%eax, %edx
	movabsq	$.L.str.111, %r8
	movabsq	$.L.str.5, %rdi
	movq	%rdi, -4680(%rbp)       # 8-byte Spill
	movq	%rcx, %rdi
	movq	%rdx, -4688(%rbp)       # 8-byte Spill
	movq	-4688(%rbp), %r9        # 8-byte Reload
	movq	-4680(%rbp), %r10       # 8-byte Reload
	movq	%r10, (%rsp)
	callq	trace_logger_log_int
	movl	$19134, %eax            # imm = 0x4ABE
	movl	%eax, %edi
	movl	$32, %eax
	movl	%eax, %esi
	movl	$1, %eax
	movl	%eax, %ecx
	movabsq	$.L.str.152, %r8
	xorl	%eax, %eax
	movl	%eax, %r9d
	movabsq	$.L.str.5, %rdx
	xorl	%eax, %eax
	movl	-4628(%rbp), %ebx       # 4-byte Reload
	subl	%ebx, %eax
	movl	%eax, %r14d
	movl	%r14d, %r10d
	movq	%rdx, -4696(%rbp)       # 8-byte Spill
	movq	%r10, %rdx
	movq	-4696(%rbp), %r10       # 8-byte Reload
	movq	%r10, (%rsp)
	movl	%eax, -4700(%rbp)       # 4-byte Spill
	callq	trace_logger_log_int
	movl	$26, %eax
	movl	%eax, %edi
	movabsq	$.L.str.1, %rsi
	movabsq	$.L.str.44, %rdx
	movabsq	$.L.str.153, %rcx
	movl	$31, %eax
	movl	%eax, %r8d
	xorl	%r9d, %r9d
	movl	$1, %eax
	movl	$1, (%rsp)
	movl	%eax, -4704(%rbp)       # 4-byte Spill
	callq	trace_logger_log0
	movl	$2, %eax
	movl	%eax, %edi
	movl	$64, %eax
	movl	%eax, %esi
	movl	$1, %eax
	movl	%eax, %ecx
	movabsq	$.L.str.18, %r8
	xorl	%eax, %eax
	movl	%eax, %r9d
	movabsq	$.L.str.5, %rdx
	movq	-560(%rbp), %r10        # 8-byte Reload
	movq	%rdx, -4712(%rbp)       # 8-byte Spill
	movq	%r10, %rdx
	movq	-4712(%rbp), %r11       # 8-byte Reload
	movq	%r11, (%rsp)
	callq	trace_logger_log_ptr
	movl	$1, %eax
	movl	%eax, %ecx
	movl	$32, %eax
	movl	%eax, %esi
	movabsq	$.L.str.152, %r8
	xorl	%eax, %eax
	movl	%eax, %r9d
	movabsq	$.L.str.5, %rdx
	movl	-4700(%rbp), %eax       # 4-byte Reload
	movl	%eax, %ebx
	movl	%ebx, %edi
	movq	%rdi, -4720(%rbp)       # 8-byte Spill
	movq	%rcx, %rdi
	movq	-4720(%rbp), %r10       # 8-byte Reload
	movq	%rdx, -4728(%rbp)       # 8-byte Spill
	movq	%r10, %rdx
	movq	-4728(%rbp), %r11       # 8-byte Reload
	movq	%r11, (%rsp)
	callq	trace_logger_log_int
	movl	$26, %eax
	movl	%eax, %edi
	movabsq	$.L.str.1, %rsi
	movabsq	$.L.str.44, %rdx
	movabsq	$.L.str.45, %rcx
	movl	$30, %eax
	movl	%eax, %r8d
	xorl	%r9d, %r9d
	movl	$1, %eax
	movq	-560(%rbp), %r10        # 8-byte Reload
	movl	-4700(%rbp), %ebx       # 4-byte Reload
	movl	%ebx, (%r10)
.Ltmp34:
	.loc	1 26 3                  # fft.c:26:3
	movl	$1, (%rsp)
	movl	%eax, -4732(%rbp)       # 4-byte Spill
	callq	trace_logger_log0
	movl	$1, %eax
	movl	%eax, %ecx
	movl	$64, %eax
	movl	%eax, %esi
	movabsq	$.L.str.6, %r8
	xorl	%eax, %eax
	movl	%eax, %r9d
	movabsq	$.L.str.5, %rdx
	movq	%rcx, %rdi
	movq	-112(%rbp), %r10        # 8-byte Reload
	movq	%rdx, -4744(%rbp)       # 8-byte Spill
	movq	%r10, %rdx
	movq	-4744(%rbp), %r11       # 8-byte Reload
	movq	%r11, (%rsp)
	callq	trace_logger_log_ptr
	movl	$19134, %eax            # imm = 0x4ABE
	movl	%eax, %edi
	movl	$32, %eax
	movl	%eax, %esi
	movl	$1, %eax
	movl	%eax, %ecx
	movabsq	$.L.str.45, %r8
	xorl	%eax, %eax
	movl	%eax, %r9d
	movabsq	$.L.str.5, %rdx
	movq	-112(%rbp), %r10        # 8-byte Reload
	movl	(%r10), %eax
	movl	%eax, %ebx
	movl	%ebx, %r11d
	movq	%rdx, -4752(%rbp)       # 8-byte Spill
	movq	%r11, %rdx
	movq	-4752(%rbp), %r11       # 8-byte Reload
	movq	%r11, (%rsp)
	movl	%eax, -4756(%rbp)       # 4-byte Spill
	callq	trace_logger_log_int
	movl	$26, %eax
	movl	%eax, %edi
	movabsq	$.L.str.1, %rsi
	movabsq	$.L.str.44, %rdx
	movabsq	$.L.str.46, %rcx
	movl	$30, %eax
	movl	%eax, %r8d
	xorl	%r9d, %r9d
	movl	$1, %eax
.Ltmp35:
	#DEBUG_VALUE: c0_x <- [DW_OP_constu 4756, DW_OP_minus] [%rbp+0]
	movl	$1, (%rsp)
	movl	%eax, -4760(%rbp)       # 4-byte Spill
	callq	trace_logger_log0
	movl	$1, %eax
	movl	%eax, %ecx
	movl	$64, %eax
	movl	%eax, %esi
	movabsq	$.L.str.8, %r8
	xorl	%eax, %eax
	movl	%eax, %r9d
	movabsq	$.L.str.5, %rdx
	movq	%rcx, %rdi
	movq	-120(%rbp), %r10        # 8-byte Reload
	movq	%rdx, -4768(%rbp)       # 8-byte Spill
	movq	%r10, %rdx
	movq	-4768(%rbp), %r11       # 8-byte Reload
	movq	%r11, (%rsp)
	callq	trace_logger_log_ptr
	movl	$19134, %eax            # imm = 0x4ABE
	movl	%eax, %edi
	movl	$32, %eax
	movl	%eax, %esi
	movl	$1, %eax
	movl	%eax, %ecx
	movabsq	$.L.str.46, %r8
	xorl	%eax, %eax
	movl	%eax, %r9d
	movabsq	$.L.str.5, %rdx
	movq	-120(%rbp), %r10        # 8-byte Reload
	movl	(%r10), %eax
	movl	%eax, %ebx
	movl	%ebx, %r11d
	movq	%rdx, -4776(%rbp)       # 8-byte Spill
	movq	%r11, %rdx
	movq	-4776(%rbp), %r11       # 8-byte Reload
	movq	%r11, (%rsp)
	movl	%eax, -4780(%rbp)       # 4-byte Spill
	callq	trace_logger_log_int
	movl	$26, %eax
	movl	%eax, %edi
	movabsq	$.L.str.1, %rsi
	movabsq	$.L.str.44, %rdx
	movabsq	$.L.str.154, %rcx
	movl	$30, %eax
	movl	%eax, %r8d
	xorl	%r9d, %r9d
	movl	$1, %eax
.Ltmp36:
	#DEBUG_VALUE: c0_y <- [DW_OP_constu 4780, DW_OP_minus] [%rbp+0]
	movl	$1, (%rsp)
	movl	%eax, -4784(%rbp)       # 4-byte Spill
	callq	trace_logger_log0
	movl	$1, %eax
	movl	%eax, %ecx
	movl	$64, %eax
	movl	%eax, %esi
	movabsq	$.L.str.9, %r8
	xorl	%eax, %eax
	movl	%eax, %r9d
	movabsq	$.L.str.5, %rdx
	movq	%rcx, %rdi
	movq	-256(%rbp), %r10        # 8-byte Reload
	movq	%rdx, -4792(%rbp)       # 8-byte Spill
	movq	%r10, %rdx
	movq	-4792(%rbp), %r11       # 8-byte Reload
	movq	%r11, (%rsp)
	callq	trace_logger_log_ptr
	movl	$19134, %eax            # imm = 0x4ABE
	movl	%eax, %edi
	movl	$32, %eax
	movl	%eax, %esi
	movl	$1, %eax
	movl	%eax, %ecx
	movabsq	$.L.str.154, %r8
	xorl	%eax, %eax
	movl	%eax, %r9d
	movabsq	$.L.str.5, %rdx
	movq	-256(%rbp), %r10        # 8-byte Reload
	movl	(%r10), %eax
	movl	%eax, %ebx
	movl	%ebx, %r11d
	movq	%rdx, -4800(%rbp)       # 8-byte Spill
	movq	%r11, %rdx
	movq	-4800(%rbp), %r11       # 8-byte Reload
	movq	%r11, (%rsp)
	movl	%eax, -4804(%rbp)       # 4-byte Spill
	callq	trace_logger_log_int
	movl	$26, %eax
	movl	%eax, %edi
	movabsq	$.L.str.1, %rsi
	movabsq	$.L.str.44, %rdx
	movabsq	$.L.str.155, %rcx
	movl	$11, %eax
	movl	%eax, %r8d
	xorl	%r9d, %r9d
	movl	$1, %eax
	movl	$1, (%rsp)
	movl	%eax, -4808(%rbp)       # 4-byte Spill
	callq	trace_logger_log0
	movl	$2, %eax
	movl	%eax, %edi
	movl	$32, %eax
	movl	%eax, %esi
	movl	$1, %eax
	movl	%eax, %ecx
	movabsq	$.L.str.45, %r8
	xorl	%eax, %eax
	movl	%eax, %r9d
	movabsq	$.L.str.5, %rdx
	movl	-4756(%rbp), %eax       # 4-byte Reload
	movl	%eax, %ebx
	movl	%ebx, %r10d
	movq	%rdx, -4816(%rbp)       # 8-byte Spill
	movq	%r10, %rdx
	movq	-4816(%rbp), %r10       # 8-byte Reload
	movq	%r10, (%rsp)
	callq	trace_logger_log_int
	movl	$1, %eax
	movl	%eax, %ecx
	movl	$32, %eax
	movl	%eax, %esi
	movabsq	$.L.str.154, %r8
	xorl	%eax, %eax
	movl	%eax, %r9d
	movabsq	$.L.str.5, %rdx
	movl	-4804(%rbp), %eax       # 4-byte Reload
	movl	%eax, %ebx
	movl	%ebx, %edi
	movq	%rdi, -4824(%rbp)       # 8-byte Spill
	movq	%rcx, %rdi
	movq	-4824(%rbp), %r10       # 8-byte Reload
	movq	%rdx, -4832(%rbp)       # 8-byte Spill
	movq	%r10, %rdx
	movq	-4832(%rbp), %r11       # 8-byte Reload
	movq	%r11, (%rsp)
	callq	trace_logger_log_int
	movl	$19134, %eax            # imm = 0x4ABE
	movl	%eax, %edi
	movl	$32, %eax
	movl	%eax, %esi
	movl	$1, %eax
	movl	%eax, %ecx
	movabsq	$.L.str.155, %r8
	xorl	%eax, %eax
	movl	%eax, %r9d
	movabsq	$.L.str.5, %rdx
	movl	-4804(%rbp), %eax       # 4-byte Reload
	movl	-4756(%rbp), %ebx       # 4-byte Reload
	addl	%ebx, %eax
	movl	%eax, %r14d
	movl	%r14d, %r10d
	movq	%rdx, -4840(%rbp)       # 8-byte Spill
	movq	%r10, %rdx
	movq	-4840(%rbp), %r10       # 8-byte Reload
	movq	%r10, (%rsp)
	movl	%eax, -4844(%rbp)       # 4-byte Spill
	callq	trace_logger_log_int
	movl	$26, %eax
	movl	%eax, %edi
	movabsq	$.L.str.1, %rsi
	movabsq	$.L.str.44, %rdx
	movabsq	$.L.str.156, %rcx
	movl	$31, %eax
	movl	%eax, %r8d
	xorl	%r9d, %r9d
	movl	$1, %eax
	movl	$1, (%rsp)
	movl	%eax, -4848(%rbp)       # 4-byte Spill
	callq	trace_logger_log0
	movl	$2, %eax
	movl	%eax, %edi
	movl	$64, %eax
	movl	%eax, %esi
	movl	$1, %eax
	movl	%eax, %ecx
	movabsq	$.L.str.6, %r8
	xorl	%eax, %eax
	movl	%eax, %r9d
	movabsq	$.L.str.5, %rdx
	movq	-112(%rbp), %r10        # 8-byte Reload
	movq	%rdx, -4856(%rbp)       # 8-byte Spill
	movq	%r10, %rdx
	movq	-4856(%rbp), %r11       # 8-byte Reload
	movq	%r11, (%rsp)
	callq	trace_logger_log_ptr
	movl	$1, %eax
	movl	%eax, %ecx
	movl	$32, %eax
	movl	%eax, %esi
	movabsq	$.L.str.155, %r8
	xorl	%eax, %eax
	movl	%eax, %r9d
	movabsq	$.L.str.5, %rdx
	movl	-4844(%rbp), %eax       # 4-byte Reload
	movl	%eax, %ebx
	movl	%ebx, %edi
	movq	%rdi, -4864(%rbp)       # 8-byte Spill
	movq	%rcx, %rdi
	movq	-4864(%rbp), %r10       # 8-byte Reload
	movq	%rdx, -4872(%rbp)       # 8-byte Spill
	movq	%r10, %rdx
	movq	-4872(%rbp), %r11       # 8-byte Reload
	movq	%r11, (%rsp)
	callq	trace_logger_log_int
	movl	$26, %eax
	movl	%eax, %edi
	movabsq	$.L.str.1, %rsi
	movabsq	$.L.str.44, %rdx
	movabsq	$.L.str.157, %rcx
	movl	$30, %eax
	movl	%eax, %r8d
	xorl	%r9d, %r9d
	movl	$1, %eax
	movq	-112(%rbp), %r10        # 8-byte Reload
	movl	-4844(%rbp), %ebx       # 4-byte Reload
	movl	%ebx, (%r10)
	movl	$1, (%rsp)
	movl	%eax, -4876(%rbp)       # 4-byte Spill
	callq	trace_logger_log0
	movl	$1, %eax
	movl	%eax, %ecx
	movl	$64, %eax
	movl	%eax, %esi
	movabsq	$.L.str.10, %r8
	xorl	%eax, %eax
	movl	%eax, %r9d
	movabsq	$.L.str.5, %rdx
	movq	%rcx, %rdi
	movq	-288(%rbp), %r10        # 8-byte Reload
	movq	%rdx, -4888(%rbp)       # 8-byte Spill
	movq	%r10, %rdx
	movq	-4888(%rbp), %r11       # 8-byte Reload
	movq	%r11, (%rsp)
	callq	trace_logger_log_ptr
	movl	$19134, %eax            # imm = 0x4ABE
	movl	%eax, %edi
	movl	$32, %eax
	movl	%eax, %esi
	movl	$1, %eax
	movl	%eax, %ecx
	movabsq	$.L.str.157, %r8
	xorl	%eax, %eax
	movl	%eax, %r9d
	movabsq	$.L.str.5, %rdx
	movq	-288(%rbp), %r10        # 8-byte Reload
	movl	(%r10), %eax
	movl	%eax, %ebx
	movl	%ebx, %r11d
	movq	%rdx, -4896(%rbp)       # 8-byte Spill
	movq	%r11, %rdx
	movq	-4896(%rbp), %r11       # 8-byte Reload
	movq	%r11, (%rsp)
	movl	%eax, -4900(%rbp)       # 4-byte Spill
	callq	trace_logger_log_int
	movl	$26, %eax
	movl	%eax, %edi
	movabsq	$.L.str.1, %rsi
	movabsq	$.L.str.44, %rdx
	movabsq	$.L.str.158, %rcx
	movl	$11, %eax
	movl	%eax, %r8d
	xorl	%r9d, %r9d
	movl	$1, %eax
	movl	$1, (%rsp)
	movl	%eax, -4904(%rbp)       # 4-byte Spill
	callq	trace_logger_log0
	movl	$2, %eax
	movl	%eax, %edi
	movl	$32, %eax
	movl	%eax, %esi
	movl	$1, %eax
	movl	%eax, %ecx
	movabsq	$.L.str.46, %r8
	xorl	%eax, %eax
	movl	%eax, %r9d
	movabsq	$.L.str.5, %rdx
	movl	-4780(%rbp), %eax       # 4-byte Reload
	movl	%eax, %ebx
	movl	%ebx, %r10d
	movq	%rdx, -4912(%rbp)       # 8-byte Spill
	movq	%r10, %rdx
	movq	-4912(%rbp), %r10       # 8-byte Reload
	movq	%r10, (%rsp)
	callq	trace_logger_log_int
	movl	$1, %eax
	movl	%eax, %ecx
	movl	$32, %eax
	movl	%eax, %esi
	movabsq	$.L.str.157, %r8
	xorl	%eax, %eax
	movl	%eax, %r9d
	movabsq	$.L.str.5, %rdx
	movl	-4900(%rbp), %eax       # 4-byte Reload
	movl	%eax, %ebx
	movl	%ebx, %edi
	movq	%rdi, -4920(%rbp)       # 8-byte Spill
	movq	%rcx, %rdi
	movq	-4920(%rbp), %r10       # 8-byte Reload
	movq	%rdx, -4928(%rbp)       # 8-byte Spill
	movq	%r10, %rdx
	movq	-4928(%rbp), %r11       # 8-byte Reload
	movq	%r11, (%rsp)
	callq	trace_logger_log_int
	movl	$19134, %eax            # imm = 0x4ABE
	movl	%eax, %edi
	movl	$32, %eax
	movl	%eax, %esi
	movl	$1, %eax
	movl	%eax, %ecx
	movabsq	$.L.str.158, %r8
	xorl	%eax, %eax
	movl	%eax, %r9d
	movabsq	$.L.str.5, %rdx
	movl	-4900(%rbp), %eax       # 4-byte Reload
	movl	-4780(%rbp), %ebx       # 4-byte Reload
	addl	%ebx, %eax
	movl	%eax, %r14d
	movl	%r14d, %r10d
	movq	%rdx, -4936(%rbp)       # 8-byte Spill
	movq	%r10, %rdx
	movq	-4936(%rbp), %r10       # 8-byte Reload
	movq	%r10, (%rsp)
	movl	%eax, -4940(%rbp)       # 4-byte Spill
	callq	trace_logger_log_int
	movl	$26, %eax
	movl	%eax, %edi
	movabsq	$.L.str.1, %rsi
	movabsq	$.L.str.44, %rdx
	movabsq	$.L.str.159, %rcx
	movl	$31, %eax
	movl	%eax, %r8d
	xorl	%r9d, %r9d
	movl	$1, %eax
	movl	$1, (%rsp)
	movl	%eax, -4944(%rbp)       # 4-byte Spill
	callq	trace_logger_log0
	movl	$2, %eax
	movl	%eax, %edi
	movl	$64, %eax
	movl	%eax, %esi
	movl	$1, %eax
	movl	%eax, %ecx
	movabsq	$.L.str.8, %r8
	xorl	%eax, %eax
	movl	%eax, %r9d
	movabsq	$.L.str.5, %rdx
	movq	-120(%rbp), %r10        # 8-byte Reload
	movq	%rdx, -4952(%rbp)       # 8-byte Spill
	movq	%r10, %rdx
	movq	-4952(%rbp), %r11       # 8-byte Reload
	movq	%r11, (%rsp)
	callq	trace_logger_log_ptr
	movl	$1, %eax
	movl	%eax, %ecx
	movl	$32, %eax
	movl	%eax, %esi
	movabsq	$.L.str.158, %r8
	xorl	%eax, %eax
	movl	%eax, %r9d
	movabsq	$.L.str.5, %rdx
	movl	-4940(%rbp), %eax       # 4-byte Reload
	movl	%eax, %ebx
	movl	%ebx, %edi
	movq	%rdi, -4960(%rbp)       # 8-byte Spill
	movq	%rcx, %rdi
	movq	-4960(%rbp), %r10       # 8-byte Reload
	movq	%rdx, -4968(%rbp)       # 8-byte Spill
	movq	%r10, %rdx
	movq	-4968(%rbp), %r11       # 8-byte Reload
	movq	%r11, (%rsp)
	callq	trace_logger_log_int
	movl	$26, %eax
	movl	%eax, %edi
	movabsq	$.L.str.1, %rsi
	movabsq	$.L.str.44, %rdx
	movabsq	$.L.str.160, %rcx
	movl	$30, %eax
	movl	%eax, %r8d
	xorl	%r9d, %r9d
	movl	$1, %eax
	movq	-120(%rbp), %r10        # 8-byte Reload
	movl	-4940(%rbp), %ebx       # 4-byte Reload
	movl	%ebx, (%r10)
	movl	$1, (%rsp)
	movl	%eax, -4972(%rbp)       # 4-byte Spill
	callq	trace_logger_log0
	movl	$1, %eax
	movl	%eax, %ecx
	movl	$64, %eax
	movl	%eax, %esi
	movabsq	$.L.str.9, %r8
	xorl	%eax, %eax
	movl	%eax, %r9d
	movabsq	$.L.str.5, %rdx
	movq	%rcx, %rdi
	movq	-256(%rbp), %r10        # 8-byte Reload
	movq	%rdx, -4984(%rbp)       # 8-byte Spill
	movq	%r10, %rdx
	movq	-4984(%rbp), %r11       # 8-byte Reload
	movq	%r11, (%rsp)
	callq	trace_logger_log_ptr
	movl	$19134, %eax            # imm = 0x4ABE
	movl	%eax, %edi
	movl	$32, %eax
	movl	%eax, %esi
	movl	$1, %eax
	movl	%eax, %ecx
	movabsq	$.L.str.160, %r8
	xorl	%eax, %eax
	movl	%eax, %r9d
	movabsq	$.L.str.5, %rdx
	movq	-256(%rbp), %r10        # 8-byte Reload
	movl	(%r10), %eax
	movl	%eax, %ebx
	movl	%ebx, %r11d
	movq	%rdx, -4992(%rbp)       # 8-byte Spill
	movq	%r11, %rdx
	movq	-4992(%rbp), %r11       # 8-byte Reload
	movq	%r11, (%rsp)
	movl	%eax, -4996(%rbp)       # 4-byte Spill
	callq	trace_logger_log_int
	movl	$26, %eax
	movl	%eax, %edi
	movabsq	$.L.str.1, %rsi
	movabsq	$.L.str.44, %rdx
	movabsq	$.L.str.161, %rcx
	movl	$13, %eax
	movl	%eax, %r8d
	xorl	%r9d, %r9d
	movl	$1, %eax
	movl	$1, (%rsp)
	movl	%eax, -5000(%rbp)       # 4-byte Spill
	callq	trace_logger_log0
	movl	$2, %eax
	movl	%eax, %edi
	movl	$32, %eax
	movl	%eax, %esi
	movl	$1, %eax
	movl	%eax, %ecx
	movabsq	$.L.str.160, %r8
	xorl	%eax, %eax
	movl	%eax, %r9d
	movabsq	$.L.str.5, %rdx
	movl	-4996(%rbp), %eax       # 4-byte Reload
	movl	%eax, %ebx
	movl	%ebx, %r10d
	movq	%rdx, -5008(%rbp)       # 8-byte Spill
	movq	%r10, %rdx
	movq	-5008(%rbp), %r10       # 8-byte Reload
	movq	%r10, (%rsp)
	callq	trace_logger_log_int
	movl	$1, %eax
	movl	%eax, %ecx
	movl	$32, %eax
	movl	%eax, %esi
	movabsq	$.L.str.45, %r8
	xorl	%eax, %eax
	movl	%eax, %r9d
	movabsq	$.L.str.5, %rdx
	movl	-4756(%rbp), %eax       # 4-byte Reload
	movl	%eax, %ebx
	movl	%ebx, %edi
	movq	%rdi, -5016(%rbp)       # 8-byte Spill
	movq	%rcx, %rdi
	movq	-5016(%rbp), %r10       # 8-byte Reload
	movq	%rdx, -5024(%rbp)       # 8-byte Spill
	movq	%r10, %rdx
	movq	-5024(%rbp), %r11       # 8-byte Reload
	movq	%r11, (%rsp)
	callq	trace_logger_log_int
	movl	$19134, %eax            # imm = 0x4ABE
	movl	%eax, %edi
	movl	$32, %eax
	movl	%eax, %esi
	movl	$1, %eax
	movl	%eax, %ecx
	movabsq	$.L.str.161, %r8
	xorl	%eax, %eax
	movl	%eax, %r9d
	movabsq	$.L.str.5, %rdx
	movl	-4756(%rbp), %eax       # 4-byte Reload
	movl	-4996(%rbp), %ebx       # 4-byte Reload
	subl	%ebx, %eax
	movl	%eax, %r14d
	movl	%r14d, %r10d
	movq	%rdx, -5032(%rbp)       # 8-byte Spill
	movq	%r10, %rdx
	movq	-5032(%rbp), %r10       # 8-byte Reload
	movq	%r10, (%rsp)
	movl	%eax, -5036(%rbp)       # 4-byte Spill
	callq	trace_logger_log_int
	movl	$26, %eax
	movl	%eax, %edi
	movabsq	$.L.str.1, %rsi
	movabsq	$.L.str.44, %rdx
	movabsq	$.L.str.162, %rcx
	movl	$31, %eax
	movl	%eax, %r8d
	xorl	%r9d, %r9d
	movl	$1, %eax
	movl	$1, (%rsp)
	movl	%eax, -5040(%rbp)       # 4-byte Spill
	callq	trace_logger_log0
	movl	$2, %eax
	movl	%eax, %edi
	movl	$64, %eax
	movl	%eax, %esi
	movl	$1, %eax
	movl	%eax, %ecx
	movabsq	$.L.str.9, %r8
	xorl	%eax, %eax
	movl	%eax, %r9d
	movabsq	$.L.str.5, %rdx
	movq	-256(%rbp), %r10        # 8-byte Reload
	movq	%rdx, -5048(%rbp)       # 8-byte Spill
	movq	%r10, %rdx
	movq	-5048(%rbp), %r11       # 8-byte Reload
	movq	%r11, (%rsp)
	callq	trace_logger_log_ptr
	movl	$1, %eax
	movl	%eax, %ecx
	movl	$32, %eax
	movl	%eax, %esi
	movabsq	$.L.str.161, %r8
	xorl	%eax, %eax
	movl	%eax, %r9d
	movabsq	$.L.str.5, %rdx
	movl	-5036(%rbp), %eax       # 4-byte Reload
	movl	%eax, %ebx
	movl	%ebx, %edi
	movq	%rdi, -5056(%rbp)       # 8-byte Spill
	movq	%rcx, %rdi
	movq	-5056(%rbp), %r10       # 8-byte Reload
	movq	%rdx, -5064(%rbp)       # 8-byte Spill
	movq	%r10, %rdx
	movq	-5064(%rbp), %r11       # 8-byte Reload
	movq	%r11, (%rsp)
	callq	trace_logger_log_int
	movl	$26, %eax
	movl	%eax, %edi
	movabsq	$.L.str.1, %rsi
	movabsq	$.L.str.44, %rdx
	movabsq	$.L.str.163, %rcx
	movl	$30, %eax
	movl	%eax, %r8d
	xorl	%r9d, %r9d
	movl	$1, %eax
	movq	-256(%rbp), %r10        # 8-byte Reload
	movl	-5036(%rbp), %ebx       # 4-byte Reload
	movl	%ebx, (%r10)
	movl	$1, (%rsp)
	movl	%eax, -5068(%rbp)       # 4-byte Spill
	callq	trace_logger_log0
	movl	$1, %eax
	movl	%eax, %ecx
	movl	$64, %eax
	movl	%eax, %esi
	movabsq	$.L.str.10, %r8
	xorl	%eax, %eax
	movl	%eax, %r9d
	movabsq	$.L.str.5, %rdx
	movq	%rcx, %rdi
	movq	-288(%rbp), %r10        # 8-byte Reload
	movq	%rdx, -5080(%rbp)       # 8-byte Spill
	movq	%r10, %rdx
	movq	-5080(%rbp), %r11       # 8-byte Reload
	movq	%r11, (%rsp)
	callq	trace_logger_log_ptr
	movl	$19134, %eax            # imm = 0x4ABE
	movl	%eax, %edi
	movl	$32, %eax
	movl	%eax, %esi
	movl	$1, %eax
	movl	%eax, %ecx
	movabsq	$.L.str.163, %r8
	xorl	%eax, %eax
	movl	%eax, %r9d
	movabsq	$.L.str.5, %rdx
	movq	-288(%rbp), %r10        # 8-byte Reload
	movl	(%r10), %eax
	movl	%eax, %ebx
	movl	%ebx, %r11d
	movq	%rdx, -5088(%rbp)       # 8-byte Spill
	movq	%r11, %rdx
	movq	-5088(%rbp), %r11       # 8-byte Reload
	movq	%r11, (%rsp)
	movl	%eax, -5092(%rbp)       # 4-byte Spill
	callq	trace_logger_log_int
	movl	$26, %eax
	movl	%eax, %edi
	movabsq	$.L.str.1, %rsi
	movabsq	$.L.str.44, %rdx
	movabsq	$.L.str.164, %rcx
	movl	$13, %eax
	movl	%eax, %r8d
	xorl	%r9d, %r9d
	movl	$1, %eax
	movl	$1, (%rsp)
	movl	%eax, -5096(%rbp)       # 4-byte Spill
	callq	trace_logger_log0
	movl	$2, %eax
	movl	%eax, %edi
	movl	$32, %eax
	movl	%eax, %esi
	movl	$1, %eax
	movl	%eax, %ecx
	movabsq	$.L.str.163, %r8
	xorl	%eax, %eax
	movl	%eax, %r9d
	movabsq	$.L.str.5, %rdx
	movl	-5092(%rbp), %eax       # 4-byte Reload
	movl	%eax, %ebx
	movl	%ebx, %r10d
	movq	%rdx, -5104(%rbp)       # 8-byte Spill
	movq	%r10, %rdx
	movq	-5104(%rbp), %r10       # 8-byte Reload
	movq	%r10, (%rsp)
	callq	trace_logger_log_int
	movl	$1, %eax
	movl	%eax, %ecx
	movl	$32, %eax
	movl	%eax, %esi
	movabsq	$.L.str.46, %r8
	xorl	%eax, %eax
	movl	%eax, %r9d
	movabsq	$.L.str.5, %rdx
	movl	-4780(%rbp), %eax       # 4-byte Reload
	movl	%eax, %ebx
	movl	%ebx, %edi
	movq	%rdi, -5112(%rbp)       # 8-byte Spill
	movq	%rcx, %rdi
	movq	-5112(%rbp), %r10       # 8-byte Reload
	movq	%rdx, -5120(%rbp)       # 8-byte Spill
	movq	%r10, %rdx
	movq	-5120(%rbp), %r11       # 8-byte Reload
	movq	%r11, (%rsp)
	callq	trace_logger_log_int
	movl	$19134, %eax            # imm = 0x4ABE
	movl	%eax, %edi
	movl	$32, %eax
	movl	%eax, %esi
	movl	$1, %eax
	movl	%eax, %ecx
	movabsq	$.L.str.164, %r8
	xorl	%eax, %eax
	movl	%eax, %r9d
	movabsq	$.L.str.5, %rdx
	movl	-4780(%rbp), %eax       # 4-byte Reload
	movl	-5092(%rbp), %ebx       # 4-byte Reload
	subl	%ebx, %eax
	movl	%eax, %r14d
	movl	%r14d, %r10d
	movq	%rdx, -5128(%rbp)       # 8-byte Spill
	movq	%r10, %rdx
	movq	-5128(%rbp), %r10       # 8-byte Reload
	movq	%r10, (%rsp)
	movl	%eax, -5132(%rbp)       # 4-byte Spill
	callq	trace_logger_log_int
	movl	$26, %eax
	movl	%eax, %edi
	movabsq	$.L.str.1, %rsi
	movabsq	$.L.str.44, %rdx
	movabsq	$.L.str.165, %rcx
	movl	$31, %eax
	movl	%eax, %r8d
	xorl	%r9d, %r9d
	movl	$1, %eax
	movl	$1, (%rsp)
	movl	%eax, -5136(%rbp)       # 4-byte Spill
	callq	trace_logger_log0
	movl	$2, %eax
	movl	%eax, %edi
	movl	$64, %eax
	movl	%eax, %esi
	movl	$1, %eax
	movl	%eax, %ecx
	movabsq	$.L.str.10, %r8
	xorl	%eax, %eax
	movl	%eax, %r9d
	movabsq	$.L.str.5, %rdx
	movq	-288(%rbp), %r10        # 8-byte Reload
	movq	%rdx, -5144(%rbp)       # 8-byte Spill
	movq	%r10, %rdx
	movq	-5144(%rbp), %r11       # 8-byte Reload
	movq	%r11, (%rsp)
	callq	trace_logger_log_ptr
	movl	$1, %eax
	movl	%eax, %ecx
	movl	$32, %eax
	movl	%eax, %esi
	movabsq	$.L.str.164, %r8
	xorl	%eax, %eax
	movl	%eax, %r9d
	movabsq	$.L.str.5, %rdx
	movl	-5132(%rbp), %eax       # 4-byte Reload
	movl	%eax, %ebx
	movl	%ebx, %edi
	movq	%rdi, -5152(%rbp)       # 8-byte Spill
	movq	%rcx, %rdi
	movq	-5152(%rbp), %r10       # 8-byte Reload
	movq	%rdx, -5160(%rbp)       # 8-byte Spill
	movq	%r10, %rdx
	movq	-5160(%rbp), %r11       # 8-byte Reload
	movq	%r11, (%rsp)
	callq	trace_logger_log_int
	movl	$26, %eax
	movl	%eax, %edi
	movabsq	$.L.str.1, %rsi
	movabsq	$.L.str.44, %rdx
	movabsq	$.L.str.45, %rcx
	movl	$30, %eax
	movl	%eax, %r8d
	xorl	%r9d, %r9d
	movl	$1, %eax
	movq	-288(%rbp), %r10        # 8-byte Reload
	movl	-5132(%rbp), %ebx       # 4-byte Reload
	movl	%ebx, (%r10)
.Ltmp37:
	.loc	1 26 3                  # fft.c:26:3
	movl	$1, (%rsp)
	movl	%eax, -5164(%rbp)       # 4-byte Spill
	callq	trace_logger_log0
	movl	$1, %eax
	movl	%eax, %ecx
	movl	$64, %eax
	movl	%eax, %esi
	movabsq	$.L.str.13, %r8
	xorl	%eax, %eax
	movl	%eax, %r9d
	movabsq	$.L.str.5, %rdx
	movq	%rcx, %rdi
	movq	-392(%rbp), %r10        # 8-byte Reload
	movq	%rdx, -5176(%rbp)       # 8-byte Spill
	movq	%r10, %rdx
	movq	-5176(%rbp), %r11       # 8-byte Reload
	movq	%r11, (%rsp)
	callq	trace_logger_log_ptr
	movl	$19134, %eax            # imm = 0x4ABE
	movl	%eax, %edi
	movl	$32, %eax
	movl	%eax, %esi
	movl	$1, %eax
	movl	%eax, %ecx
	movabsq	$.L.str.45, %r8
	xorl	%eax, %eax
	movl	%eax, %r9d
	movabsq	$.L.str.5, %rdx
	movq	-392(%rbp), %r10        # 8-byte Reload
	movl	(%r10), %eax
	movl	%eax, %ebx
	movl	%ebx, %r11d
	movq	%rdx, -5184(%rbp)       # 8-byte Spill
	movq	%r11, %rdx
	movq	-5184(%rbp), %r11       # 8-byte Reload
	movq	%r11, (%rsp)
	movl	%eax, -5188(%rbp)       # 4-byte Spill
	callq	trace_logger_log_int
	movl	$26, %eax
	movl	%eax, %edi
	movabsq	$.L.str.1, %rsi
	movabsq	$.L.str.44, %rdx
	movabsq	$.L.str.46, %rcx
	movl	$30, %eax
	movl	%eax, %r8d
	xorl	%r9d, %r9d
	movl	$1, %eax
.Ltmp38:
	#DEBUG_VALUE: c0_x <- [DW_OP_constu 5188, DW_OP_minus] [%rbp+0]
	movl	$1, (%rsp)
	movl	%eax, -5192(%rbp)       # 4-byte Spill
	callq	trace_logger_log0
	movl	$1, %eax
	movl	%eax, %ecx
	movl	$64, %eax
	movl	%eax, %esi
	movabsq	$.L.str.14, %r8
	xorl	%eax, %eax
	movl	%eax, %r9d
	movabsq	$.L.str.5, %rdx
	movq	%rcx, %rdi
	movq	-432(%rbp), %r10        # 8-byte Reload
	movq	%rdx, -5200(%rbp)       # 8-byte Spill
	movq	%r10, %rdx
	movq	-5200(%rbp), %r11       # 8-byte Reload
	movq	%r11, (%rsp)
	callq	trace_logger_log_ptr
	movl	$19134, %eax            # imm = 0x4ABE
	movl	%eax, %edi
	movl	$32, %eax
	movl	%eax, %esi
	movl	$1, %eax
	movl	%eax, %ecx
	movabsq	$.L.str.46, %r8
	xorl	%eax, %eax
	movl	%eax, %r9d
	movabsq	$.L.str.5, %rdx
	movq	-432(%rbp), %r10        # 8-byte Reload
	movl	(%r10), %eax
	movl	%eax, %ebx
	movl	%ebx, %r11d
	movq	%rdx, -5208(%rbp)       # 8-byte Spill
	movq	%r11, %rdx
	movq	-5208(%rbp), %r11       # 8-byte Reload
	movq	%r11, (%rsp)
	movl	%eax, -5212(%rbp)       # 4-byte Spill
	callq	trace_logger_log_int
	movl	$26, %eax
	movl	%eax, %edi
	movabsq	$.L.str.1, %rsi
	movabsq	$.L.str.44, %rdx
	movabsq	$.L.str.166, %rcx
	movl	$30, %eax
	movl	%eax, %r8d
	xorl	%r9d, %r9d
	movl	$1, %eax
.Ltmp39:
	#DEBUG_VALUE: c0_y <- [DW_OP_constu 5212, DW_OP_minus] [%rbp+0]
	movl	$1, (%rsp)
	movl	%eax, -5216(%rbp)       # 4-byte Spill
	callq	trace_logger_log0
	movl	$1, %eax
	movl	%eax, %ecx
	movl	$64, %eax
	movl	%eax, %esi
	movabsq	$.L.str.17, %r8
	xorl	%eax, %eax
	movl	%eax, %r9d
	movabsq	$.L.str.5, %rdx
	movq	%rcx, %rdi
	movq	-528(%rbp), %r10        # 8-byte Reload
	movq	%rdx, -5224(%rbp)       # 8-byte Spill
	movq	%r10, %rdx
	movq	-5224(%rbp), %r11       # 8-byte Reload
	movq	%r11, (%rsp)
	callq	trace_logger_log_ptr
	movl	$19134, %eax            # imm = 0x4ABE
	movl	%eax, %edi
	movl	$32, %eax
	movl	%eax, %esi
	movl	$1, %eax
	movl	%eax, %ecx
	movabsq	$.L.str.166, %r8
	xorl	%eax, %eax
	movl	%eax, %r9d
	movabsq	$.L.str.5, %rdx
	movq	-528(%rbp), %r10        # 8-byte Reload
	movl	(%r10), %eax
	movl	%eax, %ebx
	movl	%ebx, %r11d
	movq	%rdx, -5232(%rbp)       # 8-byte Spill
	movq	%r11, %rdx
	movq	-5232(%rbp), %r11       # 8-byte Reload
	movq	%r11, (%rsp)
	movl	%eax, -5236(%rbp)       # 4-byte Spill
	callq	trace_logger_log_int
	movl	$26, %eax
	movl	%eax, %edi
	movabsq	$.L.str.1, %rsi
	movabsq	$.L.str.44, %rdx
	movabsq	$.L.str.167, %rcx
	movl	$11, %eax
	movl	%eax, %r8d
	xorl	%r9d, %r9d
	movl	$1, %eax
	movl	$1, (%rsp)
	movl	%eax, -5240(%rbp)       # 4-byte Spill
	callq	trace_logger_log0
	movl	$2, %eax
	movl	%eax, %edi
	movl	$32, %eax
	movl	%eax, %esi
	movl	$1, %eax
	movl	%eax, %ecx
	movabsq	$.L.str.45, %r8
	xorl	%eax, %eax
	movl	%eax, %r9d
	movabsq	$.L.str.5, %rdx
	movl	-5188(%rbp), %eax       # 4-byte Reload
	movl	%eax, %ebx
	movl	%ebx, %r10d
	movq	%rdx, -5248(%rbp)       # 8-byte Spill
	movq	%r10, %rdx
	movq	-5248(%rbp), %r10       # 8-byte Reload
	movq	%r10, (%rsp)
	callq	trace_logger_log_int
	movl	$1, %eax
	movl	%eax, %ecx
	movl	$32, %eax
	movl	%eax, %esi
	movabsq	$.L.str.166, %r8
	xorl	%eax, %eax
	movl	%eax, %r9d
	movabsq	$.L.str.5, %rdx
	movl	-5236(%rbp), %eax       # 4-byte Reload
	movl	%eax, %ebx
	movl	%ebx, %edi
	movq	%rdi, -5256(%rbp)       # 8-byte Spill
	movq	%rcx, %rdi
	movq	-5256(%rbp), %r10       # 8-byte Reload
	movq	%rdx, -5264(%rbp)       # 8-byte Spill
	movq	%r10, %rdx
	movq	-5264(%rbp), %r11       # 8-byte Reload
	movq	%r11, (%rsp)
	callq	trace_logger_log_int
	movl	$19134, %eax            # imm = 0x4ABE
	movl	%eax, %edi
	movl	$32, %eax
	movl	%eax, %esi
	movl	$1, %eax
	movl	%eax, %ecx
	movabsq	$.L.str.167, %r8
	xorl	%eax, %eax
	movl	%eax, %r9d
	movabsq	$.L.str.5, %rdx
	movl	-5236(%rbp), %eax       # 4-byte Reload
	movl	-5188(%rbp), %ebx       # 4-byte Reload
	addl	%ebx, %eax
	movl	%eax, %r14d
	movl	%r14d, %r10d
	movq	%rdx, -5272(%rbp)       # 8-byte Spill
	movq	%r10, %rdx
	movq	-5272(%rbp), %r10       # 8-byte Reload
	movq	%r10, (%rsp)
	movl	%eax, -5276(%rbp)       # 4-byte Spill
	callq	trace_logger_log_int
	movl	$26, %eax
	movl	%eax, %edi
	movabsq	$.L.str.1, %rsi
	movabsq	$.L.str.44, %rdx
	movabsq	$.L.str.168, %rcx
	movl	$31, %eax
	movl	%eax, %r8d
	xorl	%r9d, %r9d
	movl	$1, %eax
	movl	$1, (%rsp)
	movl	%eax, -5280(%rbp)       # 4-byte Spill
	callq	trace_logger_log0
	movl	$2, %eax
	movl	%eax, %edi
	movl	$64, %eax
	movl	%eax, %esi
	movl	$1, %eax
	movl	%eax, %ecx
	movabsq	$.L.str.13, %r8
	xorl	%eax, %eax
	movl	%eax, %r9d
	movabsq	$.L.str.5, %rdx
	movq	-392(%rbp), %r10        # 8-byte Reload
	movq	%rdx, -5288(%rbp)       # 8-byte Spill
	movq	%r10, %rdx
	movq	-5288(%rbp), %r11       # 8-byte Reload
	movq	%r11, (%rsp)
	callq	trace_logger_log_ptr
	movl	$1, %eax
	movl	%eax, %ecx
	movl	$32, %eax
	movl	%eax, %esi
	movabsq	$.L.str.167, %r8
	xorl	%eax, %eax
	movl	%eax, %r9d
	movabsq	$.L.str.5, %rdx
	movl	-5276(%rbp), %eax       # 4-byte Reload
	movl	%eax, %ebx
	movl	%ebx, %edi
	movq	%rdi, -5296(%rbp)       # 8-byte Spill
	movq	%rcx, %rdi
	movq	-5296(%rbp), %r10       # 8-byte Reload
	movq	%rdx, -5304(%rbp)       # 8-byte Spill
	movq	%r10, %rdx
	movq	-5304(%rbp), %r11       # 8-byte Reload
	movq	%r11, (%rsp)
	callq	trace_logger_log_int
	movl	$26, %eax
	movl	%eax, %edi
	movabsq	$.L.str.1, %rsi
	movabsq	$.L.str.44, %rdx
	movabsq	$.L.str.169, %rcx
	movl	$30, %eax
	movl	%eax, %r8d
	xorl	%r9d, %r9d
	movl	$1, %eax
	movq	-392(%rbp), %r10        # 8-byte Reload
	movl	-5276(%rbp), %ebx       # 4-byte Reload
	movl	%ebx, (%r10)
	movl	$1, (%rsp)
	movl	%eax, -5308(%rbp)       # 4-byte Spill
	callq	trace_logger_log0
	movl	$1, %eax
	movl	%eax, %ecx
	movl	$64, %eax
	movl	%eax, %esi
	movabsq	$.L.str.18, %r8
	xorl	%eax, %eax
	movl	%eax, %r9d
	movabsq	$.L.str.5, %rdx
	movq	%rcx, %rdi
	movq	-560(%rbp), %r10        # 8-byte Reload
	movq	%rdx, -5320(%rbp)       # 8-byte Spill
	movq	%r10, %rdx
	movq	-5320(%rbp), %r11       # 8-byte Reload
	movq	%r11, (%rsp)
	callq	trace_logger_log_ptr
	movl	$19134, %eax            # imm = 0x4ABE
	movl	%eax, %edi
	movl	$32, %eax
	movl	%eax, %esi
	movl	$1, %eax
	movl	%eax, %ecx
	movabsq	$.L.str.169, %r8
	xorl	%eax, %eax
	movl	%eax, %r9d
	movabsq	$.L.str.5, %rdx
	movq	-560(%rbp), %r10        # 8-byte Reload
	movl	(%r10), %eax
	movl	%eax, %ebx
	movl	%ebx, %r11d
	movq	%rdx, -5328(%rbp)       # 8-byte Spill
	movq	%r11, %rdx
	movq	-5328(%rbp), %r11       # 8-byte Reload
	movq	%r11, (%rsp)
	movl	%eax, -5332(%rbp)       # 4-byte Spill
	callq	trace_logger_log_int
	movl	$26, %eax
	movl	%eax, %edi
	movabsq	$.L.str.1, %rsi
	movabsq	$.L.str.44, %rdx
	movabsq	$.L.str.170, %rcx
	movl	$11, %eax
	movl	%eax, %r8d
	xorl	%r9d, %r9d
	movl	$1, %eax
	movl	$1, (%rsp)
	movl	%eax, -5336(%rbp)       # 4-byte Spill
	callq	trace_logger_log0
	movl	$2, %eax
	movl	%eax, %edi
	movl	$32, %eax
	movl	%eax, %esi
	movl	$1, %eax
	movl	%eax, %ecx
	movabsq	$.L.str.46, %r8
	xorl	%eax, %eax
	movl	%eax, %r9d
	movabsq	$.L.str.5, %rdx
	movl	-5212(%rbp), %eax       # 4-byte Reload
	movl	%eax, %ebx
	movl	%ebx, %r10d
	movq	%rdx, -5344(%rbp)       # 8-byte Spill
	movq	%r10, %rdx
	movq	-5344(%rbp), %r10       # 8-byte Reload
	movq	%r10, (%rsp)
	callq	trace_logger_log_int
	movl	$1, %eax
	movl	%eax, %ecx
	movl	$32, %eax
	movl	%eax, %esi
	movabsq	$.L.str.169, %r8
	xorl	%eax, %eax
	movl	%eax, %r9d
	movabsq	$.L.str.5, %rdx
	movl	-5332(%rbp), %eax       # 4-byte Reload
	movl	%eax, %ebx
	movl	%ebx, %edi
	movq	%rdi, -5352(%rbp)       # 8-byte Spill
	movq	%rcx, %rdi
	movq	-5352(%rbp), %r10       # 8-byte Reload
	movq	%rdx, -5360(%rbp)       # 8-byte Spill
	movq	%r10, %rdx
	movq	-5360(%rbp), %r11       # 8-byte Reload
	movq	%r11, (%rsp)
	callq	trace_logger_log_int
	movl	$19134, %eax            # imm = 0x4ABE
	movl	%eax, %edi
	movl	$32, %eax
	movl	%eax, %esi
	movl	$1, %eax
	movl	%eax, %ecx
	movabsq	$.L.str.170, %r8
	xorl	%eax, %eax
	movl	%eax, %r9d
	movabsq	$.L.str.5, %rdx
	movl	-5332(%rbp), %eax       # 4-byte Reload
	movl	-5212(%rbp), %ebx       # 4-byte Reload
	addl	%ebx, %eax
	movl	%eax, %r14d
	movl	%r14d, %r10d
	movq	%rdx, -5368(%rbp)       # 8-byte Spill
	movq	%r10, %rdx
	movq	-5368(%rbp), %r10       # 8-byte Reload
	movq	%r10, (%rsp)
	movl	%eax, -5372(%rbp)       # 4-byte Spill
	callq	trace_logger_log_int
	movl	$26, %eax
	movl	%eax, %edi
	movabsq	$.L.str.1, %rsi
	movabsq	$.L.str.44, %rdx
	movabsq	$.L.str.171, %rcx
	movl	$31, %eax
	movl	%eax, %r8d
	xorl	%r9d, %r9d
	movl	$1, %eax
	movl	$1, (%rsp)
	movl	%eax, -5376(%rbp)       # 4-byte Spill
	callq	trace_logger_log0
	movl	$2, %eax
	movl	%eax, %edi
	movl	$64, %eax
	movl	%eax, %esi
	movl	$1, %eax
	movl	%eax, %ecx
	movabsq	$.L.str.14, %r8
	xorl	%eax, %eax
	movl	%eax, %r9d
	movabsq	$.L.str.5, %rdx
	movq	-432(%rbp), %r10        # 8-byte Reload
	movq	%rdx, -5384(%rbp)       # 8-byte Spill
	movq	%r10, %rdx
	movq	-5384(%rbp), %r11       # 8-byte Reload
	movq	%r11, (%rsp)
	callq	trace_logger_log_ptr
	movl	$1, %eax
	movl	%eax, %ecx
	movl	$32, %eax
	movl	%eax, %esi
	movabsq	$.L.str.170, %r8
	xorl	%eax, %eax
	movl	%eax, %r9d
	movabsq	$.L.str.5, %rdx
	movl	-5372(%rbp), %eax       # 4-byte Reload
	movl	%eax, %ebx
	movl	%ebx, %edi
	movq	%rdi, -5392(%rbp)       # 8-byte Spill
	movq	%rcx, %rdi
	movq	-5392(%rbp), %r10       # 8-byte Reload
	movq	%rdx, -5400(%rbp)       # 8-byte Spill
	movq	%r10, %rdx
	movq	-5400(%rbp), %r11       # 8-byte Reload
	movq	%r11, (%rsp)
	callq	trace_logger_log_int
	movl	$26, %eax
	movl	%eax, %edi
	movabsq	$.L.str.1, %rsi
	movabsq	$.L.str.44, %rdx
	movabsq	$.L.str.172, %rcx
	movl	$30, %eax
	movl	%eax, %r8d
	xorl	%r9d, %r9d
	movl	$1, %eax
	movq	-432(%rbp), %r10        # 8-byte Reload
	movl	-5372(%rbp), %ebx       # 4-byte Reload
	movl	%ebx, (%r10)
	movl	$1, (%rsp)
	movl	%eax, -5404(%rbp)       # 4-byte Spill
	callq	trace_logger_log0
	movl	$1, %eax
	movl	%eax, %ecx
	movl	$64, %eax
	movl	%eax, %esi
	movabsq	$.L.str.17, %r8
	xorl	%eax, %eax
	movl	%eax, %r9d
	movabsq	$.L.str.5, %rdx
	movq	%rcx, %rdi
	movq	-528(%rbp), %r10        # 8-byte Reload
	movq	%rdx, -5416(%rbp)       # 8-byte Spill
	movq	%r10, %rdx
	movq	-5416(%rbp), %r11       # 8-byte Reload
	movq	%r11, (%rsp)
	callq	trace_logger_log_ptr
	movl	$19134, %eax            # imm = 0x4ABE
	movl	%eax, %edi
	movl	$32, %eax
	movl	%eax, %esi
	movl	$1, %eax
	movl	%eax, %ecx
	movabsq	$.L.str.172, %r8
	xorl	%eax, %eax
	movl	%eax, %r9d
	movabsq	$.L.str.5, %rdx
	movq	-528(%rbp), %r10        # 8-byte Reload
	movl	(%r10), %eax
	movl	%eax, %ebx
	movl	%ebx, %r11d
	movq	%rdx, -5424(%rbp)       # 8-byte Spill
	movq	%r11, %rdx
	movq	-5424(%rbp), %r11       # 8-byte Reload
	movq	%r11, (%rsp)
	movl	%eax, -5428(%rbp)       # 4-byte Spill
	callq	trace_logger_log_int
	movl	$26, %eax
	movl	%eax, %edi
	movabsq	$.L.str.1, %rsi
	movabsq	$.L.str.44, %rdx
	movabsq	$.L.str.173, %rcx
	movl	$13, %eax
	movl	%eax, %r8d
	xorl	%r9d, %r9d
	movl	$1, %eax
	movl	$1, (%rsp)
	movl	%eax, -5432(%rbp)       # 4-byte Spill
	callq	trace_logger_log0
	movl	$2, %eax
	movl	%eax, %edi
	movl	$32, %eax
	movl	%eax, %esi
	movl	$1, %eax
	movl	%eax, %ecx
	movabsq	$.L.str.172, %r8
	xorl	%eax, %eax
	movl	%eax, %r9d
	movabsq	$.L.str.5, %rdx
	movl	-5428(%rbp), %eax       # 4-byte Reload
	movl	%eax, %ebx
	movl	%ebx, %r10d
	movq	%rdx, -5440(%rbp)       # 8-byte Spill
	movq	%r10, %rdx
	movq	-5440(%rbp), %r10       # 8-byte Reload
	movq	%r10, (%rsp)
	callq	trace_logger_log_int
	movl	$1, %eax
	movl	%eax, %ecx
	movl	$32, %eax
	movl	%eax, %esi
	movabsq	$.L.str.45, %r8
	xorl	%eax, %eax
	movl	%eax, %r9d
	movabsq	$.L.str.5, %rdx
	movl	-5188(%rbp), %eax       # 4-byte Reload
	movl	%eax, %ebx
	movl	%ebx, %edi
	movq	%rdi, -5448(%rbp)       # 8-byte Spill
	movq	%rcx, %rdi
	movq	-5448(%rbp), %r10       # 8-byte Reload
	movq	%rdx, -5456(%rbp)       # 8-byte Spill
	movq	%r10, %rdx
	movq	-5456(%rbp), %r11       # 8-byte Reload
	movq	%r11, (%rsp)
	callq	trace_logger_log_int
	movl	$19134, %eax            # imm = 0x4ABE
	movl	%eax, %edi
	movl	$32, %eax
	movl	%eax, %esi
	movl	$1, %eax
	movl	%eax, %ecx
	movabsq	$.L.str.173, %r8
	xorl	%eax, %eax
	movl	%eax, %r9d
	movabsq	$.L.str.5, %rdx
	movl	-5188(%rbp), %eax       # 4-byte Reload
	movl	-5428(%rbp), %ebx       # 4-byte Reload
	subl	%ebx, %eax
	movl	%eax, %r14d
	movl	%r14d, %r10d
	movq	%rdx, -5464(%rbp)       # 8-byte Spill
	movq	%r10, %rdx
	movq	-5464(%rbp), %r10       # 8-byte Reload
	movq	%r10, (%rsp)
	movl	%eax, -5468(%rbp)       # 4-byte Spill
	callq	trace_logger_log_int
	movl	$26, %eax
	movl	%eax, %edi
	movabsq	$.L.str.1, %rsi
	movabsq	$.L.str.44, %rdx
	movabsq	$.L.str.174, %rcx
	movl	$31, %eax
	movl	%eax, %r8d
	xorl	%r9d, %r9d
	movl	$1, %eax
	movl	$1, (%rsp)
	movl	%eax, -5472(%rbp)       # 4-byte Spill
	callq	trace_logger_log0
	movl	$2, %eax
	movl	%eax, %edi
	movl	$64, %eax
	movl	%eax, %esi
	movl	$1, %eax
	movl	%eax, %ecx
	movabsq	$.L.str.17, %r8
	xorl	%eax, %eax
	movl	%eax, %r9d
	movabsq	$.L.str.5, %rdx
	movq	-528(%rbp), %r10        # 8-byte Reload
	movq	%rdx, -5480(%rbp)       # 8-byte Spill
	movq	%r10, %rdx
	movq	-5480(%rbp), %r11       # 8-byte Reload
	movq	%r11, (%rsp)
	callq	trace_logger_log_ptr
	movl	$1, %eax
	movl	%eax, %ecx
	movl	$32, %eax
	movl	%eax, %esi
	movabsq	$.L.str.173, %r8
	xorl	%eax, %eax
	movl	%eax, %r9d
	movabsq	$.L.str.5, %rdx
	movl	-5468(%rbp), %eax       # 4-byte Reload
	movl	%eax, %ebx
	movl	%ebx, %edi
	movq	%rdi, -5488(%rbp)       # 8-byte Spill
	movq	%rcx, %rdi
	movq	-5488(%rbp), %r10       # 8-byte Reload
	movq	%rdx, -5496(%rbp)       # 8-byte Spill
	movq	%r10, %rdx
	movq	-5496(%rbp), %r11       # 8-byte Reload
	movq	%r11, (%rsp)
	callq	trace_logger_log_int
	movl	$26, %eax
	movl	%eax, %edi
	movabsq	$.L.str.1, %rsi
	movabsq	$.L.str.44, %rdx
	movabsq	$.L.str.175, %rcx
	movl	$30, %eax
	movl	%eax, %r8d
	xorl	%r9d, %r9d
	movl	$1, %eax
	movq	-528(%rbp), %r10        # 8-byte Reload
	movl	-5468(%rbp), %ebx       # 4-byte Reload
	movl	%ebx, (%r10)
	movl	$1, (%rsp)
	movl	%eax, -5500(%rbp)       # 4-byte Spill
	callq	trace_logger_log0
	movl	$1, %eax
	movl	%eax, %ecx
	movl	$64, %eax
	movl	%eax, %esi
	movabsq	$.L.str.18, %r8
	xorl	%eax, %eax
	movl	%eax, %r9d
